
main.o:     file format elf32-littlearm

Disassembly of section .text:

00000000 <raise>:
#define URXH0 (*(volatile unsigned long*)0x50000024) 
#define UBRDIV0 (*(volatile unsigned long*)0x50000028)


int raise(int a)
{
   0:	e52db004 	push	{fp}		; (str fp, [sp, #-4]!)
   4:	e28db000 	add	fp, sp, #0	; 0x0
   8:	e24dd00c 	sub	sp, sp, #12	; 0xc
   c:	e50b0008 	str	r0, [fp, #-8]

}
  10:	e28bd000 	add	sp, fp, #0	; 0x0
  14:	e8bd0800 	pop	{fp}
  18:	e12fff1e 	bx	lr

0000001c <init_irq>:

void init_irq()
{
  1c:	e52db004 	push	{fp}		; (str fp, [sp, #-4]!)
  20:	e28db000 	add	fp, sp, #0	; 0x0

    // 在EINTMASK寄存器中使能它们
    *(EINTMASK) &= (~(1<<8)) & (~(1<<11)) & (~(1<<13)) & (~(1<<14));
  24:	e3a02456 	mov	r2, #1442840576	; 0x56000000
  28:	e28220a4 	add	r2, r2, #164	; 0xa4
  2c:	e3a03456 	mov	r3, #1442840576	; 0x56000000
  30:	e28330a4 	add	r3, r3, #164	; 0xa4
  34:	e5933000 	ldr	r3, [r3]
  38:	e3c33c69 	bic	r3, r3, #26880	; 0x6900
  3c:	e5823000 	str	r3, [r2]

    // EINT8_23使能
    *(INTMSK)   &= ~(1<<5);
  40:	e3a0244a 	mov	r2, #1241513984	; 0x4a000000
  44:	e2822008 	add	r2, r2, #8	; 0x8
  48:	e3a0344a 	mov	r3, #1241513984	; 0x4a000000
  4c:	e2833008 	add	r3, r3, #8	; 0x8
  50:	e5933000 	ldr	r3, [r3]
  54:	e3c33020 	bic	r3, r3, #32	; 0x20
  58:	e5823000 	str	r3, [r2]
    
    __asm__( 
  5c:	e10f0000 	mrs	r0, CPSR
  60:	e3c00080 	bic	r0, r0, #128	; 0x80
  64:	e121f000 	msr	CPSR_c, r0
    "bic r0, r0, #0x80\n"
    "msr cpsr_c, r0\n"            
    : 
    : 
  );
}
  68:	e28bd000 	add	sp, fp, #0	; 0x0
  6c:	e8bd0800 	pop	{fp}
  70:	e12fff1e 	bx	lr

00000074 <delay>:


void delay(int n)
{
  74:	e52db004 	push	{fp}		; (str fp, [sp, #-4]!)
  78:	e28db000 	add	fp, sp, #0	; 0x0
  7c:	e24dd00c 	sub	sp, sp, #12	; 0xc
  80:	e50b0008 	str	r0, [fp, #-8]
	while(n--);
  84:	e51b3008 	ldr	r3, [fp, #-8]
  88:	e3530000 	cmp	r3, #0	; 0x0
  8c:	03a03000 	moveq	r3, #0	; 0x0
  90:	13a03001 	movne	r3, #1	; 0x1
  94:	e20320ff 	and	r2, r3, #255	; 0xff
  98:	e51b3008 	ldr	r3, [fp, #-8]
  9c:	e2433001 	sub	r3, r3, #1	; 0x1
  a0:	e50b3008 	str	r3, [fp, #-8]
  a4:	e3520000 	cmp	r2, #0	; 0x0
  a8:	1afffff5 	bne	84 <delay+0x10>
}
  ac:	e28bd000 	add	sp, fp, #0	; 0x0
  b0:	e8bd0800 	pop	{fp}
  b4:	e12fff1e 	bx	lr

000000b8 <light_led>:

void light_led(int led_number)
{
  b8:	e52db004 	push	{fp}		; (str fp, [sp, #-4]!)
  bc:	e28db000 	add	fp, sp, #0	; 0x0
  c0:	e24dd00c 	sub	sp, sp, #12	; 0xc
  c4:	e50b0008 	str	r0, [fp, #-8]
	switch(led_number)
  c8:	e51b3008 	ldr	r3, [fp, #-8]
  cc:	e3530003 	cmp	r3, #3	; 0x3
  d0:	979ff103 	ldrls	pc, [pc, r3, lsl #2]
  d4:	ea000026 	b	174 <light_led+0xbc>
  d8:	000000e8 	.word	0x000000e8
  dc:	0000010c 	.word	0x0000010c
  e0:	00000130 	.word	0x00000130
  e4:	00000154 	.word	0x00000154
	{
		case 0:
			*(GPBCON) = 0x400;
  e8:	e3a03456 	mov	r3, #1442840576	; 0x56000000
  ec:	e2833010 	add	r3, r3, #16	; 0x10
  f0:	e3a02b01 	mov	r2, #1024	; 0x400
  f4:	e5832000 	str	r2, [r3]
			*(GPBDAT) = 0;
  f8:	e3a03456 	mov	r3, #1442840576	; 0x56000000
  fc:	e2833014 	add	r3, r3, #20	; 0x14
 100:	e3a02000 	mov	r2, #0	; 0x0
 104:	e5832000 	str	r2, [r3]
 108:	ea000019 	b	174 <light_led+0xbc>
			break;
		case 1:
			*(GPBCON) = 0x1000;
 10c:	e3a03456 	mov	r3, #1442840576	; 0x56000000
 110:	e2833010 	add	r3, r3, #16	; 0x10
 114:	e3a02a01 	mov	r2, #4096	; 0x1000
 118:	e5832000 	str	r2, [r3]
			*(GPBDAT) = 0x0;
 11c:	e3a03456 	mov	r3, #1442840576	; 0x56000000
 120:	e2833014 	add	r3, r3, #20	; 0x14
 124:	e3a02000 	mov	r2, #0	; 0x0
 128:	e5832000 	str	r2, [r3]
 12c:	ea000010 	b	174 <light_led+0xbc>
			break;
		case 2:
			*(GPBCON) = 0x4000;
 130:	e3a03456 	mov	r3, #1442840576	; 0x56000000
 134:	e2833010 	add	r3, r3, #16	; 0x10
 138:	e3a02901 	mov	r2, #16384	; 0x4000
 13c:	e5832000 	str	r2, [r3]
			*(GPBDAT) = 0x0;
 140:	e3a03456 	mov	r3, #1442840576	; 0x56000000
 144:	e2833014 	add	r3, r3, #20	; 0x14
 148:	e3a02000 	mov	r2, #0	; 0x0
 14c:	e5832000 	str	r2, [r3]
 150:	ea000007 	b	174 <light_led+0xbc>
			break;
		case 3:
			*(GPBCON) = 0x10000;
 154:	e3a03456 	mov	r3, #1442840576	; 0x56000000
 158:	e2833010 	add	r3, r3, #16	; 0x10
 15c:	e3a02801 	mov	r2, #65536	; 0x10000
 160:	e5832000 	str	r2, [r3]
			*(GPBDAT) = 0x0;
 164:	e3a03456 	mov	r3, #1442840576	; 0x56000000
 168:	e2833014 	add	r3, r3, #20	; 0x14
 16c:	e3a02000 	mov	r2, #0	; 0x0
 170:	e5832000 	str	r2, [r3]
			break;
		default:
			break;
	}
}
 174:	e28bd000 	add	sp, fp, #0	; 0x0
 178:	e8bd0800 	pop	{fp}
 17c:	e12fff1e 	bx	lr

00000180 <uart0_init>:

void uart0_init()
{
 180:	e52db004 	push	{fp}		; (str fp, [sp, #-4]!)
 184:	e28db000 	add	fp, sp, #0	; 0x0
    GPHCON &= ~(0xf<<4);
 188:	e3a02456 	mov	r2, #1442840576	; 0x56000000
 18c:	e2822070 	add	r2, r2, #112	; 0x70
 190:	e3a03456 	mov	r3, #1442840576	; 0x56000000
 194:	e2833070 	add	r3, r3, #112	; 0x70
 198:	e5933000 	ldr	r3, [r3]
 19c:	e3c330f0 	bic	r3, r3, #240	; 0xf0
 1a0:	e5823000 	str	r3, [r2]
    GPHCON |= (0xa<<4);
 1a4:	e3a02456 	mov	r2, #1442840576	; 0x56000000
 1a8:	e2822070 	add	r2, r2, #112	; 0x70
 1ac:	e3a03456 	mov	r3, #1442840576	; 0x56000000
 1b0:	e2833070 	add	r3, r3, #112	; 0x70
 1b4:	e5933000 	ldr	r3, [r3]
 1b8:	e38330a0 	orr	r3, r3, #160	; 0xa0
 1bc:	e5823000 	str	r3, [r2]
	
	*(ULCON0) = 0x03;
 1c0:	e3a02205 	mov	r2, #1342177280	; 0x50000000
 1c4:	e3a03003 	mov	r3, #3	; 0x3
 1c8:	e5823000 	str	r3, [r2]
	*(UCON0) = 0x05;
 1cc:	e3a02245 	mov	r2, #1342177284	; 0x50000004
 1d0:	e3a03005 	mov	r3, #5	; 0x5
 1d4:	e5823000 	str	r3, [r2]
	UBRDIV0 = 0x1a;
 1d8:	e3a03205 	mov	r3, #1342177280	; 0x50000000
 1dc:	e2833028 	add	r3, r3, #40	; 0x28
 1e0:	e3a0201a 	mov	r2, #26	; 0x1a
 1e4:	e5832000 	str	r2, [r3]
}
 1e8:	e28bd000 	add	sp, fp, #0	; 0x0
 1ec:	e8bd0800 	pop	{fp}
 1f0:	e12fff1e 	bx	lr

000001f4 <uart0_send_data>:

void uart0_send_data(char data)
{
 1f4:	e52db004 	push	{fp}		; (str fp, [sp, #-4]!)
 1f8:	e28db000 	add	fp, sp, #0	; 0x0
 1fc:	e24dd00c 	sub	sp, sp, #12	; 0xc
 200:	e1a03000 	mov	r3, r0
 204:	e54b3005 	strb	r3, [fp, #-5]
	while (!(UTRSTAT0 & (1<<1)));
 208:	e3a03205 	mov	r3, #1342177280	; 0x50000000
 20c:	e2833010 	add	r3, r3, #16	; 0x10
 210:	e5933000 	ldr	r3, [r3]
 214:	e2033002 	and	r3, r3, #2	; 0x2
 218:	e3530000 	cmp	r3, #0	; 0x0
 21c:	0afffff9 	beq	208 <uart0_send_data+0x14>
	UTXH0 = data;
 220:	e3a03205 	mov	r3, #1342177280	; 0x50000000
 224:	e2833020 	add	r3, r3, #32	; 0x20
 228:	e55b2005 	ldrb	r2, [fp, #-5]
 22c:	e5832000 	str	r2, [r3]
}
 230:	e28bd000 	add	sp, fp, #0	; 0x0
 234:	e8bd0800 	pop	{fp}
 238:	e12fff1e 	bx	lr

0000023c <uart0_recv_data>:

void uart0_recv_data(char* data)
{
 23c:	e52db004 	push	{fp}		; (str fp, [sp, #-4]!)
 240:	e28db000 	add	fp, sp, #0	; 0x0
 244:	e24dd00c 	sub	sp, sp, #12	; 0xc
 248:	e50b0008 	str	r0, [fp, #-8]
	while(!(UTRSTAT0 & 0x01));
 24c:	e3a03205 	mov	r3, #1342177280	; 0x50000000
 250:	e2833010 	add	r3, r3, #16	; 0x10
 254:	e5933000 	ldr	r3, [r3]
 258:	e2033001 	and	r3, r3, #1	; 0x1
 25c:	e3530000 	cmp	r3, #0	; 0x0
 260:	0afffff9 	beq	24c <uart0_recv_data+0x10>
	*data = (URXH0);
 264:	e3a03205 	mov	r3, #1342177280	; 0x50000000
 268:	e2833024 	add	r3, r3, #36	; 0x24
 26c:	e5933000 	ldr	r3, [r3]
 270:	e20330ff 	and	r3, r3, #255	; 0xff
 274:	e51b2008 	ldr	r2, [fp, #-8]
 278:	e5c23000 	strb	r3, [r2]
}
 27c:	e28bd000 	add	sp, fp, #0	; 0x0
 280:	e8bd0800 	pop	{fp}
 284:	e12fff1e 	bx	lr

00000288 <print_string>:

void print_string(const char* string)
{
 288:	e92d4800 	push	{fp, lr}
 28c:	e28db004 	add	fp, sp, #4	; 0x4
 290:	e24dd010 	sub	sp, sp, #16	; 0x10
 294:	e50b0010 	str	r0, [fp, #-16]
	const char* string_temp = string;
 298:	e51b3010 	ldr	r3, [fp, #-16]
 29c:	e50b3008 	str	r3, [fp, #-8]
	if(string_temp != NULL)
 2a0:	e51b3008 	ldr	r3, [fp, #-8]
 2a4:	e3530000 	cmp	r3, #0	; 0x0
 2a8:	0a00000b 	beq	2dc <print_string+0x54>
 2ac:	ea000006 	b	2cc <print_string+0x44>
	{
		while(*string_temp)
		{
			uart0_send_data(*string_temp);
 2b0:	e51b3008 	ldr	r3, [fp, #-8]
 2b4:	e5d33000 	ldrb	r3, [r3]
 2b8:	e1a00003 	mov	r0, r3
 2bc:	ebfffffe 	bl	1f4 <uart0_send_data>
			string_temp++;
 2c0:	e51b3008 	ldr	r3, [fp, #-8]
 2c4:	e2833001 	add	r3, r3, #1	; 0x1
 2c8:	e50b3008 	str	r3, [fp, #-8]
void print_string(const char* string)
{
	const char* string_temp = string;
	if(string_temp != NULL)
	{
		while(*string_temp)
 2cc:	e51b3008 	ldr	r3, [fp, #-8]
 2d0:	e5d33000 	ldrb	r3, [r3]
 2d4:	e3530000 	cmp	r3, #0	; 0x0
 2d8:	1afffff4 	bne	2b0 <print_string+0x28>
		{
			uart0_send_data(*string_temp);
			string_temp++;
		}
	}
}
 2dc:	e24bd004 	sub	sp, fp, #4	; 0x4
 2e0:	e8bd4800 	pop	{fp, lr}
 2e4:	e12fff1e 	bx	lr

000002e8 <print_int_deci_data>:

void print_int_deci_data(int int_data)
{
 2e8:	e92d4800 	push	{fp, lr}
 2ec:	e28db004 	add	fp, sp, #4	; 0x4
 2f0:	e24dd020 	sub	sp, sp, #32	; 0x20
 2f4:	e50b0020 	str	r0, [fp, #-32]
	char bit_values[10] = {0};
 2f8:	e24b1017 	sub	r1, fp, #23	; 0x17
 2fc:	e50b1024 	str	r1, [fp, #-36]
 300:	e3a03000 	mov	r3, #0	; 0x0
 304:	e51b2024 	ldr	r2, [fp, #-36]
 308:	e5c23000 	strb	r3, [r2]
 30c:	e51b3024 	ldr	r3, [fp, #-36]
 310:	e2833001 	add	r3, r3, #1	; 0x1
 314:	e50b3024 	str	r3, [fp, #-36]
 318:	e3a03000 	mov	r3, #0	; 0x0
 31c:	e51bc024 	ldr	ip, [fp, #-36]
 320:	e5cc3000 	strb	r3, [ip]
 324:	e51b1024 	ldr	r1, [fp, #-36]
 328:	e2811001 	add	r1, r1, #1	; 0x1
 32c:	e50b1024 	str	r1, [fp, #-36]
 330:	e3a03000 	mov	r3, #0	; 0x0
 334:	e51b2024 	ldr	r2, [fp, #-36]
 338:	e5c23000 	strb	r3, [r2]
 33c:	e51b3024 	ldr	r3, [fp, #-36]
 340:	e2833001 	add	r3, r3, #1	; 0x1
 344:	e50b3024 	str	r3, [fp, #-36]
 348:	e3a03000 	mov	r3, #0	; 0x0
 34c:	e51bc024 	ldr	ip, [fp, #-36]
 350:	e5cc3000 	strb	r3, [ip]
 354:	e51b1024 	ldr	r1, [fp, #-36]
 358:	e2811001 	add	r1, r1, #1	; 0x1
 35c:	e50b1024 	str	r1, [fp, #-36]
 360:	e3a03000 	mov	r3, #0	; 0x0
 364:	e51b2024 	ldr	r2, [fp, #-36]
 368:	e5c23000 	strb	r3, [r2]
 36c:	e51b3024 	ldr	r3, [fp, #-36]
 370:	e2833001 	add	r3, r3, #1	; 0x1
 374:	e50b3024 	str	r3, [fp, #-36]
 378:	e3a03000 	mov	r3, #0	; 0x0
 37c:	e51bc024 	ldr	ip, [fp, #-36]
 380:	e5cc3000 	strb	r3, [ip]
 384:	e51b1024 	ldr	r1, [fp, #-36]
 388:	e2811001 	add	r1, r1, #1	; 0x1
 38c:	e50b1024 	str	r1, [fp, #-36]
 390:	e3a03000 	mov	r3, #0	; 0x0
 394:	e51b2024 	ldr	r2, [fp, #-36]
 398:	e5c23000 	strb	r3, [r2]
 39c:	e51b3024 	ldr	r3, [fp, #-36]
 3a0:	e2833001 	add	r3, r3, #1	; 0x1
 3a4:	e50b3024 	str	r3, [fp, #-36]
 3a8:	e3a03000 	mov	r3, #0	; 0x0
 3ac:	e51bc024 	ldr	ip, [fp, #-36]
 3b0:	e5cc3000 	strb	r3, [ip]
 3b4:	e51b1024 	ldr	r1, [fp, #-36]
 3b8:	e2811001 	add	r1, r1, #1	; 0x1
 3bc:	e50b1024 	str	r1, [fp, #-36]
 3c0:	e3a03000 	mov	r3, #0	; 0x0
 3c4:	e51b2024 	ldr	r2, [fp, #-36]
 3c8:	e5c23000 	strb	r3, [r2]
 3cc:	e51b3024 	ldr	r3, [fp, #-36]
 3d0:	e2833001 	add	r3, r3, #1	; 0x1
 3d4:	e50b3024 	str	r3, [fp, #-36]
 3d8:	e3a03000 	mov	r3, #0	; 0x0
 3dc:	e51bc024 	ldr	ip, [fp, #-36]
 3e0:	e5cc3000 	strb	r3, [ip]
 3e4:	e51b1024 	ldr	r1, [fp, #-36]
 3e8:	e2811001 	add	r1, r1, #1	; 0x1
	char bit_value = 0;
 3ec:	e3a03000 	mov	r3, #0	; 0x0
 3f0:	e54b300d 	strb	r3, [fp, #-13]
	int bit_divesor = 10;
 3f4:	e3a0300a 	mov	r3, #10	; 0xa
 3f8:	e50b300c 	str	r3, [fp, #-12]
	int index = 9;
 3fc:	e3a03009 	mov	r3, #9	; 0x9
 400:	e50b3008 	str	r3, [fp, #-8]
	
	for(index = 9; index >= 0 ;index--)
 404:	e3a03009 	mov	r3, #9	; 0x9
 408:	e50b3008 	str	r3, [fp, #-8]
 40c:	ea000021 	b	498 <print_int_deci_data+0x1b0>
	{
		bit_value = (char)((int_data % bit_divesor) / (bit_divesor / 10));
 410:	e51b3020 	ldr	r3, [fp, #-32]
 414:	e1a00003 	mov	r0, r3
 418:	e51b100c 	ldr	r1, [fp, #-12]
 41c:	ebfffffe 	bl	0 <__aeabi_idivmod>
 420:	e1a03001 	mov	r3, r1
 424:	e1a00003 	mov	r0, r3
 428:	e51b100c 	ldr	r1, [fp, #-12]
 42c:	e59f30c0 	ldr	r3, [pc, #192]	; 4f4 <print_int_deci_data+0x20c>
 430:	e0c32391 	smull	r2, r3, r1, r3
 434:	e1a02143 	asr	r2, r3, #2
 438:	e1a03fc1 	asr	r3, r1, #31
 43c:	e0633002 	rsb	r3, r3, r2
 440:	e1a01003 	mov	r1, r3
 444:	ebfffffe 	bl	0 <__aeabi_idiv>
 448:	e1a03000 	mov	r3, r0
 44c:	e54b300d 	strb	r3, [fp, #-13]
		bit_divesor = bit_divesor * 10;
 450:	e51b300c 	ldr	r3, [fp, #-12]
 454:	e1a02083 	lsl	r2, r3, #1
 458:	e1a03102 	lsl	r3, r2, #2
 45c:	e0823003 	add	r3, r2, r3
 460:	e50b300c 	str	r3, [fp, #-12]
		bit_values[index] = bit_value + '0';
 464:	e51b1008 	ldr	r1, [fp, #-8]
 468:	e55b300d 	ldrb	r3, [fp, #-13]
 46c:	e2833030 	add	r3, r3, #48	; 0x30
 470:	e20300ff 	and	r0, r3, #255	; 0xff
 474:	e3e02012 	mvn	r2, #18	; 0x12
 478:	e24bc004 	sub	ip, fp, #4	; 0x4
 47c:	e08c3001 	add	r3, ip, r1
 480:	e0832002 	add	r2, r3, r2
 484:	e1a03000 	mov	r3, r0
 488:	e5c23000 	strb	r3, [r2]
	char bit_values[10] = {0};
	char bit_value = 0;
	int bit_divesor = 10;
	int index = 9;
	
	for(index = 9; index >= 0 ;index--)
 48c:	e51b3008 	ldr	r3, [fp, #-8]
 490:	e2433001 	sub	r3, r3, #1	; 0x1
 494:	e50b3008 	str	r3, [fp, #-8]
 498:	e51b3008 	ldr	r3, [fp, #-8]
 49c:	e3530000 	cmp	r3, #0	; 0x0
 4a0:	aaffffda 	bge	410 <print_int_deci_data+0x128>
		bit_value = (char)((int_data % bit_divesor) / (bit_divesor / 10));
		bit_divesor = bit_divesor * 10;
		bit_values[index] = bit_value + '0';
	}
	
	for(index = 0; index < 10; index++)
 4a4:	e3a03000 	mov	r3, #0	; 0x0
 4a8:	e50b3008 	str	r3, [fp, #-8]
 4ac:	ea00000a 	b	4dc <print_int_deci_data+0x1f4>
	{
		uart0_send_data(bit_values[index]);
 4b0:	e51b3008 	ldr	r3, [fp, #-8]
 4b4:	e3e02012 	mvn	r2, #18	; 0x12
 4b8:	e24b1004 	sub	r1, fp, #4	; 0x4
 4bc:	e0813003 	add	r3, r1, r3
 4c0:	e0833002 	add	r3, r3, r2
 4c4:	e5d33000 	ldrb	r3, [r3]
 4c8:	e1a00003 	mov	r0, r3
 4cc:	ebfffffe 	bl	1f4 <uart0_send_data>
		bit_value = (char)((int_data % bit_divesor) / (bit_divesor / 10));
		bit_divesor = bit_divesor * 10;
		bit_values[index] = bit_value + '0';
	}
	
	for(index = 0; index < 10; index++)
 4d0:	e51b3008 	ldr	r3, [fp, #-8]
 4d4:	e2833001 	add	r3, r3, #1	; 0x1
 4d8:	e50b3008 	str	r3, [fp, #-8]
 4dc:	e51b3008 	ldr	r3, [fp, #-8]
 4e0:	e3530009 	cmp	r3, #9	; 0x9
 4e4:	dafffff1 	ble	4b0 <print_int_deci_data+0x1c8>
	{
		uart0_send_data(bit_values[index]);
	}
}
 4e8:	e24bd004 	sub	sp, fp, #4	; 0x4
 4ec:	e8bd4800 	pop	{fp, lr}
 4f0:	e12fff1e 	bx	lr
 4f4:	66666667 	.word	0x66666667

000004f8 <printf_string>:

void printf_string(const char* string, ...)
{
 4f8:	e92d000f 	push	{r0, r1, r2, r3}
 4fc:	e92d4800 	push	{fp, lr}
 500:	e28db004 	add	fp, sp, #4	; 0x4
 504:	e24dd010 	sub	sp, sp, #16	; 0x10
	const char* string_temp = string;
 508:	e59b3004 	ldr	r3, [fp, #4]
 50c:	e50b3010 	str	r3, [fp, #-16]
	va_list arg_ptr;
	va_start(arg_ptr, string);
 510:	e28b3008 	add	r3, fp, #8	; 0x8
 514:	e50b3014 	str	r3, [fp, #-20]
	
	va_end(arg_ptr);
	if(string_temp != NULL)
 518:	e51b3010 	ldr	r3, [fp, #-16]
 51c:	e3530000 	cmp	r3, #0	; 0x0
 520:	0a000020 	beq	5a8 <printf_string+0xb0>
 524:	ea00001b 	b	598 <printf_string+0xa0>
	{
		while(*string_temp)
		{
			if(*string_temp == '%')
 528:	e51b3010 	ldr	r3, [fp, #-16]
 52c:	e5d33000 	ldrb	r3, [r3]
 530:	e3530025 	cmp	r3, #37	; 0x25
 534:	1a000010 	bne	57c <printf_string+0x84>
			{
				switch(*(string_temp + 1))
 538:	e51b3010 	ldr	r3, [fp, #-16]
 53c:	e2833001 	add	r3, r3, #1	; 0x1
 540:	e5d33000 	ldrb	r3, [r3]
 544:	e3530064 	cmp	r3, #100	; 0x64
 548:	1a000007 	bne	56c <printf_string+0x74>
				{
					int int_data;
					char char_data;
					case 'd':
						int_data = va_arg(arg_ptr, int);
 54c:	e51b2014 	ldr	r2, [fp, #-20]
 550:	e2823004 	add	r3, r2, #4	; 0x4
 554:	e50b3014 	str	r3, [fp, #-20]
 558:	e1a03002 	mov	r3, r2
 55c:	e5933000 	ldr	r3, [r3]
 560:	e50b300c 	str	r3, [fp, #-12]
						print_int_deci_data(int_data);
 564:	e51b000c 	ldr	r0, [fp, #-12]
 568:	ebfffffe 	bl	2e8 <print_int_deci_data>
						char_data = va_arg(arg_ptr, char);
						uart0_send_data(char_data);
*/					default:
						break;
				}
				string_temp++;
 56c:	e51b3010 	ldr	r3, [fp, #-16]
 570:	e2833001 	add	r3, r3, #1	; 0x1
 574:	e50b3010 	str	r3, [fp, #-16]
 578:	ea000003 	b	58c <printf_string+0x94>
			}else
			{
				uart0_send_data(*string_temp);
 57c:	e51b3010 	ldr	r3, [fp, #-16]
 580:	e5d33000 	ldrb	r3, [r3]
 584:	e1a00003 	mov	r0, r3
 588:	ebfffffe 	bl	1f4 <uart0_send_data>
			}
			
			
			string_temp++;
 58c:	e51b3010 	ldr	r3, [fp, #-16]
 590:	e2833001 	add	r3, r3, #1	; 0x1
 594:	e50b3010 	str	r3, [fp, #-16]
	va_start(arg_ptr, string);
	
	va_end(arg_ptr);
	if(string_temp != NULL)
	{
		while(*string_temp)
 598:	e51b3010 	ldr	r3, [fp, #-16]
 59c:	e5d33000 	ldrb	r3, [r3]
 5a0:	e3530000 	cmp	r3, #0	; 0x0
 5a4:	1affffdf 	bne	528 <printf_string+0x30>
			
			
			string_temp++;
		}
	}
}
 5a8:	e24bd004 	sub	sp, fp, #4	; 0x4
 5ac:	e8bd4800 	pop	{fp, lr}
 5b0:	e28dd010 	add	sp, sp, #16	; 0x10
 5b4:	e12fff1e 	bx	lr

000005b8 <gboot_main>:

int gboot_main()
{
 5b8:	e92d4800 	push	{fp, lr}
 5bc:	e28db004 	add	fp, sp, #4	; 0x4
 5c0:	e24dd010 	sub	sp, sp, #16	; 0x10
	char data = 'b';
 5c4:	e3a03062 	mov	r3, #98	; 0x62
 5c8:	e54b300d 	strb	r3, [fp, #-13]
	int index = 0;
 5cc:	e3a03000 	mov	r3, #0	; 0x0
 5d0:	e50b300c 	str	r3, [fp, #-12]
	int a = 18;
 5d4:	e3a03012 	mov	r3, #18	; 0x12
 5d8:	e50b3008 	str	r3, [fp, #-8]
	
	for(index = 0; index < LED_SUM; index++)
 5dc:	e3a03000 	mov	r3, #0	; 0x0
 5e0:	e50b300c 	str	r3, [fp, #-12]
 5e4:	ea000007 	b	608 <gboot_main+0x50>
	{
		light_led(index);
 5e8:	e51b000c 	ldr	r0, [fp, #-12]
 5ec:	ebfffffe 	bl	b8 <light_led>
		delay(10000);
 5f0:	e3a00c27 	mov	r0, #9984	; 0x2700
 5f4:	e2800010 	add	r0, r0, #16	; 0x10
 5f8:	ebfffffe 	bl	74 <delay>
{
	char data = 'b';
	int index = 0;
	int a = 18;
	
	for(index = 0; index < LED_SUM; index++)
 5fc:	e51b300c 	ldr	r3, [fp, #-12]
 600:	e2833001 	add	r3, r3, #1	; 0x1
 604:	e50b300c 	str	r3, [fp, #-12]
 608:	e51b300c 	ldr	r3, [fp, #-12]
 60c:	e3530003 	cmp	r3, #3	; 0x3
 610:	dafffff4 	ble	5e8 <gboot_main+0x30>
		light_led(index);
		delay(10000);
	}
	
	
	uart0_init();
 614:	ebfffffe 	bl	180 <uart0_init>
	
	while(1)
	{
		print_string("\nHello G-Boot\n");
 618:	e59f0050 	ldr	r0, [pc, #80]	; 670 <gboot_main+0xb8>
 61c:	ebfffffe 	bl	288 <print_string>
		printf_string("a = %d\n", a);
 620:	e59f004c 	ldr	r0, [pc, #76]	; 674 <gboot_main+0xbc>
 624:	e51b1008 	ldr	r1, [fp, #-8]
 628:	ebfffffe 	bl	4f8 <printf_string>
		uart0_recv_data(&data);
 62c:	e24b300d 	sub	r3, fp, #13	; 0xd
 630:	e1a00003 	mov	r0, r3
 634:	ebfffffe 	bl	23c <uart0_recv_data>
		uart0_send_data(data);
 638:	e55b300d 	ldrb	r3, [fp, #-13]
 63c:	e1a00003 	mov	r0, r3
 640:	ebfffffe 	bl	1f4 <uart0_send_data>
		light_led(3);
 644:	e3a00003 	mov	r0, #3	; 0x3
 648:	ebfffffe 	bl	b8 <light_led>
		delay(200000);
 64c:	e3a00bc3 	mov	r0, #199680	; 0x30c00
 650:	e2800d05 	add	r0, r0, #320	; 0x140
 654:	ebfffffe 	bl	74 <delay>
		light_led(0);
 658:	e3a00000 	mov	r0, #0	; 0x0
 65c:	ebfffffe 	bl	b8 <light_led>
		delay(200000);
 660:	e3a00bc3 	mov	r0, #199680	; 0x30c00
 664:	e2800d05 	add	r0, r0, #320	; 0x140
 668:	ebfffffe 	bl	74 <delay>
 66c:	eaffffe9 	b	618 <gboot_main+0x60>
 670:	00000000 	.word	0x00000000
 674:	00000010 	.word	0x00000010