
gboot.elf:     file format elf32-littlearm

Disassembly of section .text:

30050000 <_start>:
.text
.global _start
_start:
	b reset
30050000:	ea000017 	b	30050064 <reset>
	ldr pc, _undifined_instruction
30050004:	e59ff014 	ldr	pc, [pc, #20]	; 30050020 <_undifined_instruction>
	ldr pc, _software_interrupt
30050008:	e59ff014 	ldr	pc, [pc, #20]	; 30050024 <_software_interrupt>
	ldr pc, _prefetch_abort
3005000c:	e59ff014 	ldr	pc, [pc, #20]	; 30050028 <_prefetch_abort>
	ldr pc, _data_abort
30050010:	e59ff014 	ldr	pc, [pc, #20]	; 3005002c <_data_abort>
	ldr pc, _not_used
30050014:	e59ff014 	ldr	pc, [pc, #20]	; 30050030 <_not_used>
	ldr pc, _irq
30050018:	e59ff014 	ldr	pc, [pc, #20]	; 30050034 <_irq>
	ldr pc, _fiq
3005001c:	e59ff014 	ldr	pc, [pc, #20]	; 30050038 <_fiq>

30050020 <_undifined_instruction>:
30050020:	3005003c 	.word	0x3005003c

30050024 <_software_interrupt>:
30050024:	30050040 	.word	0x30050040

30050028 <_prefetch_abort>:
30050028:	30050044 	.word	0x30050044

3005002c <_data_abort>:
3005002c:	30050048 	.word	0x30050048

30050030 <_not_used>:
30050030:	3005004c 	.word	0x3005004c

30050034 <_irq>:
30050034:	30050050 	.word	0x30050050

30050038 <_fiq>:
30050038:	30050064 	.word	0x30050064

3005003c <undifined_instruction>:
_not_used: .word not_used
_irq: .word irq
_fiq: .word reset

undifined_instruction:
	nop
3005003c:	e1a00000 	nop			(mov r0,r0)

30050040 <software_interrupt>:

software_interrupt:
	nop
30050040:	e1a00000 	nop			(mov r0,r0)

30050044 <prefetch_abort>:
	
prefetch_abort:
	nop
30050044:	e1a00000 	nop			(mov r0,r0)

30050048 <data_abort>:
	
data_abort:
	nop
30050048:	e1a00000 	nop			(mov r0,r0)

3005004c <not_used>:

not_used:
	nop
3005004c:	e1a00000 	nop			(mov r0,r0)

30050050 <irq>:

irq:
	sub lr, lr, #4  
30050050:	e24ee004 	sub	lr, lr, #4	; 0x4
	stmfd sp!, {r0-r12, lr}     /* Save envrionment */  
30050054:	e92d5fff 	push	{r0, r1, r2, r3, r4, r5, r6, r7, r8, r9, sl, fp, ip, lr}
	bl HandleIrq               
30050058:	eb000db9 	bl	30053744 <HandleIrq>
	ldmfd sp!, {r0-r12, pc}^    /* Recover envrionment, ^ take spsr to cpsr */  
3005005c:	e8fd9fff 	ldm	sp!, {r0, r1, r2, r3, r4, r5, r6, r7, r8, r9, sl, fp, ip, pc}^

30050060 <fiq>:
	
fiq:	
	nop
30050060:	e1a00000 	nop			(mov r0,r0)

30050064 <reset>:
.global reset
reset:
	bl set_svc
30050064:	eb00000a 	bl	30050094 <set_svc>
	bl disable_watchdog
30050068:	eb00000e 	bl	300500a8 <disable_watchdog>
	bl disable_interrupt
3005006c:	eb000011 	bl	300500b8 <disable_interrupt>
	bl disable_mmu
30050070:	eb000014 	bl	300500c8 <disable_mmu>
	bl init_clock
30050074:	eb000018 	bl	300500dc <init_clock>
	bl init_sdram
30050078:	eb000021 	bl	30050104 <init_sdram>
	bl init_stack
3005007c:	eb000031 	bl	30050148 <init_stack>
	bl nandflash_init
30050080:	eb0002da 	bl	30050bf0 <nandflash_init>
	bl copy_to_ram	
30050084:	eb000027 	bl	30050128 <copy_to_ram>
	bl clean_bss
30050088:	eb000033 	bl	3005015c <clean_bss>
	bl light_led
3005008c:	eb000048 	bl	300501b4 <light_led>
	ldr pc, =gboot_main
30050090:	e59ff138 	ldr	pc, [pc, #312]	; 300501d0 <light_led+0x1c>

30050094 <set_svc>:

set_svc:
	mrs r0, cpsr
30050094:	e10f0000 	mrs	r0, CPSR
	bic r0, r0,#0x1f
30050098:	e3c0001f 	bic	r0, r0, #31	; 0x1f
	orr r0, r0,#0xd3
3005009c:	e38000d3 	orr	r0, r0, #211	; 0xd3
	msr cpsr, r0
300500a0:	e129f000 	msr	CPSR_fc, r0
	mov pc, lr
300500a4:	e1a0f00e 	mov	pc, lr

300500a8 <disable_watchdog>:

#define pWTCON 0x53000000
disable_watchdog:
	ldr r0, =pWTCON
300500a8:	e3a00453 	mov	r0, #1392508928	; 0x53000000
	mov r1, #0x0
300500ac:	e3a01000 	mov	r1, #0	; 0x0
	str r1, [r0]
300500b0:	e5801000 	str	r1, [r0]
	mov pc, lr
300500b4:	e1a0f00e 	mov	pc, lr

300500b8 <disable_interrupt>:

disable_interrupt:
	mvn r1, #0x0
300500b8:	e3e01000 	mvn	r1, #0	; 0x0
	ldr r0, =0x4a000008
300500bc:	e59f0110 	ldr	r0, [pc, #272]	; 300501d4 <light_led+0x20>
	str r1, [r0]
300500c0:	e5801000 	str	r1, [r0]
	mov pc, lr
300500c4:	e1a0f00e 	mov	pc, lr

300500c8 <disable_mmu>:
	
disable_mmu:
	mcr p15,0,r0,c7,c7,0
300500c8:	ee070f17 	mcr	15, 0, r0, cr7, cr7, {0}
	mrc p15,0,r0,c1,c0,0
300500cc:	ee110f10 	mrc	15, 0, r0, cr1, cr0, {0}
	bic r0, r0, #0x00000007
300500d0:	e3c00007 	bic	r0, r0, #7	; 0x7
	mcr p15,0,r0,c1,c0,0
300500d4:	ee010f10 	mcr	15, 0, r0, cr1, cr0, {0}
	mov pc, lr
300500d8:	e1a0f00e 	mov	pc, lr

300500dc <init_clock>:
#define CLKDIVN 0x4c000014
#define MPLLCON 0x4c000004
#define MPLL_405MHZ ((127<<12)|(2<<4)|(1<<0))

init_clock:
	ldr r0, =CLKDIVN
300500dc:	e59f00f4 	ldr	r0, [pc, #244]	; 300501d8 <light_led+0x24>
	mov r1, #0x5		//FCLK : HCLK : PCLK = 1 : 4 : 8(Divide Ratio)
300500e0:	e3a01005 	mov	r1, #5	; 0x5
	str r1, [r0]
300500e4:	e5801000 	str	r1, [r0]
	
	mcr p15,0,r0,c1,c0,0
300500e8:	ee010f10 	mcr	15, 0, r0, cr1, cr0, {0}
	orr r0,r0,#0xc0000000
300500ec:	e3800103 	orr	r0, r0, #-1073741824	; 0xc0000000
	mcr p15,0,r0,c1,c0,0
300500f0:	ee010f10 	mcr	15, 0, r0, cr1, cr0, {0}
	
	ldr r0, =MPLLCON
300500f4:	e59f00e0 	ldr	r0, [pc, #224]	; 300501dc <light_led+0x28>
	ldr r1, =MPLL_405MHZ
300500f8:	e59f10e0 	ldr	r1, [pc, #224]	; 300501e0 <light_led+0x2c>
	str r1, [r0]
300500fc:	e5801000 	str	r1, [r0]
	mov pc, lr
30050100:	e1a0f00e 	mov	pc, lr

30050104 <init_sdram>:

#define mem_contrl 0x48000000
init_sdram:
	ldr r0, =mem_contrl 
30050104:	e3a00312 	mov	r0, #1207959552	; 0x48000000
	add r3, r0, #4*13
30050108:	e2803034 	add	r3, r0, #52	; 0x34
	adrl r1, mem_data
3005010c:	e28f106c 	add	r1, pc, #108	; 0x6c
30050110:	e1a00000 	nop			(mov r0,r0)

0:
	ldr r2, [r1], #4
30050114:	e4912004 	ldr	r2, [r1], #4
	str r2, [r0], #4
30050118:	e4802004 	str	r2, [r0], #4
	cmp r0, r3
3005011c:	e1500003 	cmp	r0, r3
	bne 0b
30050120:	1afffffb 	bne	30050114 <init_sdram+0x10>
	mov pc, lr
30050124:	e1a0f00e 	mov	pc, lr

30050128 <copy_to_ram>:
	
#define copy_length 0x150000	
copy_to_ram:
	mov r0,#0x00
30050128:	e3a00000 	mov	r0, #0	; 0x0
	ldr r1,=_start
3005012c:	e59f10b0 	ldr	r1, [pc, #176]	; 300501e4 <light_led+0x30>
	ldr r2,=bss_end
30050130:	e59f20b0 	ldr	r2, [pc, #176]	; 300501e8 <light_led+0x34>
	sub r2,r2,r1
30050134:	e0422001 	sub	r2, r2, r1
	mov ip,lr
30050138:	e1a0c00e 	mov	ip, lr
	bl nand_to_ram
3005013c:	eb0002ee 	bl	30050cfc <nand_to_ram>
	mov lr,ip
30050140:	e1a0e00c 	mov	lr, ip
	mov pc,lr
30050144:	e1a0f00e 	mov	pc, lr

30050148 <init_stack>:
	
init_stack:
	msr cpsr_c, #0xd2	//Switch irq mode and set sps
30050148:	e321f0d2 	msr	CPSR_c, #210	; 0xd2
	ldr sp, =0x33000000
3005014c:	e3a0d433 	mov	sp, #855638016	; 0x33000000
	msr cpsr_c, #0xd3	//Switch back to SVC
30050150:	e321f0d3 	msr	CPSR_c, #211	; 0xd3
	ldr sp, =0x34000000
30050154:	e3a0d30d 	mov	sp, #872415232	; 0x34000000
	mov pc ,lr
30050158:	e1a0f00e 	mov	pc, lr

3005015c <clean_bss>:

clean_bss:
	ldr r0, =bss_start
3005015c:	e59f0088 	ldr	r0, [pc, #136]	; 300501ec <light_led+0x38>
	ldr r1, =bss_end
30050160:	e59f1080 	ldr	r1, [pc, #128]	; 300501e8 <light_led+0x34>
	cmp r0, r1
30050164:	e1500001 	cmp	r0, r1
	moveq pc, lr
30050168:	01a0f00e 	moveq	pc, lr

3005016c <clean_loop>:

clean_loop:
	mov r2, #0
3005016c:	e3a02000 	mov	r2, #0	; 0x0
	str r2, [r0], #4
30050170:	e4802004 	str	r2, [r0], #4
	cmp r0, r1
30050174:	e1500001 	cmp	r0, r1
	bne clean_loop
30050178:	1afffffb 	bne	3005016c <clean_loop>
	mov pc, lr
3005017c:	e1a0f00e 	mov	pc, lr

30050180 <mem_data>:
30050180:	22000000 	.word	0x22000000
30050184:	00000700 	.word	0x00000700
30050188:	00000700 	.word	0x00000700
3005018c:	00000700 	.word	0x00000700
30050190:	00000700 	.word	0x00000700
30050194:	00000700 	.word	0x00000700
30050198:	00000700 	.word	0x00000700
3005019c:	00018001 	.word	0x00018001
300501a0:	00018001 	.word	0x00018001
300501a4:	008c04f5 	.word	0x008c04f5
300501a8:	000000b1 	.word	0x000000b1
300501ac:	00000030 	.word	0x00000030
300501b0:	00000030 	.word	0x00000030

300501b4 <light_led>:
	.long 0x00000030

#define GPBCON 0x56000010
#define GPBDAT 0x56000014
light_led:
	ldr r0, =GPBCON
300501b4:	e59f0034 	ldr	r0, [pc, #52]	; 300501f0 <light_led+0x3c>
	mov r1, #0x400
300501b8:	e3a01b01 	mov	r1, #1024	; 0x400
	str r1, [r0]
300501bc:	e5801000 	str	r1, [r0]
	
	ldr r0, =GPBDAT
300501c0:	e59f002c 	ldr	r0, [pc, #44]	; 300501f4 <light_led+0x40>
	mov r1, #0x0
300501c4:	e3a01000 	mov	r1, #0	; 0x0
	str r1, [r0]
300501c8:	e5801000 	str	r1, [r0]
	mov pc, lr
300501cc:	e1a0f00e 	mov	pc, lr
300501d0:	30050214 	.word	0x30050214
300501d4:	4a000008 	.word	0x4a000008
300501d8:	4c000014 	.word	0x4c000014
300501dc:	4c000004 	.word	0x4c000004
300501e0:	0007f021 	.word	0x0007f021
300501e4:	30050000 	.word	0x30050000
300501e8:	3008a270 	.word	0x3008a270
300501ec:	3005eda8 	.word	0x3005eda8
300501f0:	56000010 	.word	0x56000010
300501f4:	56000014 	.word	0x56000014

300501f8 <raise>:
extern char bss_start[];
extern char bss_end[];
//extern char* bss_start;

int raise(int a)
{
300501f8:	e52db004 	push	{fp}		; (str fp, [sp, #-4]!)
300501fc:	e28db000 	add	fp, sp, #0	; 0x0
30050200:	e24dd00c 	sub	sp, sp, #12	; 0xc
30050204:	e50b0008 	str	r0, [fp, #-8]

}
30050208:	e28bd000 	add	sp, fp, #0	; 0x0
3005020c:	e8bd0800 	pop	{fp}
30050210:	e12fff1e 	bx	lr

30050214 <gboot_main>:

char gArgv[MAX_COMMAND_NUMBER][MAX_COMMAND_LENGTH] = {'\0'};
int gArgc = 0;

int gboot_main()
{
30050214:	e92d4800 	push	{fp, lr}
30050218:	e28db004 	add	fp, sp, #4	; 0x4
3005021c:	e24dd078 	sub	sp, sp, #120	; 0x78
	char receive_string[MAX_COMMAND_LENGTH * MAX_COMMAND_NUMBER] = {'\0'};
30050220:	e24b3078 	sub	r3, fp, #120	; 0x78
30050224:	e3a02064 	mov	r2, #100	; 0x64
30050228:	e1a00003 	mov	r0, r3
3005022c:	e3a01000 	mov	r1, #0	; 0x0
30050230:	eb000445 	bl	3005134c <memset>
	int a = 10;
30050234:	e3a0300a 	mov	r3, #10	; 0xa
30050238:	e50b3014 	str	r3, [fp, #-20]
	int index = 0;
3005023c:	e3a03000 	mov	r3, #0	; 0x0
30050240:	e50b3010 	str	r3, [fp, #-16]
	char get_data = 0;
30050244:	e3a03000 	mov	r3, #0	; 0x0
30050248:	e54b3009 	strb	r3, [fp, #-9]
	
	Uart0Init();
3005024c:	eb000ec8 	bl	30053d74 <Uart0Init>
	
	EnableMasterIrq();
30050250:	eb000cd5 	bl	300535ac <EnableMasterIrq>
	
//	touch_init();
	
//	dma_init();
	
	print_string("\n---------------- Mini2440 Diags ----------------\n");
30050254:	e59f0090 	ldr	r0, [pc, #144]	; 300502ec <gboot_main+0xd8>
30050258:	eb000f47 	bl	30053f7c <print_string>
	printf_string("bss_start = 0x%x\n", bss_start);
3005025c:	e59f008c 	ldr	r0, [pc, #140]	; 300502f0 <gboot_main+0xdc>
30050260:	e59f108c 	ldr	r1, [pc, #140]	; 300502f4 <gboot_main+0xe0>
30050264:	eb001296 	bl	30054cc4 <printf_string>
	printf_string("bss_end = 0x%x\n", bss_end);
30050268:	e59f0088 	ldr	r0, [pc, #136]	; 300502f8 <gboot_main+0xe4>
3005026c:	e59f1088 	ldr	r1, [pc, #136]	; 300502fc <gboot_main+0xe8>
30050270:	eb001293 	bl	30054cc4 <printf_string>
	print_string(":-) ");
30050274:	e59f0084 	ldr	r0, [pc, #132]	; 30050300 <gboot_main+0xec>
30050278:	eb000f3f 	bl	30053f7c <print_string>

	while(1)
	{
		int index = 0;
3005027c:	e3a03000 	mov	r3, #0	; 0x0
30050280:	e50b3008 	str	r3, [fp, #-8]
	
		memset(receive_string, 0, MAX_COMMAND_LENGTH * MAX_COMMAND_NUMBER); 	// Clear command line buffer
30050284:	e24b3078 	sub	r3, fp, #120	; 0x78
30050288:	e1a00003 	mov	r0, r3
3005028c:	e3a01000 	mov	r1, #0	; 0x0
30050290:	e3a02064 	mov	r2, #100	; 0x64
30050294:	eb00042c 	bl	3005134c <memset>
		uart0_recv_string(receive_string);										// Receive command string from terminal
30050298:	e24b3078 	sub	r3, fp, #120	; 0x78
3005029c:	e1a00003 	mov	r0, r3
300502a0:	eb000f4d 	bl	30053fdc <uart0_recv_string>

		print_string(receive_string);
300502a4:	e24b3078 	sub	r3, fp, #120	; 0x78
300502a8:	e1a00003 	mov	r0, r3
300502ac:	eb000f32 	bl	30053f7c <print_string>
		GenerateArgv(&gArgc, &gArgv, receive_string);
300502b0:	e24b3078 	sub	r3, fp, #120	; 0x78
300502b4:	e59f0048 	ldr	r0, [pc, #72]	; 30050304 <gboot_main+0xf0>
300502b8:	e59f1048 	ldr	r1, [pc, #72]	; 30050308 <gboot_main+0xf4>
300502bc:	e1a02003 	mov	r2, r3
300502c0:	eb0000f5 	bl	3005069c <GenerateArgv>
		for(index = 0; index < gArgc; index++)
		{
			printf_string("gArgv[%d] = %s\n", index, gArgv[index]);
		}
#endif
		handle_event_commond(receive_string, gArgc, gArgv);
300502c4:	e59f3038 	ldr	r3, [pc, #56]	; 30050304 <gboot_main+0xf0>
300502c8:	e5932000 	ldr	r2, [r3]
300502cc:	e24b3078 	sub	r3, fp, #120	; 0x78
300502d0:	e1a00003 	mov	r0, r3
300502d4:	e1a01002 	mov	r1, r2
300502d8:	e59f2028 	ldr	r2, [pc, #40]	; 30050308 <gboot_main+0xf4>
300502dc:	eb0000ba 	bl	300505cc <handle_event_commond>
		
		print_string(":-) ");
300502e0:	e59f0018 	ldr	r0, [pc, #24]	; 30050300 <gboot_main+0xec>
300502e4:	eb000f24 	bl	30053f7c <print_string>
300502e8:	eaffffe3 	b	3005027c <gboot_main+0x68>
300502ec:	3005babc 	.word	0x3005babc
300502f0:	3005baf0 	.word	0x3005baf0
300502f4:	3005eda8 	.word	0x3005eda8
300502f8:	3005bb04 	.word	0x3005bb04
300502fc:	3008a270 	.word	0x3008a270
30050300:	3005bb14 	.word	0x3005bb14
30050304:	3005ee0c 	.word	0x3005ee0c
30050308:	3005eda8 	.word	0x3005eda8

3005030c <sys_reset>:
MINI2440_STATUS print_diags_sn(int argc, char(*argv)[MAX_COMMAND_LENGTH]);
MINI2440_STATUS run_test(int argc, char(*argv)[MAX_COMMAND_LENGTH]);
MINI2440_STATUS print_help_message();

MINI2440_STATUS sys_reset(int argc, char(*argv)[MAX_COMMAND_LENGTH])
{
3005030c:	e92d4800 	push	{fp, lr}
30050310:	e28db004 	add	fp, sp, #4	; 0x4
30050314:	e24dd010 	sub	sp, sp, #16	; 0x10
30050318:	e50b0010 	str	r0, [fp, #-16]
3005031c:	e50b1014 	str	r1, [fp, #-20]
	MINI2440_STATUS status = MINI2440_SUCCESS;
30050320:	e3a03000 	mov	r3, #0	; 0x0
30050324:	e50b3008 	str	r3, [fp, #-8]
	
	reset();
30050328:	ebffff4d 	bl	30050064 <reset>
	
	return status;
3005032c:	e51b3008 	ldr	r3, [fp, #-8]
}
30050330:	e1a00003 	mov	r0, r3
30050334:	e24bd004 	sub	sp, fp, #4	; 0x4
30050338:	e8bd4800 	pop	{fp, lr}
3005033c:	e12fff1e 	bx	lr

30050340 <print_diags_ver>:
 * Outputs : 			Status
 * Description:			Print diags ver
 * Author:				Kevin
 *******************************************************************/
MINI2440_STATUS print_diags_ver(int argc, char(*argv)[MAX_COMMAND_LENGTH])
{
30050340:	e92d4800 	push	{fp, lr}
30050344:	e28db004 	add	fp, sp, #4	; 0x4
30050348:	e24dd010 	sub	sp, sp, #16	; 0x10
3005034c:	e50b0010 	str	r0, [fp, #-16]
30050350:	e50b1014 	str	r1, [fp, #-20]
	MINI2440_STATUS status = MINI2440_SUCCESS;
30050354:	e3a03000 	mov	r3, #0	; 0x0
30050358:	e50b3008 	str	r3, [fp, #-8]
	
	print_string("Ver: 20170322\n");
3005035c:	e59f0014 	ldr	r0, [pc, #20]	; 30050378 <print_diags_ver+0x38>
30050360:	eb000f05 	bl	30053f7c <print_string>
	
	return status;
30050364:	e51b3008 	ldr	r3, [fp, #-8]
}
30050368:	e1a00003 	mov	r0, r3
3005036c:	e24bd004 	sub	sp, fp, #4	; 0x4
30050370:	e8bd4800 	pop	{fp, lr}
30050374:	e12fff1e 	bx	lr
30050378:	3005bd80 	.word	0x3005bd80

3005037c <print_diags_sn>:
 * Outputs : 			Status
 * Description:			Print diags sn
 * Author:				Kevin
 *******************************************************************/
MINI2440_STATUS print_diags_sn(int argc, char(*argv)[MAX_COMMAND_LENGTH])
{
3005037c:	e92d4800 	push	{fp, lr}
30050380:	e28db004 	add	fp, sp, #4	; 0x4
30050384:	e24dd010 	sub	sp, sp, #16	; 0x10
30050388:	e50b0010 	str	r0, [fp, #-16]
3005038c:	e50b1014 	str	r1, [fp, #-20]
	MINI2440_STATUS status = MINI2440_SUCCESS;
30050390:	e3a03000 	mov	r3, #0	; 0x0
30050394:	e50b3008 	str	r3, [fp, #-8]
	
	print_string("SN: C39HGFG00FF\n");
30050398:	e59f0014 	ldr	r0, [pc, #20]	; 300503b4 <print_diags_sn+0x38>
3005039c:	eb000ef6 	bl	30053f7c <print_string>
	
	return status;
300503a0:	e51b3008 	ldr	r3, [fp, #-8]
}
300503a4:	e1a00003 	mov	r0, r3
300503a8:	e24bd004 	sub	sp, fp, #4	; 0x4
300503ac:	e8bd4800 	pop	{fp, lr}
300503b0:	e12fff1e 	bx	lr
300503b4:	3005bd90 	.word	0x3005bd90

300503b8 <run_test>:
 * Outputs : 			Status
 * Description:			Run test
 * Author:				Kevin
 *******************************************************************/
MINI2440_STATUS run_test(int argc, char(*argv)[MAX_COMMAND_LENGTH])
{
300503b8:	e92d4800 	push	{fp, lr}
300503bc:	e28db004 	add	fp, sp, #4	; 0x4
300503c0:	e24dd010 	sub	sp, sp, #16	; 0x10
300503c4:	e50b0010 	str	r0, [fp, #-16]
300503c8:	e50b1014 	str	r1, [fp, #-20]
	MINI2440_STATUS status = MINI2440_SUCCESS;
300503cc:	e3a03000 	mov	r3, #0	; 0x0
300503d0:	e50b300c 	str	r3, [fp, #-12]
	
	char* ptr =(char*)malloc(10);
300503d4:	e3a0000a 	mov	r0, #10	; 0xa
300503d8:	eb00059b 	bl	30051a4c <malloc>
300503dc:	e1a03000 	mov	r3, r0
300503e0:	e50b3008 	str	r3, [fp, #-8]

	TestLinkList();
300503e4:	eb0028e4 	bl	3005a77c <TestLinkList>
	
	free(ptr);
300503e8:	e51b0008 	ldr	r0, [fp, #-8]
300503ec:	eb0005e6 	bl	30051b8c <free>
	
	return status;
300503f0:	e51b300c 	ldr	r3, [fp, #-12]
}
300503f4:	e1a00003 	mov	r0, r3
300503f8:	e24bd004 	sub	sp, fp, #4	; 0x4
300503fc:	e8bd4800 	pop	{fp, lr}
30050400:	e12fff1e 	bx	lr

30050404 <print_help_message>:
 * Outputs : 			Status
 * Description:			Print help message
 * Author:				Kevin
 *******************************************************************/
MINI2440_STATUS print_help_message(int argc, char(*argv)[MAX_COMMAND_LENGTH])
{
30050404:	e92d4800 	push	{fp, lr}
30050408:	e28db004 	add	fp, sp, #4	; 0x4
3005040c:	e24dd018 	sub	sp, sp, #24	; 0x18
30050410:	e50b0010 	str	r0, [fp, #-16]
30050414:	e50b1014 	str	r1, [fp, #-20]
	MINI2440_STATUS status = MINI2440_SUCCESS;
30050418:	e3a03000 	mov	r3, #0	; 0x0
3005041c:	e50b300c 	str	r3, [fp, #-12]
	int index = 0;
30050420:	e3a03000 	mov	r3, #0	; 0x0
30050424:	e50b3008 	str	r3, [fp, #-8]

	if(argc > 2)
30050428:	e51b3010 	ldr	r3, [fp, #-16]
3005042c:	e3530002 	cmp	r3, #2	; 0x2
30050430:	da000002 	ble	30050440 <print_help_message+0x3c>
	{
		return MINI2440_INVALID_PARAMETER;
30050434:	e3a03001 	mov	r3, #1	; 0x1
30050438:	e50b3018 	str	r3, [fp, #-24]
3005043c:	ea000059 	b	300505a8 <print_help_message+0x1a4>
	}
	else if(argc == 2)
30050440:	e51b3010 	ldr	r3, [fp, #-16]
30050444:	e3530002 	cmp	r3, #2	; 0x2
30050448:	1a000033 	bne	3005051c <print_help_message+0x118>
	{
		for(index = 0; index < sizeof(gdiags_commonds)/sizeof(gdiags_commonds[0]); index++)
3005044c:	e3a03000 	mov	r3, #0	; 0x0
30050450:	e50b3008 	str	r3, [fp, #-8]
30050454:	ea00002a 	b	30050504 <print_help_message+0x100>
		{
			if(strcmp(gdiags_commonds[index].cmmond_string, argv[1]) == 0)
30050458:	e51b3008 	ldr	r3, [fp, #-8]
3005045c:	e59f1158 	ldr	r1, [pc, #344]	; 300505bc <print_help_message+0x1b8>
30050460:	e1a02103 	lsl	r2, r3, #2
30050464:	e1a03102 	lsl	r3, r2, #2
30050468:	e0623003 	rsb	r3, r2, r3
3005046c:	e0813003 	add	r3, r1, r3
30050470:	e5932000 	ldr	r2, [r3]
30050474:	e51b3014 	ldr	r3, [fp, #-20]
30050478:	e283300a 	add	r3, r3, #10	; 0xa
3005047c:	e1a00002 	mov	r0, r2
30050480:	e1a01003 	mov	r1, r3
30050484:	eb0002f3 	bl	30051058 <strcmp>
30050488:	e1a03000 	mov	r3, r0
3005048c:	e3530000 	cmp	r3, #0	; 0x0
30050490:	1a000018 	bne	300504f8 <print_help_message+0xf4>
			{
				print_string(gdiags_commonds[index].cmmond_string);
30050494:	e51b3008 	ldr	r3, [fp, #-8]
30050498:	e59f111c 	ldr	r1, [pc, #284]	; 300505bc <print_help_message+0x1b8>
3005049c:	e1a02103 	lsl	r2, r3, #2
300504a0:	e1a03102 	lsl	r3, r2, #2
300504a4:	e0623003 	rsb	r3, r2, r3
300504a8:	e0813003 	add	r3, r1, r3
300504ac:	e5933000 	ldr	r3, [r3]
300504b0:	e1a00003 	mov	r0, r3
300504b4:	eb000eb0 	bl	30053f7c <print_string>
				print_string(":		");
300504b8:	e59f0100 	ldr	r0, [pc, #256]	; 300505c0 <print_help_message+0x1bc>
300504bc:	eb000eae 	bl	30053f7c <print_string>
				print_string(gdiags_commonds[index].message);
300504c0:	e51b3008 	ldr	r3, [fp, #-8]
300504c4:	e59f10f0 	ldr	r1, [pc, #240]	; 300505bc <print_help_message+0x1b8>
300504c8:	e3a00004 	mov	r0, #4	; 0x4
300504cc:	e1a02103 	lsl	r2, r3, #2
300504d0:	e1a03102 	lsl	r3, r2, #2
300504d4:	e0623003 	rsb	r3, r2, r3
300504d8:	e0813003 	add	r3, r1, r3
300504dc:	e0833000 	add	r3, r3, r0
300504e0:	e5933000 	ldr	r3, [r3]
300504e4:	e1a00003 	mov	r0, r3
300504e8:	eb000ea3 	bl	30053f7c <print_string>
				print_string("\n");
300504ec:	e59f00d0 	ldr	r0, [pc, #208]	; 300505c4 <print_help_message+0x1c0>
300504f0:	eb000ea1 	bl	30053f7c <print_string>
300504f4:	ea000005 	b	30050510 <print_help_message+0x10c>
	{
		return MINI2440_INVALID_PARAMETER;
	}
	else if(argc == 2)
	{
		for(index = 0; index < sizeof(gdiags_commonds)/sizeof(gdiags_commonds[0]); index++)
300504f8:	e51b3008 	ldr	r3, [fp, #-8]
300504fc:	e2833001 	add	r3, r3, #1	; 0x1
30050500:	e50b3008 	str	r3, [fp, #-8]
30050504:	e51b3008 	ldr	r3, [fp, #-8]
30050508:	e353000f 	cmp	r3, #15	; 0xf
3005050c:	9affffd1 	bls	30050458 <print_help_message+0x54>
				print_string(gdiags_commonds[index].message);
				print_string("\n");
				break;
			}
		}
		return MINI2440_INVALID_PARAMETER;
30050510:	e3a03001 	mov	r3, #1	; 0x1
30050514:	e50b3018 	str	r3, [fp, #-24]
30050518:	ea000022 	b	300505a8 <print_help_message+0x1a4>
	}
	else
	{
		for(index = 0; index < sizeof(gdiags_commonds)/sizeof(gdiags_commonds[0]); index++)
3005051c:	e3a03000 	mov	r3, #0	; 0x0
30050520:	e50b3008 	str	r3, [fp, #-8]
30050524:	ea00001a 	b	30050594 <print_help_message+0x190>
		{
			print_string(gdiags_commonds[index].cmmond_string);
30050528:	e51b3008 	ldr	r3, [fp, #-8]
3005052c:	e59f1088 	ldr	r1, [pc, #136]	; 300505bc <print_help_message+0x1b8>
30050530:	e1a02103 	lsl	r2, r3, #2
30050534:	e1a03102 	lsl	r3, r2, #2
30050538:	e0623003 	rsb	r3, r2, r3
3005053c:	e0813003 	add	r3, r1, r3
30050540:	e5933000 	ldr	r3, [r3]
30050544:	e1a00003 	mov	r0, r3
30050548:	eb000e8b 	bl	30053f7c <print_string>
			print_string(":	");
3005054c:	e59f0074 	ldr	r0, [pc, #116]	; 300505c8 <print_help_message+0x1c4>
30050550:	eb000e89 	bl	30053f7c <print_string>
			print_string(gdiags_commonds[index].message);
30050554:	e51b3008 	ldr	r3, [fp, #-8]
30050558:	e59f105c 	ldr	r1, [pc, #92]	; 300505bc <print_help_message+0x1b8>
3005055c:	e3a00004 	mov	r0, #4	; 0x4
30050560:	e1a02103 	lsl	r2, r3, #2
30050564:	e1a03102 	lsl	r3, r2, #2
30050568:	e0623003 	rsb	r3, r2, r3
3005056c:	e0813003 	add	r3, r1, r3
30050570:	e0833000 	add	r3, r3, r0
30050574:	e5933000 	ldr	r3, [r3]
30050578:	e1a00003 	mov	r0, r3
3005057c:	eb000e7e 	bl	30053f7c <print_string>
			print_string("\n");
30050580:	e59f003c 	ldr	r0, [pc, #60]	; 300505c4 <print_help_message+0x1c0>
30050584:	eb000e7c 	bl	30053f7c <print_string>
		}
		return MINI2440_INVALID_PARAMETER;
	}
	else
	{
		for(index = 0; index < sizeof(gdiags_commonds)/sizeof(gdiags_commonds[0]); index++)
30050588:	e51b3008 	ldr	r3, [fp, #-8]
3005058c:	e2833001 	add	r3, r3, #1	; 0x1
30050590:	e50b3008 	str	r3, [fp, #-8]
30050594:	e51b3008 	ldr	r3, [fp, #-8]
30050598:	e353000f 	cmp	r3, #15	; 0xf
3005059c:	9affffe1 	bls	30050528 <print_help_message+0x124>
			print_string(gdiags_commonds[index].message);
			print_string("\n");
		}
	}
	
	return status;
300505a0:	e51b300c 	ldr	r3, [fp, #-12]
300505a4:	e50b3018 	str	r3, [fp, #-24]
300505a8:	e51b3018 	ldr	r3, [fp, #-24]
}
300505ac:	e1a00003 	mov	r0, r3
300505b0:	e24bd004 	sub	sp, fp, #4	; 0x4
300505b4:	e8bd4800 	pop	{fp, lr}
300505b8:	e12fff1e 	bx	lr
300505bc:	3005cf48 	.word	0x3005cf48
300505c0:	3005bda4 	.word	0x3005bda4
300505c4:	3005bda8 	.word	0x3005bda8
300505c8:	3005bdac 	.word	0x3005bdac

300505cc <handle_event_commond>:
 * Outputs : 			Status
 * Description:			As the command receive from terminal, call corresponding function
 * Author:				Kevin
 *******************************************************************/
void handle_event_commond(char* commond, int argc, char(*argv)[MAX_COMMAND_LENGTH])
{
300505cc:	e92d4800 	push	{fp, lr}
300505d0:	e28db004 	add	fp, sp, #4	; 0x4
300505d4:	e24dd018 	sub	sp, sp, #24	; 0x18
300505d8:	e50b0010 	str	r0, [fp, #-16]
300505dc:	e50b1014 	str	r1, [fp, #-20]
300505e0:	e50b2018 	str	r2, [fp, #-24]
	unsigned index = 0;
300505e4:	e3a03000 	mov	r3, #0	; 0x0
300505e8:	e50b300c 	str	r3, [fp, #-12]
	int compare_result = 0;
300505ec:	e3a03000 	mov	r3, #0	; 0x0
300505f0:	e50b3008 	str	r3, [fp, #-8]
	
	for(index = 0; index < sizeof(gdiags_commonds)/sizeof(gdiags_commonds[0]); index++)
300505f4:	e3a03000 	mov	r3, #0	; 0x0
300505f8:	e50b300c 	str	r3, [fp, #-12]
300505fc:	ea00001f 	b	30050680 <handle_event_commond+0xb4>
	{
		compare_result = strcmp(commond, gdiags_commonds[index].cmmond_string);
30050600:	e51b300c 	ldr	r3, [fp, #-12]
30050604:	e59f108c 	ldr	r1, [pc, #140]	; 30050698 <handle_event_commond+0xcc>
30050608:	e1a02103 	lsl	r2, r3, #2
3005060c:	e1a03102 	lsl	r3, r2, #2
30050610:	e0623003 	rsb	r3, r2, r3
30050614:	e0813003 	add	r3, r1, r3
30050618:	e5933000 	ldr	r3, [r3]
3005061c:	e51b0010 	ldr	r0, [fp, #-16]
30050620:	e1a01003 	mov	r1, r3
30050624:	eb00028b 	bl	30051058 <strcmp>
30050628:	e1a03000 	mov	r3, r0
3005062c:	e50b3008 	str	r3, [fp, #-8]
		if(compare_result == 0)
30050630:	e51b3008 	ldr	r3, [fp, #-8]
30050634:	e3530000 	cmp	r3, #0	; 0x0
30050638:	1a00000d 	bne	30050674 <handle_event_commond+0xa8>
		{
			gdiags_commonds[index].function(argc, argv);
3005063c:	e51b300c 	ldr	r3, [fp, #-12]
30050640:	e59f1050 	ldr	r1, [pc, #80]	; 30050698 <handle_event_commond+0xcc>
30050644:	e3a00008 	mov	r0, #8	; 0x8
30050648:	e1a02103 	lsl	r2, r3, #2
3005064c:	e1a03102 	lsl	r3, r2, #2
30050650:	e0623003 	rsb	r3, r2, r3
30050654:	e0813003 	add	r3, r1, r3
30050658:	e0833000 	add	r3, r3, r0
3005065c:	e5933000 	ldr	r3, [r3]
30050660:	e51b0014 	ldr	r0, [fp, #-20]
30050664:	e51b1018 	ldr	r1, [fp, #-24]
30050668:	e1a0e00f 	mov	lr, pc
3005066c:	e12fff13 	bx	r3
30050670:	ea000005 	b	3005068c <handle_event_commond+0xc0>
void handle_event_commond(char* commond, int argc, char(*argv)[MAX_COMMAND_LENGTH])
{
	unsigned index = 0;
	int compare_result = 0;
	
	for(index = 0; index < sizeof(gdiags_commonds)/sizeof(gdiags_commonds[0]); index++)
30050674:	e51b300c 	ldr	r3, [fp, #-12]
30050678:	e2833001 	add	r3, r3, #1	; 0x1
3005067c:	e50b300c 	str	r3, [fp, #-12]
30050680:	e51b300c 	ldr	r3, [fp, #-12]
30050684:	e353000f 	cmp	r3, #15	; 0xf
30050688:	9affffdc 	bls	30050600 <handle_event_commond+0x34>
		{
			gdiags_commonds[index].function(argc, argv);
			break;
		}
	}
}
3005068c:	e24bd004 	sub	sp, fp, #4	; 0x4
30050690:	e8bd4800 	pop	{fp, lr}
30050694:	e12fff1e 	bx	lr
30050698:	3005cf48 	.word	0x3005cf48

3005069c <GenerateArgv>:
 * Outputs : 			void
 * Description:			Generate argc/argv
 * Author:				Kevin
 *******************************************************************/
void GenerateArgv(int* argc, char(*argv)[MAX_COMMAND_NUMBER][MAX_COMMAND_LENGTH], char* receive_string)
{
3005069c:	e92d4800 	push	{fp, lr}
300506a0:	e28db004 	add	fp, sp, #4	; 0x4
300506a4:	e24dd028 	sub	sp, sp, #40	; 0x28
300506a8:	e50b0020 	str	r0, [fp, #-32]
300506ac:	e50b1024 	str	r1, [fp, #-36]
300506b0:	e50b2028 	str	r2, [fp, #-40]
	char* receive_string_temp = receive_string;
300506b4:	e51b3028 	ldr	r3, [fp, #-40]
300506b8:	e50b3018 	str	r3, [fp, #-24]
	int str_length = strlen(receive_string) + 1;
300506bc:	e51b0028 	ldr	r0, [fp, #-40]
300506c0:	eb0002a7 	bl	30051164 <strlen>
300506c4:	e1a03000 	mov	r3, r0
300506c8:	e2833001 	add	r3, r3, #1	; 0x1
300506cc:	e50b3014 	str	r3, [fp, #-20]
	char* ptr_head = receive_string;
300506d0:	e51b3028 	ldr	r3, [fp, #-40]
300506d4:	e50b3010 	str	r3, [fp, #-16]
	int char_count = 0;
300506d8:	e3a03000 	mov	r3, #0	; 0x0
300506dc:	e50b300c 	str	r3, [fp, #-12]
	int index = 0;
300506e0:	e3a03000 	mov	r3, #0	; 0x0
300506e4:	e50b3008 	str	r3, [fp, #-8]
	
	*argc = 0;
300506e8:	e51b2020 	ldr	r2, [fp, #-32]
300506ec:	e3a03000 	mov	r3, #0	; 0x0
300506f0:	e5823000 	str	r3, [r2]

	for(index = 0; index < str_length; index++)
300506f4:	e3a03000 	mov	r3, #0	; 0x0
300506f8:	e50b3008 	str	r3, [fp, #-8]
300506fc:	ea00003a 	b	300507ec <GenerateArgv+0x150>
	{
		char_count++;
30050700:	e51b300c 	ldr	r3, [fp, #-12]
30050704:	e2833001 	add	r3, r3, #1	; 0x1
30050708:	e50b300c 	str	r3, [fp, #-12]
		if(receive_string_temp[index] == ' ' || receive_string_temp[index] == '\0')
3005070c:	e51b2008 	ldr	r2, [fp, #-8]
30050710:	e51b3018 	ldr	r3, [fp, #-24]
30050714:	e0833002 	add	r3, r3, r2
30050718:	e5d33000 	ldrb	r3, [r3]
3005071c:	e3530020 	cmp	r3, #32	; 0x20
30050720:	0a000005 	beq	3005073c <GenerateArgv+0xa0>
30050724:	e51b2008 	ldr	r2, [fp, #-8]
30050728:	e51b3018 	ldr	r3, [fp, #-24]
3005072c:	e0833002 	add	r3, r3, r2
30050730:	e5d33000 	ldrb	r3, [r3]
30050734:	e3530000 	cmp	r3, #0	; 0x0
30050738:	1a000028 	bne	300507e0 <GenerateArgv+0x144>
		{
			memcpy((*argv)[*argc], ptr_head, char_count);
3005073c:	e51b1024 	ldr	r1, [fp, #-36]
30050740:	e51b3020 	ldr	r3, [fp, #-32]
30050744:	e5933000 	ldr	r3, [r3]
30050748:	e1a02083 	lsl	r2, r3, #1
3005074c:	e1a03102 	lsl	r3, r2, #2
30050750:	e0823003 	add	r3, r2, r3
30050754:	e0813003 	add	r3, r1, r3
30050758:	e1a00003 	mov	r0, r3
3005075c:	e51b1010 	ldr	r1, [fp, #-16]
30050760:	e51b200c 	ldr	r2, [fp, #-12]
30050764:	eb0002ba 	bl	30051254 <memcpy>
			(*argv)[*argc][char_count - 1] = '\0';
30050768:	e51b3020 	ldr	r3, [fp, #-32]
3005076c:	e5932000 	ldr	r2, [r3]
30050770:	e51b300c 	ldr	r3, [fp, #-12]
30050774:	e2431001 	sub	r1, r3, #1	; 0x1
30050778:	e51b0024 	ldr	r0, [fp, #-36]
3005077c:	e1a03002 	mov	r3, r2
30050780:	e1a03083 	lsl	r3, r3, #1
30050784:	e1a02103 	lsl	r2, r3, #2
30050788:	e0833002 	add	r3, r3, r2
3005078c:	e0833001 	add	r3, r3, r1
30050790:	e0802003 	add	r2, r0, r3
30050794:	e3a03000 	mov	r3, #0	; 0x0
30050798:	e5c23000 	strb	r3, [r2]
			ptr_head = ptr_head + char_count;
3005079c:	e51b200c 	ldr	r2, [fp, #-12]
300507a0:	e51b3010 	ldr	r3, [fp, #-16]
300507a4:	e0833002 	add	r3, r3, r2
300507a8:	e50b3010 	str	r3, [fp, #-16]
			char_count = 0;
300507ac:	e3a03000 	mov	r3, #0	; 0x0
300507b0:	e50b300c 	str	r3, [fp, #-12]
			*argc = *argc + 1;
300507b4:	e51b3020 	ldr	r3, [fp, #-32]
300507b8:	e5933000 	ldr	r3, [r3]
300507bc:	e2832001 	add	r2, r3, #1	; 0x1
300507c0:	e51b3020 	ldr	r3, [fp, #-32]
300507c4:	e5832000 	str	r2, [r3]
			
			if(receive_string_temp[index] == '\0')
300507c8:	e51b2008 	ldr	r2, [fp, #-8]
300507cc:	e51b3018 	ldr	r3, [fp, #-24]
300507d0:	e0833002 	add	r3, r3, r2
300507d4:	e5d33000 	ldrb	r3, [r3]
300507d8:	e3530000 	cmp	r3, #0	; 0x0
300507dc:	0a000006 	beq	300507fc <GenerateArgv+0x160>
	int char_count = 0;
	int index = 0;
	
	*argc = 0;

	for(index = 0; index < str_length; index++)
300507e0:	e51b3008 	ldr	r3, [fp, #-8]
300507e4:	e2833001 	add	r3, r3, #1	; 0x1
300507e8:	e50b3008 	str	r3, [fp, #-8]
300507ec:	e51b2008 	ldr	r2, [fp, #-8]
300507f0:	e51b3014 	ldr	r3, [fp, #-20]
300507f4:	e1520003 	cmp	r2, r3
300507f8:	baffffc0 	blt	30050700 <GenerateArgv+0x64>
			{
				break;
			}
		}
	}
300507fc:	e24bd004 	sub	sp, fp, #4	; 0x4
30050800:	e8bd4800 	pop	{fp, lr}
30050804:	e12fff1e 	bx	lr

30050808 <setup_core_tag>:
//const char *cmdline = "console=ttySAC0,115200 init=/init";

const char *cmdline = "noinitrd root=/dev/nfs rw nfsroot=192.168.1.104:/nfsroot/rootfs ip=192.168.1.99:192.168.1.104::255.255.255.0 console=ttySAC0,115200 init=/linuxrc mem=64M";

void setup_core_tag()
{
30050808:	e52db004 	push	{fp}		; (str fp, [sp, #-4]!)
3005080c:	e28db000 	add	fp, sp, #0	; 0x0
	cur_tag_ptr = (TAG*)SDRAM_TAG_START;
30050810:	e59f208c 	ldr	r2, [pc, #140]	; 300508a4 <setup_core_tag+0x9c>
30050814:	e3a03203 	mov	r3, #805306368	; 0x30000000
30050818:	e2833c01 	add	r3, r3, #256	; 0x100
3005081c:	e5823000 	str	r3, [r2]

	cur_tag_ptr->hdr.tag = ATAG_CORE;
30050820:	e59f307c 	ldr	r3, [pc, #124]	; 300508a4 <setup_core_tag+0x9c>
30050824:	e5932000 	ldr	r2, [r3]
30050828:	e3a03355 	mov	r3, #1409286145	; 0x54000001
3005082c:	e2833841 	add	r3, r3, #4259840	; 0x410000
30050830:	e5823004 	str	r3, [r2, #4]
	cur_tag_ptr->hdr.size = tag_size(TAG_CORE);
30050834:	e59f3068 	ldr	r3, [pc, #104]	; 300508a4 <setup_core_tag+0x9c>
30050838:	e5932000 	ldr	r2, [r3]
3005083c:	e3a03005 	mov	r3, #5	; 0x5
30050840:	e5823000 	str	r3, [r2]

	cur_tag_ptr->u.core.flags = 0;
30050844:	e59f3058 	ldr	r3, [pc, #88]	; 300508a4 <setup_core_tag+0x9c>
30050848:	e5932000 	ldr	r2, [r3]
3005084c:	e3a03000 	mov	r3, #0	; 0x0
30050850:	e5823008 	str	r3, [r2, #8]
	cur_tag_ptr->u.core.pagesize = 4096;
30050854:	e59f3048 	ldr	r3, [pc, #72]	; 300508a4 <setup_core_tag+0x9c>
30050858:	e5932000 	ldr	r2, [r3]
3005085c:	e3a03a01 	mov	r3, #4096	; 0x1000
30050860:	e582300c 	str	r3, [r2, #12]
	cur_tag_ptr->u.core.rootdev = 0;
30050864:	e59f3038 	ldr	r3, [pc, #56]	; 300508a4 <setup_core_tag+0x9c>
30050868:	e5932000 	ldr	r2, [r3]
3005086c:	e3a03000 	mov	r3, #0	; 0x0
30050870:	e5823010 	str	r3, [r2, #16]

	cur_tag_ptr = tag_next(cur_tag_ptr);
30050874:	e59f3028 	ldr	r3, [pc, #40]	; 300508a4 <setup_core_tag+0x9c>
30050878:	e5932000 	ldr	r2, [r3]
3005087c:	e59f3020 	ldr	r3, [pc, #32]	; 300508a4 <setup_core_tag+0x9c>
30050880:	e5933000 	ldr	r3, [r3]
30050884:	e5933000 	ldr	r3, [r3]
30050888:	e1a03103 	lsl	r3, r3, #2
3005088c:	e0822003 	add	r2, r2, r3
30050890:	e59f300c 	ldr	r3, [pc, #12]	; 300508a4 <setup_core_tag+0x9c>
30050894:	e5832000 	str	r2, [r3]
}
30050898:	e28bd000 	add	sp, fp, #0	; 0x0
3005089c:	e8bd0800 	pop	{fp}
300508a0:	e12fff1e 	bx	lr
300508a4:	3005ee10 	.word	0x3005ee10

300508a8 <setup_memory_tag>:

void setup_memory_tag()
{
300508a8:	e52db004 	push	{fp}		; (str fp, [sp, #-4]!)
300508ac:	e28db000 	add	fp, sp, #0	; 0x0
	cur_tag_ptr->hdr.tag = ATAG_MEM;
300508b0:	e59f306c 	ldr	r3, [pc, #108]	; 30050924 <setup_memory_tag+0x7c>
300508b4:	e5932000 	ldr	r2, [r3]
300508b8:	e3a03395 	mov	r3, #1409286146	; 0x54000002
300508bc:	e2833841 	add	r3, r3, #4259840	; 0x410000
300508c0:	e5823004 	str	r3, [r2, #4]
	cur_tag_ptr->hdr.size = tag_size(TAG_MEM32);
300508c4:	e59f3058 	ldr	r3, [pc, #88]	; 30050924 <setup_memory_tag+0x7c>
300508c8:	e5932000 	ldr	r2, [r3]
300508cc:	e3a03004 	mov	r3, #4	; 0x4
300508d0:	e5823000 	str	r3, [r2]
	
	cur_tag_ptr->u.mem.size = SDRAM_TOTAL_SIZE;
300508d4:	e59f3048 	ldr	r3, [pc, #72]	; 30050924 <setup_memory_tag+0x7c>
300508d8:	e5932000 	ldr	r2, [r3]
300508dc:	e3a03301 	mov	r3, #67108864	; 0x4000000
300508e0:	e5823008 	str	r3, [r2, #8]
	cur_tag_ptr->u.mem.start = SDRAM_ADDR_START;
300508e4:	e59f3038 	ldr	r3, [pc, #56]	; 30050924 <setup_memory_tag+0x7c>
300508e8:	e5932000 	ldr	r2, [r3]
300508ec:	e3a03203 	mov	r3, #805306368	; 0x30000000
300508f0:	e582300c 	str	r3, [r2, #12]
	
	cur_tag_ptr = tag_next(cur_tag_ptr);
300508f4:	e59f3028 	ldr	r3, [pc, #40]	; 30050924 <setup_memory_tag+0x7c>
300508f8:	e5932000 	ldr	r2, [r3]
300508fc:	e59f3020 	ldr	r3, [pc, #32]	; 30050924 <setup_memory_tag+0x7c>
30050900:	e5933000 	ldr	r3, [r3]
30050904:	e5933000 	ldr	r3, [r3]
30050908:	e1a03103 	lsl	r3, r3, #2
3005090c:	e0822003 	add	r2, r2, r3
30050910:	e59f300c 	ldr	r3, [pc, #12]	; 30050924 <setup_memory_tag+0x7c>
30050914:	e5832000 	str	r2, [r3]
}
30050918:	e28bd000 	add	sp, fp, #0	; 0x0
3005091c:	e8bd0800 	pop	{fp}
30050920:	e12fff1e 	bx	lr
30050924:	3005ee10 	.word	0x3005ee10

30050928 <setup_cmdline_tag>:

void setup_cmdline_tag()
{
30050928:	e92d4800 	push	{fp, lr}
3005092c:	e28db004 	add	fp, sp, #4	; 0x4
30050930:	e24dd008 	sub	sp, sp, #8	; 0x8
	int cmdline_len = strlen((char*)cmdline);
30050934:	e59f3090 	ldr	r3, [pc, #144]	; 300509cc <setup_cmdline_tag+0xa4>
30050938:	e5933000 	ldr	r3, [r3]
3005093c:	e1a00003 	mov	r0, r3
30050940:	eb000207 	bl	30051164 <strlen>
30050944:	e1a03000 	mov	r3, r0
30050948:	e50b3008 	str	r3, [fp, #-8]
	
	cur_tag_ptr->hdr.tag = ATAG_CMDLINE;
3005094c:	e59f307c 	ldr	r3, [pc, #124]	; 300509d0 <setup_cmdline_tag+0xa8>
30050950:	e5932000 	ldr	r2, [r3]
30050954:	e3a03315 	mov	r3, #1409286144	; 0x54000000
30050958:	e2833841 	add	r3, r3, #4259840	; 0x410000
3005095c:	e2833009 	add	r3, r3, #9	; 0x9
30050960:	e5823004 	str	r3, [r2, #4]
	cur_tag_ptr->hdr.size = (sizeof(TAG_HERDER) + cmdline_len + 1 + 4) >> 2;
30050964:	e59f3064 	ldr	r3, [pc, #100]	; 300509d0 <setup_cmdline_tag+0xa8>
30050968:	e5932000 	ldr	r2, [r3]
3005096c:	e51b3008 	ldr	r3, [fp, #-8]
30050970:	e283300d 	add	r3, r3, #13	; 0xd
30050974:	e1a03123 	lsr	r3, r3, #2
30050978:	e5823000 	str	r3, [r2]
	
	strcpy(cur_tag_ptr->u.cmdline.cmdline, cmdline);
3005097c:	e59f304c 	ldr	r3, [pc, #76]	; 300509d0 <setup_cmdline_tag+0xa8>
30050980:	e5933000 	ldr	r3, [r3]
30050984:	e2832008 	add	r2, r3, #8	; 0x8
30050988:	e59f303c 	ldr	r3, [pc, #60]	; 300509cc <setup_cmdline_tag+0xa4>
3005098c:	e5933000 	ldr	r3, [r3]
30050990:	e1a00002 	mov	r0, r2
30050994:	e1a01003 	mov	r1, r3
30050998:	eb000209 	bl	300511c4 <strcpy>
	
	cur_tag_ptr = tag_next(cur_tag_ptr);
3005099c:	e59f302c 	ldr	r3, [pc, #44]	; 300509d0 <setup_cmdline_tag+0xa8>
300509a0:	e5932000 	ldr	r2, [r3]
300509a4:	e59f3024 	ldr	r3, [pc, #36]	; 300509d0 <setup_cmdline_tag+0xa8>
300509a8:	e5933000 	ldr	r3, [r3]
300509ac:	e5933000 	ldr	r3, [r3]
300509b0:	e1a03103 	lsl	r3, r3, #2
300509b4:	e0822003 	add	r2, r2, r3
300509b8:	e59f3010 	ldr	r3, [pc, #16]	; 300509d0 <setup_cmdline_tag+0xa8>
300509bc:	e5832000 	str	r2, [r3]
}
300509c0:	e24bd004 	sub	sp, fp, #4	; 0x4
300509c4:	e8bd4800 	pop	{fp, lr}
300509c8:	e12fff1e 	bx	lr
300509cc:	3005d008 	.word	0x3005d008
300509d0:	3005ee10 	.word	0x3005ee10

300509d4 <setup_end_tag>:

void setup_end_tag()
{
300509d4:	e52db004 	push	{fp}		; (str fp, [sp, #-4]!)
300509d8:	e28db000 	add	fp, sp, #0	; 0x0
	cur_tag_ptr->hdr.tag = ATAG_NONE;
300509dc:	e59f3024 	ldr	r3, [pc, #36]	; 30050a08 <setup_end_tag+0x34>
300509e0:	e5932000 	ldr	r2, [r3]
300509e4:	e3a03000 	mov	r3, #0	; 0x0
300509e8:	e5823004 	str	r3, [r2, #4]
	cur_tag_ptr->hdr.size = 0;	
300509ec:	e59f3014 	ldr	r3, [pc, #20]	; 30050a08 <setup_end_tag+0x34>
300509f0:	e5932000 	ldr	r2, [r3]
300509f4:	e3a03000 	mov	r3, #0	; 0x0
300509f8:	e5823000 	str	r3, [r2]
}
300509fc:	e28bd000 	add	sp, fp, #0	; 0x0
30050a00:	e8bd0800 	pop	{fp}
30050a04:	e12fff1e 	bx	lr
30050a08:	3005ee10 	.word	0x3005ee10

30050a0c <boot_linux>:

void boot_linux()
{
30050a0c:	e92d4800 	push	{fp, lr}
30050a10:	e28db004 	add	fp, sp, #4	; 0x4
	/* 1. Get Linux boot address */
	the_kernel = (void (*)(int, int, unsigned int))(SDRAM_KERNEL_START + 0x40);
30050a14:	e59f2048 	ldr	r2, [pc, #72]	; 30050a64 <boot_linux+0x58>
30050a18:	e3a03431 	mov	r3, #822083584	; 0x31000000
30050a1c:	e2833040 	add	r3, r3, #64	; 0x40
30050a20:	e5823000 	str	r3, [r2]
	
	/* 2. Set boot parameter */	
	/* 2.1 Set core parameter */
	setup_core_tag();
30050a24:	ebffff77 	bl	30050808 <setup_core_tag>
	
	/* 2.1 Set memory parameter */
	setup_memory_tag();
30050a28:	ebffff9e 	bl	300508a8 <setup_memory_tag>
	
	/* 2.1 Set command line parameter */
	setup_cmdline_tag();
30050a2c:	ebffffbd 	bl	30050928 <setup_cmdline_tag>

	/* 2.1 Set parameter end flag */
	setup_end_tag();	
30050a30:	ebffffe7 	bl	300509d4 <setup_end_tag>
	
	/* 3. Start boot */
	the_kernel(0, 1999, SDRAM_TAG_START);
30050a34:	e59f3028 	ldr	r3, [pc, #40]	; 30050a64 <boot_linux+0x58>
30050a38:	e5933000 	ldr	r3, [r3]
30050a3c:	e3a00000 	mov	r0, #0	; 0x0
30050a40:	e3a01d1f 	mov	r1, #1984	; 0x7c0
30050a44:	e281100f 	add	r1, r1, #15	; 0xf
30050a48:	e3a02203 	mov	r2, #805306368	; 0x30000000
30050a4c:	e2822c01 	add	r2, r2, #256	; 0x100
30050a50:	e1a0e00f 	mov	lr, pc
30050a54:	e12fff13 	bx	r3
}
30050a58:	e24bd004 	sub	sp, fp, #4	; 0x4
30050a5c:	e8bd4800 	pop	{fp, lr}
30050a60:	e12fff1e 	bx	lr
30050a64:	30064668 	.word	0x30064668

30050a68 <bootm>:

MINI2440_STATUS bootm(int argc, char(*argv)[MAX_COMMAND_LENGTH])
{
30050a68:	e92d4800 	push	{fp, lr}
30050a6c:	e28db004 	add	fp, sp, #4	; 0x4
30050a70:	e24dd010 	sub	sp, sp, #16	; 0x10
30050a74:	e50b0010 	str	r0, [fp, #-16]
30050a78:	e50b1014 	str	r1, [fp, #-20]
	MINI2440_STATUS status = MINI2440_SUCCESS;
30050a7c:	e3a03000 	mov	r3, #0	; 0x0
30050a80:	e50b3008 	str	r3, [fp, #-8]
	
	boot_linux();
30050a84:	ebffffe0 	bl	30050a0c <boot_linux>
	
	return status;
30050a88:	e51b3008 	ldr	r3, [fp, #-8]
30050a8c:	e1a00003 	mov	r0, r3
30050a90:	e24bd004 	sub	sp, fp, #4	; 0x4
30050a94:	e8bd4800 	pop	{fp, lr}
30050a98:	e12fff1e 	bx	lr

30050a9c <select_chip>:
#define TWRPH0 2
#define TWRPH1 1


void select_chip()
{
30050a9c:	e52db004 	push	{fp}		; (str fp, [sp, #-4]!)
30050aa0:	e28db000 	add	fp, sp, #0	; 0x0
    NFCONT &= ~(1<<1);	
30050aa4:	e3a0244e 	mov	r2, #1308622848	; 0x4e000000
30050aa8:	e2822004 	add	r2, r2, #4	; 0x4
30050aac:	e3a0344e 	mov	r3, #1308622848	; 0x4e000000
30050ab0:	e2833004 	add	r3, r3, #4	; 0x4
30050ab4:	e5933000 	ldr	r3, [r3]
30050ab8:	e3c33002 	bic	r3, r3, #2	; 0x2
30050abc:	e5823000 	str	r3, [r2]
}
30050ac0:	e28bd000 	add	sp, fp, #0	; 0x0
30050ac4:	e8bd0800 	pop	{fp}
30050ac8:	e12fff1e 	bx	lr

30050acc <deselect_chip>:

void deselect_chip()
{
30050acc:	e52db004 	push	{fp}		; (str fp, [sp, #-4]!)
30050ad0:	e28db000 	add	fp, sp, #0	; 0x0
    NFCONT |= (1<<1);	
30050ad4:	e3a0244e 	mov	r2, #1308622848	; 0x4e000000
30050ad8:	e2822004 	add	r2, r2, #4	; 0x4
30050adc:	e3a0344e 	mov	r3, #1308622848	; 0x4e000000
30050ae0:	e2833004 	add	r3, r3, #4	; 0x4
30050ae4:	e5933000 	ldr	r3, [r3]
30050ae8:	e3833002 	orr	r3, r3, #2	; 0x2
30050aec:	e5823000 	str	r3, [r2]
}
30050af0:	e28bd000 	add	sp, fp, #0	; 0x0
30050af4:	e8bd0800 	pop	{fp}
30050af8:	e12fff1e 	bx	lr

30050afc <clear_RnB>:

void clear_RnB()
{
30050afc:	e52db004 	push	{fp}		; (str fp, [sp, #-4]!)
30050b00:	e28db000 	add	fp, sp, #0	; 0x0
   NFSTAT |= (1<<2); 
30050b04:	e3a0244e 	mov	r2, #1308622848	; 0x4e000000
30050b08:	e2822020 	add	r2, r2, #32	; 0x20
30050b0c:	e3a0344e 	mov	r3, #1308622848	; 0x4e000000
30050b10:	e2833020 	add	r3, r3, #32	; 0x20
30050b14:	e5d33000 	ldrb	r3, [r3]
30050b18:	e20330ff 	and	r3, r3, #255	; 0xff
30050b1c:	e3833004 	orr	r3, r3, #4	; 0x4
30050b20:	e20330ff 	and	r3, r3, #255	; 0xff
30050b24:	e5c23000 	strb	r3, [r2]
}
30050b28:	e28bd000 	add	sp, fp, #0	; 0x0
30050b2c:	e8bd0800 	pop	{fp}
30050b30:	e12fff1e 	bx	lr

30050b34 <send_cmd>:

void send_cmd(unsigned cmd)
{
30050b34:	e52db004 	push	{fp}		; (str fp, [sp, #-4]!)
30050b38:	e28db000 	add	fp, sp, #0	; 0x0
30050b3c:	e24dd00c 	sub	sp, sp, #12	; 0xc
30050b40:	e50b0008 	str	r0, [fp, #-8]
     NFCMD = cmd;
30050b44:	e3a0244e 	mov	r2, #1308622848	; 0x4e000000
30050b48:	e2822008 	add	r2, r2, #8	; 0x8
30050b4c:	e51b3008 	ldr	r3, [fp, #-8]
30050b50:	e20330ff 	and	r3, r3, #255	; 0xff
30050b54:	e5c23000 	strb	r3, [r2]
}
30050b58:	e28bd000 	add	sp, fp, #0	; 0x0
30050b5c:	e8bd0800 	pop	{fp}
30050b60:	e12fff1e 	bx	lr

30050b64 <send_addr>:

void send_addr(unsigned addr)
{
30050b64:	e52db004 	push	{fp}		; (str fp, [sp, #-4]!)
30050b68:	e28db000 	add	fp, sp, #0	; 0x0
30050b6c:	e24dd00c 	sub	sp, sp, #12	; 0xc
30050b70:	e50b0008 	str	r0, [fp, #-8]
     NFADDR = addr;
30050b74:	e3a0244e 	mov	r2, #1308622848	; 0x4e000000
30050b78:	e282200c 	add	r2, r2, #12	; 0xc
30050b7c:	e51b3008 	ldr	r3, [fp, #-8]
30050b80:	e20330ff 	and	r3, r3, #255	; 0xff
30050b84:	e5c23000 	strb	r3, [r2]
}
30050b88:	e28bd000 	add	sp, fp, #0	; 0x0
30050b8c:	e8bd0800 	pop	{fp}
30050b90:	e12fff1e 	bx	lr

30050b94 <wait_RnB>:

void wait_RnB()
{
30050b94:	e52db004 	push	{fp}		; (str fp, [sp, #-4]!)
30050b98:	e28db000 	add	fp, sp, #0	; 0x0
   while (!(NFSTAT&(1<<2)))	
30050b9c:	e3a0344e 	mov	r3, #1308622848	; 0x4e000000
30050ba0:	e2833020 	add	r3, r3, #32	; 0x20
30050ba4:	e5d33000 	ldrb	r3, [r3]
30050ba8:	e20330ff 	and	r3, r3, #255	; 0xff
30050bac:	e2033004 	and	r3, r3, #4	; 0x4
30050bb0:	e3530000 	cmp	r3, #0	; 0x0
30050bb4:	0afffff8 	beq	30050b9c <wait_RnB+0x8>
   {
       ;	
   }
}
30050bb8:	e28bd000 	add	sp, fp, #0	; 0x0
30050bbc:	e8bd0800 	pop	{fp}
30050bc0:	e12fff1e 	bx	lr

30050bc4 <nand_reset>:

void nand_reset()
{
30050bc4:	e92d4800 	push	{fp, lr}
30050bc8:	e28db004 	add	fp, sp, #4	; 0x4
    //选中flash
    select_chip();
30050bcc:	ebffffb2 	bl	30050a9c <select_chip>
    
    //清除RnB
    clear_RnB();
30050bd0:	ebffffc9 	bl	30050afc <clear_RnB>
    
    
    //发送0xff命令
    send_cmd(0xff);
30050bd4:	e3a000ff 	mov	r0, #255	; 0xff
30050bd8:	ebffffd5 	bl	30050b34 <send_cmd>
    
    
    //等待RnB
    wait_RnB();
30050bdc:	ebffffec 	bl	30050b94 <wait_RnB>
    
	
    //取消选中flash
    deselect_chip();
30050be0:	ebffffb9 	bl	30050acc <deselect_chip>
}
30050be4:	e24bd004 	sub	sp, fp, #4	; 0x4
30050be8:	e8bd4800 	pop	{fp, lr}
30050bec:	e12fff1e 	bx	lr

30050bf0 <nandflash_init>:

void nandflash_init()
{
30050bf0:	e92d4800 	push	{fp, lr}
30050bf4:	e28db004 	add	fp, sp, #4	; 0x4
    //初始化NFCONF
    NFCONF = (TACLS<<12) | (TWRPH0<<8) | (TWRPH1<<4);
30050bf8:	e3a0244e 	mov	r2, #1308622848	; 0x4e000000
30050bfc:	e3a03c12 	mov	r3, #4608	; 0x1200
30050c00:	e2833010 	add	r3, r3, #16	; 0x10
30050c04:	e5823000 	str	r3, [r2]
    
    //初始化NFCONT
    NFCONT = (1<<0) | (1<<1);
30050c08:	e3a0344e 	mov	r3, #1308622848	; 0x4e000000
30050c0c:	e2833004 	add	r3, r3, #4	; 0x4
30050c10:	e3a02003 	mov	r2, #3	; 0x3
30050c14:	e5832000 	str	r2, [r3]
    
    //复位
    nand_reset();	
30050c18:	ebffffe9 	bl	30050bc4 <nand_reset>
}
30050c1c:	e24bd004 	sub	sp, fp, #4	; 0x4
30050c20:	e8bd4800 	pop	{fp, lr}
30050c24:	e12fff1e 	bx	lr

30050c28 <NF_PageRead>:

void NF_PageRead(unsigned long addr,unsigned char* buff)
{
30050c28:	e92d4800 	push	{fp, lr}
30050c2c:	e28db004 	add	fp, sp, #4	; 0x4
30050c30:	e24dd010 	sub	sp, sp, #16	; 0x10
30050c34:	e50b0010 	str	r0, [fp, #-16]
30050c38:	e50b1014 	str	r1, [fp, #-20]
	int i;
	
	//选中nandflash芯片
	select_chip();
30050c3c:	ebffff96 	bl	30050a9c <select_chip>
	
	//清除RnB
	clear_RnB();
30050c40:	ebffffad 	bl	30050afc <clear_RnB>
	
	//发送命令0x00
	send_cmd(0x00);
30050c44:	e3a00000 	mov	r0, #0	; 0x0
30050c48:	ebffffb9 	bl	30050b34 <send_cmd>
	
	//发送列地址
	send_addr(0x00);
30050c4c:	e3a00000 	mov	r0, #0	; 0x0
30050c50:	ebffffc3 	bl	30050b64 <send_addr>
	send_addr(0x00);
30050c54:	e3a00000 	mov	r0, #0	; 0x0
30050c58:	ebffffc1 	bl	30050b64 <send_addr>
	
	//发送行地址
	send_addr(addr&0xff);
30050c5c:	e51b3010 	ldr	r3, [fp, #-16]
30050c60:	e20330ff 	and	r3, r3, #255	; 0xff
30050c64:	e1a00003 	mov	r0, r3
30050c68:	ebffffbd 	bl	30050b64 <send_addr>
	send_addr((addr>>8)&0xff);
30050c6c:	e51b3010 	ldr	r3, [fp, #-16]
30050c70:	e1a03423 	lsr	r3, r3, #8
30050c74:	e20330ff 	and	r3, r3, #255	; 0xff
30050c78:	e1a00003 	mov	r0, r3
30050c7c:	ebffffb8 	bl	30050b64 <send_addr>
	send_addr((addr>>16)&0xff);
30050c80:	e51b3010 	ldr	r3, [fp, #-16]
30050c84:	e1a03823 	lsr	r3, r3, #16
30050c88:	e20330ff 	and	r3, r3, #255	; 0xff
30050c8c:	e1a00003 	mov	r0, r3
30050c90:	ebffffb3 	bl	30050b64 <send_addr>
	
	//发送命令0x30
	send_cmd(0x30);
30050c94:	e3a00030 	mov	r0, #48	; 0x30
30050c98:	ebffffa5 	bl	30050b34 <send_cmd>
	
	//等待RnB
	wait_RnB();
30050c9c:	ebffffbc 	bl	30050b94 <wait_RnB>
	
	//读取数据
	for(i=0;i<2048;i++)
30050ca0:	e3a03000 	mov	r3, #0	; 0x0
30050ca4:	e50b3008 	str	r3, [fp, #-8]
30050ca8:	ea00000a 	b	30050cd8 <NF_PageRead+0xb0>
	{
	   buff[i] = NFDATA;  	
30050cac:	e51b2008 	ldr	r2, [fp, #-8]
30050cb0:	e51b3014 	ldr	r3, [fp, #-20]
30050cb4:	e0832002 	add	r2, r3, r2
30050cb8:	e3a0344e 	mov	r3, #1308622848	; 0x4e000000
30050cbc:	e2833010 	add	r3, r3, #16	; 0x10
30050cc0:	e5d33000 	ldrb	r3, [r3]
30050cc4:	e20330ff 	and	r3, r3, #255	; 0xff
30050cc8:	e5c23000 	strb	r3, [r2]
	
	//等待RnB
	wait_RnB();
	
	//读取数据
	for(i=0;i<2048;i++)
30050ccc:	e51b3008 	ldr	r3, [fp, #-8]
30050cd0:	e2833001 	add	r3, r3, #1	; 0x1
30050cd4:	e50b3008 	str	r3, [fp, #-8]
30050cd8:	e51b2008 	ldr	r2, [fp, #-8]
30050cdc:	e3a03e7f 	mov	r3, #2032	; 0x7f0
30050ce0:	e283300f 	add	r3, r3, #15	; 0xf
30050ce4:	e1520003 	cmp	r2, r3
30050ce8:	daffffef 	ble	30050cac <NF_PageRead+0x84>
	{
	   buff[i] = NFDATA;  	
	}
	
	//取消选中nandflash芯片
	deselect_chip();
30050cec:	ebffff76 	bl	30050acc <deselect_chip>
}
30050cf0:	e24bd004 	sub	sp, fp, #4	; 0x4
30050cf4:	e8bd4800 	pop	{fp, lr}
30050cf8:	e12fff1e 	bx	lr

30050cfc <nand_to_ram>:


void nand_to_ram(unsigned long start_addr, unsigned char* sdram_addr, int size)
{
30050cfc:	e92d4800 	push	{fp, lr}
30050d00:	e28db004 	add	fp, sp, #4	; 0x4
30050d04:	e24dd018 	sub	sp, sp, #24	; 0x18
30050d08:	e50b0010 	str	r0, [fp, #-16]
30050d0c:	e50b1014 	str	r1, [fp, #-20]
30050d10:	e50b2018 	str	r2, [fp, #-24]
     int i;
     
	for( i=(start_addr >>11); size>0;)
30050d14:	e51b3010 	ldr	r3, [fp, #-16]
30050d18:	e1a035a3 	lsr	r3, r3, #11
30050d1c:	e50b3008 	str	r3, [fp, #-8]
30050d20:	ea00000c 	b	30050d58 <nand_to_ram+0x5c>
	{
	    NF_PageRead(i,sdram_addr);	
30050d24:	e51b3008 	ldr	r3, [fp, #-8]
30050d28:	e1a00003 	mov	r0, r3
30050d2c:	e51b1014 	ldr	r1, [fp, #-20]
30050d30:	ebffffbc 	bl	30050c28 <NF_PageRead>
	    size -= 2048;
30050d34:	e51b3018 	ldr	r3, [fp, #-24]
30050d38:	e2433b02 	sub	r3, r3, #2048	; 0x800
30050d3c:	e50b3018 	str	r3, [fp, #-24]
	    sdram_addr += 2048;
30050d40:	e51b3014 	ldr	r3, [fp, #-20]
30050d44:	e2833b02 	add	r3, r3, #2048	; 0x800
30050d48:	e50b3014 	str	r3, [fp, #-20]
	    i++;
30050d4c:	e51b3008 	ldr	r3, [fp, #-8]
30050d50:	e2833001 	add	r3, r3, #1	; 0x1
30050d54:	e50b3008 	str	r3, [fp, #-8]

void nand_to_ram(unsigned long start_addr, unsigned char* sdram_addr, int size)
{
     int i;
     
	for( i=(start_addr >>11); size>0;)
30050d58:	e51b3018 	ldr	r3, [fp, #-24]
30050d5c:	e3530000 	cmp	r3, #0	; 0x0
30050d60:	caffffef 	bgt	30050d24 <nand_to_ram+0x28>
	    NF_PageRead(i,sdram_addr);	
	    size -= 2048;
	    sdram_addr += 2048;
	    i++;
	}
}
30050d64:	e24bd004 	sub	sp, fp, #4	; 0x4
30050d68:	e8bd4800 	pop	{fp, lr}
30050d6c:	e12fff1e 	bx	lr

30050d70 <NF_Erase>:

int NF_Erase(unsigned long addr)
{
30050d70:	e92d4800 	push	{fp, lr}
30050d74:	e28db004 	add	fp, sp, #4	; 0x4
30050d78:	e24dd010 	sub	sp, sp, #16	; 0x10
30050d7c:	e50b0010 	str	r0, [fp, #-16]
	int ret;
	
  //选中flash芯片
	select_chip();
30050d80:	ebffff45 	bl	30050a9c <select_chip>
	
	//清除RnB
	clear_RnB();
30050d84:	ebffff5c 	bl	30050afc <clear_RnB>
	
	//发送命令0x60
	send_cmd(0x60);
30050d88:	e3a00060 	mov	r0, #96	; 0x60
30050d8c:	ebffff68 	bl	30050b34 <send_cmd>
	
	//发送行地址
	send_addr(addr&0xff);
30050d90:	e51b3010 	ldr	r3, [fp, #-16]
30050d94:	e20330ff 	and	r3, r3, #255	; 0xff
30050d98:	e1a00003 	mov	r0, r3
30050d9c:	ebffff70 	bl	30050b64 <send_addr>
	send_addr((addr>>8)&0xff);
30050da0:	e51b3010 	ldr	r3, [fp, #-16]
30050da4:	e1a03423 	lsr	r3, r3, #8
30050da8:	e20330ff 	and	r3, r3, #255	; 0xff
30050dac:	e1a00003 	mov	r0, r3
30050db0:	ebffff6b 	bl	30050b64 <send_addr>
	send_addr((addr>>16)&0xff);
30050db4:	e51b3010 	ldr	r3, [fp, #-16]
30050db8:	e1a03823 	lsr	r3, r3, #16
30050dbc:	e20330ff 	and	r3, r3, #255	; 0xff
30050dc0:	e1a00003 	mov	r0, r3
30050dc4:	ebffff66 	bl	30050b64 <send_addr>
	
	//发送命令D0
	send_cmd(0xD0);
30050dc8:	e3a000d0 	mov	r0, #208	; 0xd0
30050dcc:	ebffff58 	bl	30050b34 <send_cmd>
	
	//等待RnB
	wait_RnB();
30050dd0:	ebffff6f 	bl	30050b94 <wait_RnB>
	
	//发送命令0x70
	send_cmd(0x70);
30050dd4:	e3a00070 	mov	r0, #112	; 0x70
30050dd8:	ebffff55 	bl	30050b34 <send_cmd>
	
	//读取擦除结果
	ret = NFDATA;
30050ddc:	e3a0344e 	mov	r3, #1308622848	; 0x4e000000
30050de0:	e2833010 	add	r3, r3, #16	; 0x10
30050de4:	e5d33000 	ldrb	r3, [r3]
30050de8:	e20330ff 	and	r3, r3, #255	; 0xff
30050dec:	e50b3008 	str	r3, [fp, #-8]
	
	//取消选中flash芯片
	deselect_chip();
30050df0:	ebffff35 	bl	30050acc <deselect_chip>
	
	return ret;
30050df4:	e51b3008 	ldr	r3, [fp, #-8]
	
}
30050df8:	e1a00003 	mov	r0, r3
30050dfc:	e24bd004 	sub	sp, fp, #4	; 0x4
30050e00:	e8bd4800 	pop	{fp, lr}
30050e04:	e12fff1e 	bx	lr

30050e08 <NF_WritePage>:

int NF_WritePage(unsigned long addr,unsigned char *buff)
{
30050e08:	e92d4800 	push	{fp, lr}
30050e0c:	e28db004 	add	fp, sp, #4	; 0x4
30050e10:	e24dd010 	sub	sp, sp, #16	; 0x10
30050e14:	e50b0010 	str	r0, [fp, #-16]
30050e18:	e50b1014 	str	r1, [fp, #-20]
	unsigned int i,ret = 0;
30050e1c:	e3a03000 	mov	r3, #0	; 0x0
30050e20:	e50b3008 	str	r3, [fp, #-8]
	//选中nandflash
	select_chip();
30050e24:	ebffff1c 	bl	30050a9c <select_chip>
	
	//清除RnB
	clear_RnB();
30050e28:	ebffff33 	bl	30050afc <clear_RnB>
	
	//发送0x80命令
	send_cmd(0x80);
30050e2c:	e3a00080 	mov	r0, #128	; 0x80
30050e30:	ebffff3f 	bl	30050b34 <send_cmd>
	
	//发送2个列地址
	send_addr(0x00);
30050e34:	e3a00000 	mov	r0, #0	; 0x0
30050e38:	ebffff49 	bl	30050b64 <send_addr>
	send_addr(0x00);
30050e3c:	e3a00000 	mov	r0, #0	; 0x0
30050e40:	ebffff47 	bl	30050b64 <send_addr>
	
	//发送3个行地址
	send_addr(addr&0xff);
30050e44:	e51b3010 	ldr	r3, [fp, #-16]
30050e48:	e20330ff 	and	r3, r3, #255	; 0xff
30050e4c:	e1a00003 	mov	r0, r3
30050e50:	ebffff43 	bl	30050b64 <send_addr>
	send_addr((addr>>8)&0xff);
30050e54:	e51b3010 	ldr	r3, [fp, #-16]
30050e58:	e1a03423 	lsr	r3, r3, #8
30050e5c:	e20330ff 	and	r3, r3, #255	; 0xff
30050e60:	e1a00003 	mov	r0, r3
30050e64:	ebffff3e 	bl	30050b64 <send_addr>
	send_addr((addr>>16)&0xff);
30050e68:	e51b3010 	ldr	r3, [fp, #-16]
30050e6c:	e1a03823 	lsr	r3, r3, #16
30050e70:	e20330ff 	and	r3, r3, #255	; 0xff
30050e74:	e1a00003 	mov	r0, r3
30050e78:	ebffff39 	bl	30050b64 <send_addr>
	
	//发送数据
		for(i=0;i<2048;i++)
30050e7c:	e3a03000 	mov	r3, #0	; 0x0
30050e80:	e50b300c 	str	r3, [fp, #-12]
30050e84:	ea000009 	b	30050eb0 <NF_WritePage+0xa8>
	{
	   NFDATA = buff[i];  	
30050e88:	e3a0244e 	mov	r2, #1308622848	; 0x4e000000
30050e8c:	e2822010 	add	r2, r2, #16	; 0x10
30050e90:	e51b1014 	ldr	r1, [fp, #-20]
30050e94:	e51b300c 	ldr	r3, [fp, #-12]
30050e98:	e0813003 	add	r3, r1, r3
30050e9c:	e5d33000 	ldrb	r3, [r3]
30050ea0:	e5c23000 	strb	r3, [r2]
	send_addr(addr&0xff);
	send_addr((addr>>8)&0xff);
	send_addr((addr>>16)&0xff);
	
	//发送数据
		for(i=0;i<2048;i++)
30050ea4:	e51b300c 	ldr	r3, [fp, #-12]
30050ea8:	e2833001 	add	r3, r3, #1	; 0x1
30050eac:	e50b300c 	str	r3, [fp, #-12]
30050eb0:	e51b200c 	ldr	r2, [fp, #-12]
30050eb4:	e3a03e7f 	mov	r3, #2032	; 0x7f0
30050eb8:	e283300f 	add	r3, r3, #15	; 0xf
30050ebc:	e1520003 	cmp	r2, r3
30050ec0:	9afffff0 	bls	30050e88 <NF_WritePage+0x80>
	{
	   NFDATA = buff[i];  	
	}
	
	//发送0x10命令
	send_cmd(0x10);
30050ec4:	e3a00010 	mov	r0, #16	; 0x10
30050ec8:	ebffff19 	bl	30050b34 <send_cmd>
	
	//等待RnB
	wait_RnB();
30050ecc:	ebffff30 	bl	30050b94 <wait_RnB>
	
	//发送0x70命令
	send_cmd(0x70);
30050ed0:	e3a00070 	mov	r0, #112	; 0x70
30050ed4:	ebffff16 	bl	30050b34 <send_cmd>
	
	//读取写入结果
	ret = NFDATA;
30050ed8:	e3a0344e 	mov	r3, #1308622848	; 0x4e000000
30050edc:	e2833010 	add	r3, r3, #16	; 0x10
30050ee0:	e5d33000 	ldrb	r3, [r3]
30050ee4:	e20330ff 	and	r3, r3, #255	; 0xff
30050ee8:	e50b3008 	str	r3, [fp, #-8]
	
	//关闭nandflash
	deselect_chip();
30050eec:	ebfffef6 	bl	30050acc <deselect_chip>
	 return ret;
30050ef0:	e51b3008 	ldr	r3, [fp, #-8]
	
30050ef4:	e1a00003 	mov	r0, r3
30050ef8:	e24bd004 	sub	sp, fp, #4	; 0x4
30050efc:	e8bd4800 	pop	{fp, lr}
30050f00:	e12fff1e 	bx	lr

30050f04 <delay>:
#include "Common.h"

void delay(int n)
{
30050f04:	e52db004 	push	{fp}		; (str fp, [sp, #-4]!)
30050f08:	e28db000 	add	fp, sp, #0	; 0x0
30050f0c:	e24dd00c 	sub	sp, sp, #12	; 0xc
30050f10:	e50b0008 	str	r0, [fp, #-8]
	while(n--);
30050f14:	e51b3008 	ldr	r3, [fp, #-8]
30050f18:	e3530000 	cmp	r3, #0	; 0x0
30050f1c:	03a03000 	moveq	r3, #0	; 0x0
30050f20:	13a03001 	movne	r3, #1	; 0x1
30050f24:	e20320ff 	and	r2, r3, #255	; 0xff
30050f28:	e51b3008 	ldr	r3, [fp, #-8]
30050f2c:	e2433001 	sub	r3, r3, #1	; 0x1
30050f30:	e50b3008 	str	r3, [fp, #-8]
30050f34:	e3520000 	cmp	r2, #0	; 0x0
30050f38:	1afffff5 	bne	30050f14 <delay+0x10>
}
30050f3c:	e28bd000 	add	sp, fp, #0	; 0x0
30050f40:	e8bd0800 	pop	{fp}
30050f44:	e12fff1e 	bx	lr

30050f48 <caculate_power>:

//The max result value should not > 2^31 - 1
int caculate_power(int value, int power)
{
30050f48:	e52db004 	push	{fp}		; (str fp, [sp, #-4]!)
30050f4c:	e28db000 	add	fp, sp, #0	; 0x0
30050f50:	e24dd014 	sub	sp, sp, #20	; 0x14
30050f54:	e50b0010 	str	r0, [fp, #-16]
30050f58:	e50b1014 	str	r1, [fp, #-20]
	int ret = 1;
30050f5c:	e3a03001 	mov	r3, #1	; 0x1
30050f60:	e50b300c 	str	r3, [fp, #-12]
	int index = 0;
30050f64:	e3a03000 	mov	r3, #0	; 0x0
30050f68:	e50b3008 	str	r3, [fp, #-8]
	
	for(index = 0; index < power; index++)
30050f6c:	e3a03000 	mov	r3, #0	; 0x0
30050f70:	e50b3008 	str	r3, [fp, #-8]
30050f74:	ea000006 	b	30050f94 <caculate_power+0x4c>
	{
		ret = ret * value;
30050f78:	e51b200c 	ldr	r2, [fp, #-12]
30050f7c:	e51b3010 	ldr	r3, [fp, #-16]
30050f80:	e0030392 	mul	r3, r2, r3
30050f84:	e50b300c 	str	r3, [fp, #-12]
int caculate_power(int value, int power)
{
	int ret = 1;
	int index = 0;
	
	for(index = 0; index < power; index++)
30050f88:	e51b3008 	ldr	r3, [fp, #-8]
30050f8c:	e2833001 	add	r3, r3, #1	; 0x1
30050f90:	e50b3008 	str	r3, [fp, #-8]
30050f94:	e51b2008 	ldr	r2, [fp, #-8]
30050f98:	e51b3014 	ldr	r3, [fp, #-20]
30050f9c:	e1520003 	cmp	r2, r3
30050fa0:	bafffff4 	blt	30050f78 <caculate_power+0x30>
	{
		ret = ret * value;
	}

	return ret;
30050fa4:	e51b300c 	ldr	r3, [fp, #-12]
}
30050fa8:	e1a00003 	mov	r0, r3
30050fac:	e28bd000 	add	sp, fp, #0	; 0x0
30050fb0:	e8bd0800 	pop	{fp}
30050fb4:	e12fff1e 	bx	lr

30050fb8 <data_adjustment>:

//0x12345678 to 0x78563412
int data_adjustment(unsigned* input)
{
30050fb8:	e52db004 	push	{fp}		; (str fp, [sp, #-4]!)
30050fbc:	e28db000 	add	fp, sp, #0	; 0x0
30050fc0:	e24dd014 	sub	sp, sp, #20	; 0x14
30050fc4:	e50b0010 	str	r0, [fp, #-16]
	unsigned temp = 0;
30050fc8:	e3a03000 	mov	r3, #0	; 0x0
30050fcc:	e50b3008 	str	r3, [fp, #-8]
	
	temp = temp | (*input & 0xff ) << 24;
30050fd0:	e51b3010 	ldr	r3, [fp, #-16]
30050fd4:	e5933000 	ldr	r3, [r3]
30050fd8:	e1a02c03 	lsl	r2, r3, #24
30050fdc:	e51b3008 	ldr	r3, [fp, #-8]
30050fe0:	e1833002 	orr	r3, r3, r2
30050fe4:	e50b3008 	str	r3, [fp, #-8]
	temp = temp | (*input & 0xff00) << 8;
30050fe8:	e51b3010 	ldr	r3, [fp, #-16]
30050fec:	e5933000 	ldr	r3, [r3]
30050ff0:	e2033cff 	and	r3, r3, #65280	; 0xff00
30050ff4:	e1a02403 	lsl	r2, r3, #8
30050ff8:	e51b3008 	ldr	r3, [fp, #-8]
30050ffc:	e1833002 	orr	r3, r3, r2
30051000:	e50b3008 	str	r3, [fp, #-8]
	temp = temp | (*input & 0xff0000) >> 8;
30051004:	e51b3010 	ldr	r3, [fp, #-16]
30051008:	e5933000 	ldr	r3, [r3]
3005100c:	e20338ff 	and	r3, r3, #16711680	; 0xff0000
30051010:	e1a02423 	lsr	r2, r3, #8
30051014:	e51b3008 	ldr	r3, [fp, #-8]
30051018:	e1833002 	orr	r3, r3, r2
3005101c:	e50b3008 	str	r3, [fp, #-8]
	temp = temp | (*input & 0xff000000) >> 24;
30051020:	e51b3010 	ldr	r3, [fp, #-16]
30051024:	e5933000 	ldr	r3, [r3]
30051028:	e1a02c23 	lsr	r2, r3, #24
3005102c:	e51b3008 	ldr	r3, [fp, #-8]
30051030:	e1833002 	orr	r3, r3, r2
30051034:	e50b3008 	str	r3, [fp, #-8]

	*input = temp;
30051038:	e51b2010 	ldr	r2, [fp, #-16]
3005103c:	e51b3008 	ldr	r3, [fp, #-8]
30051040:	e5823000 	str	r3, [r2]

	return 0;
30051044:	e3a03000 	mov	r3, #0	; 0x0
}
30051048:	e1a00003 	mov	r0, r3
3005104c:	e28bd000 	add	sp, fp, #0	; 0x0
30051050:	e8bd0800 	pop	{fp}
30051054:	e12fff1e 	bx	lr

30051058 <strcmp>:
						dest_str1 < dest_str2: 	return -1
						dest_str1 = dest_str2: 	return 0
						Invalid Paramater:		return -2
************************************************************************/
int strcmp(char* dest_str1, char* dest_str2)
{
30051058:	e52db004 	push	{fp}		; (str fp, [sp, #-4]!)
3005105c:	e28db000 	add	fp, sp, #0	; 0x0
30051060:	e24dd024 	sub	sp, sp, #36	; 0x24
30051064:	e50b0018 	str	r0, [fp, #-24]
30051068:	e50b101c 	str	r1, [fp, #-28]
	int ret = 0;
3005106c:	e3a03000 	mov	r3, #0	; 0x0
30051070:	e50b3010 	str	r3, [fp, #-16]
	char* dest_str1_ptr = dest_str1;
30051074:	e51b3018 	ldr	r3, [fp, #-24]
30051078:	e50b300c 	str	r3, [fp, #-12]
	char* dest_str2_ptr = dest_str2;
3005107c:	e51b301c 	ldr	r3, [fp, #-28]
30051080:	e50b3008 	str	r3, [fp, #-8]

	if(dest_str1 == NULL | dest_str2 == NULL)
30051084:	e51b3018 	ldr	r3, [fp, #-24]
30051088:	e3530000 	cmp	r3, #0	; 0x0
3005108c:	13a03000 	movne	r3, #0	; 0x0
30051090:	03a03001 	moveq	r3, #1	; 0x1
30051094:	e20320ff 	and	r2, r3, #255	; 0xff
30051098:	e51b301c 	ldr	r3, [fp, #-28]
3005109c:	e3530000 	cmp	r3, #0	; 0x0
300510a0:	13a03000 	movne	r3, #0	; 0x0
300510a4:	03a03001 	moveq	r3, #1	; 0x1
300510a8:	e20330ff 	and	r3, r3, #255	; 0xff
300510ac:	e1823003 	orr	r3, r2, r3
300510b0:	e20330ff 	and	r3, r3, #255	; 0xff
300510b4:	e3530000 	cmp	r3, #0	; 0x0
300510b8:	0a00001a 	beq	30051128 <strcmp+0xd0>
	{
		return -2;
300510bc:	e3e03001 	mvn	r3, #1	; 0x1
300510c0:	e50b3020 	str	r3, [fp, #-32]
300510c4:	ea000021 	b	30051150 <strcmp+0xf8>
	}
		
	while(((*dest_str1_ptr) != '\0') && ((*dest_str2_ptr) != '\0'))
	{	
		if((*dest_str1_ptr) < (*dest_str2_ptr))
300510c8:	e51b300c 	ldr	r3, [fp, #-12]
300510cc:	e5d32000 	ldrb	r2, [r3]
300510d0:	e51b3008 	ldr	r3, [fp, #-8]
300510d4:	e5d33000 	ldrb	r3, [r3]
300510d8:	e1520003 	cmp	r2, r3
300510dc:	2a000002 	bcs	300510ec <strcmp+0x94>
		{
	
			ret = -1;
300510e0:	e3e03000 	mvn	r3, #0	; 0x0
300510e4:	e50b3010 	str	r3, [fp, #-16]
300510e8:	ea000016 	b	30051148 <strcmp+0xf0>
			break;
		}
		if((*dest_str1_ptr) > (*dest_str2_ptr))
300510ec:	e51b300c 	ldr	r3, [fp, #-12]
300510f0:	e5d32000 	ldrb	r2, [r3]
300510f4:	e51b3008 	ldr	r3, [fp, #-8]
300510f8:	e5d33000 	ldrb	r3, [r3]
300510fc:	e1520003 	cmp	r2, r3
30051100:	9a000002 	bls	30051110 <strcmp+0xb8>
		{
			ret = 1;
30051104:	e3a03001 	mov	r3, #1	; 0x1
30051108:	e50b3010 	str	r3, [fp, #-16]
3005110c:	ea00000d 	b	30051148 <strcmp+0xf0>
			break;
		}
		dest_str1_ptr++;
30051110:	e51b300c 	ldr	r3, [fp, #-12]
30051114:	e2833001 	add	r3, r3, #1	; 0x1
30051118:	e50b300c 	str	r3, [fp, #-12]
		dest_str2_ptr++;
3005111c:	e51b3008 	ldr	r3, [fp, #-8]
30051120:	e2833001 	add	r3, r3, #1	; 0x1
30051124:	e50b3008 	str	r3, [fp, #-8]
	if(dest_str1 == NULL | dest_str2 == NULL)
	{
		return -2;
	}
		
	while(((*dest_str1_ptr) != '\0') && ((*dest_str2_ptr) != '\0'))
30051128:	e51b300c 	ldr	r3, [fp, #-12]
3005112c:	e5d33000 	ldrb	r3, [r3]
30051130:	e3530000 	cmp	r3, #0	; 0x0
30051134:	0a000003 	beq	30051148 <strcmp+0xf0>
30051138:	e51b3008 	ldr	r3, [fp, #-8]
3005113c:	e5d33000 	ldrb	r3, [r3]
30051140:	e3530000 	cmp	r3, #0	; 0x0
30051144:	1affffdf 	bne	300510c8 <strcmp+0x70>
		}
		dest_str1_ptr++;
		dest_str2_ptr++;
	}
	
	return ret;
30051148:	e51b3010 	ldr	r3, [fp, #-16]
3005114c:	e50b3020 	str	r3, [fp, #-32]
30051150:	e51b3020 	ldr	r3, [fp, #-32]
}
30051154:	e1a00003 	mov	r0, r3
30051158:	e28bd000 	add	sp, fp, #0	; 0x0
3005115c:	e8bd0800 	pop	{fp}
30051160:	e12fff1e 	bx	lr

30051164 <strlen>:
Function Name:  		strlen
Input Paramater:		dest_string
Function Description:	Caculate dest_str length
************************************************************************/
int strlen(char* dest_str)
{
30051164:	e52db004 	push	{fp}		; (str fp, [sp, #-4]!)
30051168:	e28db000 	add	fp, sp, #0	; 0x0
3005116c:	e24dd014 	sub	sp, sp, #20	; 0x14
30051170:	e50b0010 	str	r0, [fp, #-16]
	int str_len = 0;
30051174:	e3a03000 	mov	r3, #0	; 0x0
30051178:	e50b3008 	str	r3, [fp, #-8]

	if(dest_str != NULL)
3005117c:	e51b3010 	ldr	r3, [fp, #-16]
30051180:	e3530000 	cmp	r3, #0	; 0x0
30051184:	0a000009 	beq	300511b0 <strlen+0x4c>
30051188:	ea000002 	b	30051198 <strlen+0x34>
	{
		while(dest_str[str_len] != '\0')
		{
			str_len++;
3005118c:	e51b3008 	ldr	r3, [fp, #-8]
30051190:	e2833001 	add	r3, r3, #1	; 0x1
30051194:	e50b3008 	str	r3, [fp, #-8]
{
	int str_len = 0;

	if(dest_str != NULL)
	{
		while(dest_str[str_len] != '\0')
30051198:	e51b2008 	ldr	r2, [fp, #-8]
3005119c:	e51b3010 	ldr	r3, [fp, #-16]
300511a0:	e0833002 	add	r3, r3, r2
300511a4:	e5d33000 	ldrb	r3, [r3]
300511a8:	e3530000 	cmp	r3, #0	; 0x0
300511ac:	1afffff6 	bne	3005118c <strlen+0x28>
		{
			str_len++;
		}
	}
	
	return str_len;
300511b0:	e51b3008 	ldr	r3, [fp, #-8]
}
300511b4:	e1a00003 	mov	r0, r3
300511b8:	e28bd000 	add	sp, fp, #0	; 0x0
300511bc:	e8bd0800 	pop	{fp}
300511c0:	e12fff1e 	bx	lr

300511c4 <strcpy>:
Function Name:  		strcpy
Input Paramater:		dest_str, src_str
Function Description:	Copy src_str to dest_str, return the number char copy
************************************************************************/
int strcpy(char* dest_str, char* src_str)
{
300511c4:	e52db004 	push	{fp}		; (str fp, [sp, #-4]!)
300511c8:	e28db000 	add	fp, sp, #0	; 0x0
300511cc:	e24dd014 	sub	sp, sp, #20	; 0x14
300511d0:	e50b0010 	str	r0, [fp, #-16]
300511d4:	e50b1014 	str	r1, [fp, #-20]
	int index = 0;
300511d8:	e3a03000 	mov	r3, #0	; 0x0
300511dc:	e50b3008 	str	r3, [fp, #-8]
	
	if(dest_str != NULL && src_str != NULL)
300511e0:	e51b3010 	ldr	r3, [fp, #-16]
300511e4:	e3530000 	cmp	r3, #0	; 0x0
300511e8:	0a000014 	beq	30051240 <strcpy+0x7c>
300511ec:	e51b3014 	ldr	r3, [fp, #-20]
300511f0:	e3530000 	cmp	r3, #0	; 0x0
300511f4:	0a000011 	beq	30051240 <strcpy+0x7c>
300511f8:	ea00000a 	b	30051228 <strcpy+0x64>
	{
		while(src_str[index] != '\0')
		{
			dest_str[index] = src_str[index];
300511fc:	e51b2008 	ldr	r2, [fp, #-8]
30051200:	e51b3010 	ldr	r3, [fp, #-16]
30051204:	e0831002 	add	r1, r3, r2
30051208:	e51b2008 	ldr	r2, [fp, #-8]
3005120c:	e51b3014 	ldr	r3, [fp, #-20]
30051210:	e0833002 	add	r3, r3, r2
30051214:	e5d33000 	ldrb	r3, [r3]
30051218:	e5c13000 	strb	r3, [r1]
			index++;
3005121c:	e51b3008 	ldr	r3, [fp, #-8]
30051220:	e2833001 	add	r3, r3, #1	; 0x1
30051224:	e50b3008 	str	r3, [fp, #-8]
{
	int index = 0;
	
	if(dest_str != NULL && src_str != NULL)
	{
		while(src_str[index] != '\0')
30051228:	e51b2008 	ldr	r2, [fp, #-8]
3005122c:	e51b3014 	ldr	r3, [fp, #-20]
30051230:	e0833002 	add	r3, r3, r2
30051234:	e5d33000 	ldrb	r3, [r3]
30051238:	e3530000 	cmp	r3, #0	; 0x0
3005123c:	1affffee 	bne	300511fc <strcpy+0x38>
			dest_str[index] = src_str[index];
			index++;
		}
	}
	
	return index;
30051240:	e51b3008 	ldr	r3, [fp, #-8]
}
30051244:	e1a00003 	mov	r0, r3
30051248:	e28bd000 	add	sp, fp, #0	; 0x0
3005124c:	e8bd0800 	pop	{fp}
30051250:	e12fff1e 	bx	lr

30051254 <memcpy>:
Function Name:  		memcpy
Input Paramater:		dest_str, src_str
Function Description:	Copy src_str to dest_str, return the number char copy
************************************************************************/
int memcpy(char* dest_str, char* src_str, int length)
{
30051254:	e52db004 	push	{fp}		; (str fp, [sp, #-4]!)
30051258:	e28db000 	add	fp, sp, #0	; 0x0
3005125c:	e24dd01c 	sub	sp, sp, #28	; 0x1c
30051260:	e50b0010 	str	r0, [fp, #-16]
30051264:	e50b1014 	str	r1, [fp, #-20]
30051268:	e50b2018 	str	r2, [fp, #-24]
	int index = length;
3005126c:	e51b3018 	ldr	r3, [fp, #-24]
30051270:	e50b3008 	str	r3, [fp, #-8]
	
	if(dest_str != NULL && src_str != NULL)
30051274:	e51b3010 	ldr	r3, [fp, #-16]
30051278:	e3530000 	cmp	r3, #0	; 0x0
3005127c:	0a000013 	beq	300512d0 <memcpy+0x7c>
30051280:	e51b3014 	ldr	r3, [fp, #-20]
30051284:	e3530000 	cmp	r3, #0	; 0x0
30051288:	0a000010 	beq	300512d0 <memcpy+0x7c>
3005128c:	ea00000c 	b	300512c4 <memcpy+0x70>
	{
		while(index)
		{
			dest_str[index - 1] = src_str[index - 1];
30051290:	e51b3008 	ldr	r3, [fp, #-8]
30051294:	e2432001 	sub	r2, r3, #1	; 0x1
30051298:	e51b3010 	ldr	r3, [fp, #-16]
3005129c:	e0831002 	add	r1, r3, r2
300512a0:	e51b3008 	ldr	r3, [fp, #-8]
300512a4:	e2432001 	sub	r2, r3, #1	; 0x1
300512a8:	e51b3014 	ldr	r3, [fp, #-20]
300512ac:	e0833002 	add	r3, r3, r2
300512b0:	e5d33000 	ldrb	r3, [r3]
300512b4:	e5c13000 	strb	r3, [r1]
			index--;
300512b8:	e51b3008 	ldr	r3, [fp, #-8]
300512bc:	e2433001 	sub	r3, r3, #1	; 0x1
300512c0:	e50b3008 	str	r3, [fp, #-8]
{
	int index = length;
	
	if(dest_str != NULL && src_str != NULL)
	{
		while(index)
300512c4:	e51b3008 	ldr	r3, [fp, #-8]
300512c8:	e3530000 	cmp	r3, #0	; 0x0
300512cc:	1affffef 	bne	30051290 <memcpy+0x3c>
			dest_str[index - 1] = src_str[index - 1];
			index--;
		}
	}
	
	return length;
300512d0:	e51b3018 	ldr	r3, [fp, #-24]
}
300512d4:	e1a00003 	mov	r0, r3
300512d8:	e28bd000 	add	sp, fp, #0	; 0x0
300512dc:	e8bd0800 	pop	{fp}
300512e0:	e12fff1e 	bx	lr

300512e4 <clean_string>:
Function Name:  		clean_string
Input Paramater:		dest_string
Function Description:	Delete control char on the end of string
************************************************************************/
void clean_string(char* dest_string)
{
300512e4:	e52db004 	push	{fp}		; (str fp, [sp, #-4]!)
300512e8:	e28db000 	add	fp, sp, #0	; 0x0
300512ec:	e24dd00c 	sub	sp, sp, #12	; 0xc
300512f0:	e50b0008 	str	r0, [fp, #-8]
	if(dest_string != NULL)
300512f4:	e51b3008 	ldr	r3, [fp, #-8]
300512f8:	e3530000 	cmp	r3, #0	; 0x0
300512fc:	0a00000f 	beq	30051340 <clean_string+0x5c>
30051300:	ea00000a 	b	30051330 <clean_string+0x4c>
	{
		while(*dest_string)
		{
			if(*dest_string == '\n')
30051304:	e51b3008 	ldr	r3, [fp, #-8]
30051308:	e5d33000 	ldrb	r3, [r3]
3005130c:	e353000a 	cmp	r3, #10	; 0xa
30051310:	1a000003 	bne	30051324 <clean_string+0x40>
			{
				*dest_string = '\0';
30051314:	e51b3008 	ldr	r3, [fp, #-8]
30051318:	e3a02000 	mov	r2, #0	; 0x0
3005131c:	e5c32000 	strb	r2, [r3]
30051320:	ea000006 	b	30051340 <clean_string+0x5c>
				break;
			}
			
			dest_string++;
30051324:	e51b3008 	ldr	r3, [fp, #-8]
30051328:	e2833001 	add	r3, r3, #1	; 0x1
3005132c:	e50b3008 	str	r3, [fp, #-8]
************************************************************************/
void clean_string(char* dest_string)
{
	if(dest_string != NULL)
	{
		while(*dest_string)
30051330:	e51b3008 	ldr	r3, [fp, #-8]
30051334:	e5d33000 	ldrb	r3, [r3]
30051338:	e3530000 	cmp	r3, #0	; 0x0
3005133c:	1afffff0 	bne	30051304 <clean_string+0x20>
			}
			
			dest_string++;
		}
	}
}
30051340:	e28bd000 	add	sp, fp, #0	; 0x0
30051344:	e8bd0800 	pop	{fp}
30051348:	e12fff1e 	bx	lr

3005134c <memset>:
Function Name:  		memset
Input Paramater:		dest_string, set_char, length
Function Description:	Use set_char to set the memory dest_string
************************************************************************/
void memset(void* dest_string, int set_char, unsigned length)
{
3005134c:	e52db004 	push	{fp}		; (str fp, [sp, #-4]!)
30051350:	e28db000 	add	fp, sp, #0	; 0x0
30051354:	e24dd01c 	sub	sp, sp, #28	; 0x1c
30051358:	e50b0010 	str	r0, [fp, #-16]
3005135c:	e50b1014 	str	r1, [fp, #-20]
30051360:	e50b2018 	str	r2, [fp, #-24]
	unsigned index = 0;
30051364:	e3a03000 	mov	r3, #0	; 0x0
30051368:	e50b300c 	str	r3, [fp, #-12]
	char* dest_string_temp = dest_string;
3005136c:	e51b3010 	ldr	r3, [fp, #-16]
30051370:	e50b3008 	str	r3, [fp, #-8]
	
	if(dest_string != NULL)
30051374:	e51b3010 	ldr	r3, [fp, #-16]
30051378:	e3530000 	cmp	r3, #0	; 0x0
3005137c:	0a000010 	beq	300513c4 <memset+0x78>
	{
		for(index = 0; index < length; index++)
30051380:	e3a03000 	mov	r3, #0	; 0x0
30051384:	e50b300c 	str	r3, [fp, #-12]
30051388:	ea000009 	b	300513b4 <memset+0x68>
		{
			*dest_string_temp = set_char;
3005138c:	e51b3014 	ldr	r3, [fp, #-20]
30051390:	e20330ff 	and	r3, r3, #255	; 0xff
30051394:	e51b2008 	ldr	r2, [fp, #-8]
30051398:	e5c23000 	strb	r3, [r2]
			dest_string_temp++;
3005139c:	e51b3008 	ldr	r3, [fp, #-8]
300513a0:	e2833001 	add	r3, r3, #1	; 0x1
300513a4:	e50b3008 	str	r3, [fp, #-8]
	unsigned index = 0;
	char* dest_string_temp = dest_string;
	
	if(dest_string != NULL)
	{
		for(index = 0; index < length; index++)
300513a8:	e51b300c 	ldr	r3, [fp, #-12]
300513ac:	e2833001 	add	r3, r3, #1	; 0x1
300513b0:	e50b300c 	str	r3, [fp, #-12]
300513b4:	e51b200c 	ldr	r2, [fp, #-12]
300513b8:	e51b3018 	ldr	r3, [fp, #-24]
300513bc:	e1520003 	cmp	r2, r3
300513c0:	3afffff1 	bcc	3005138c <memset+0x40>
		{
			*dest_string_temp = set_char;
			dest_string_temp++;
		}
	}
}
300513c4:	e28bd000 	add	sp, fp, #0	; 0x0
300513c8:	e8bd0800 	pop	{fp}
300513cc:	e12fff1e 	bx	lr

300513d0 <clean_string_prox>:
Function Name:  		clean_string_prox
Input Paramater:		dest_string
Function Description:	Delete control char on the end of string
************************************************************************/
void clean_string_prox(char* dest_string)
{
300513d0:	e52db004 	push	{fp}		; (str fp, [sp, #-4]!)
300513d4:	e28db000 	add	fp, sp, #0	; 0x0
300513d8:	e24dd014 	sub	sp, sp, #20	; 0x14
300513dc:	e50b0010 	str	r0, [fp, #-16]
	int str_index = 0;
300513e0:	e3a03000 	mov	r3, #0	; 0x0
300513e4:	e50b3008 	str	r3, [fp, #-8]

	if(dest_string != NULL && dest_string[0] == '-' && dest_string[1] == '-')
300513e8:	e51b3010 	ldr	r3, [fp, #-16]
300513ec:	e3530000 	cmp	r3, #0	; 0x0
300513f0:	0a000026 	beq	30051490 <clean_string_prox+0xc0>
300513f4:	e51b3010 	ldr	r3, [fp, #-16]
300513f8:	e5d33000 	ldrb	r3, [r3]
300513fc:	e353002d 	cmp	r3, #45	; 0x2d
30051400:	1a000022 	bne	30051490 <clean_string_prox+0xc0>
30051404:	e51b3010 	ldr	r3, [fp, #-16]
30051408:	e2833001 	add	r3, r3, #1	; 0x1
3005140c:	e5d33000 	ldrb	r3, [r3]
30051410:	e353002d 	cmp	r3, #45	; 0x2d
30051414:	1a00001d 	bne	30051490 <clean_string_prox+0xc0>
30051418:	ea000015 	b	30051474 <clean_string_prox+0xa4>
	{
		while(dest_string[str_index + 2] != '\0')
		{
			dest_string[str_index] = dest_string[str_index + 1];
3005141c:	e51b2008 	ldr	r2, [fp, #-8]
30051420:	e51b3010 	ldr	r3, [fp, #-16]
30051424:	e0831002 	add	r1, r3, r2
30051428:	e51b3008 	ldr	r3, [fp, #-8]
3005142c:	e2832001 	add	r2, r3, #1	; 0x1
30051430:	e51b3010 	ldr	r3, [fp, #-16]
30051434:	e0833002 	add	r3, r3, r2
30051438:	e5d33000 	ldrb	r3, [r3]
3005143c:	e5c13000 	strb	r3, [r1]
			dest_string[str_index + 1] = dest_string[str_index + 2];
30051440:	e51b3008 	ldr	r3, [fp, #-8]
30051444:	e2832001 	add	r2, r3, #1	; 0x1
30051448:	e51b3010 	ldr	r3, [fp, #-16]
3005144c:	e0831002 	add	r1, r3, r2
30051450:	e51b3008 	ldr	r3, [fp, #-8]
30051454:	e2832002 	add	r2, r3, #2	; 0x2
30051458:	e51b3010 	ldr	r3, [fp, #-16]
3005145c:	e0833002 	add	r3, r3, r2
30051460:	e5d33000 	ldrb	r3, [r3]
30051464:	e5c13000 	strb	r3, [r1]
			str_index++;
30051468:	e51b3008 	ldr	r3, [fp, #-8]
3005146c:	e2833001 	add	r3, r3, #1	; 0x1
30051470:	e50b3008 	str	r3, [fp, #-8]
{
	int str_index = 0;

	if(dest_string != NULL && dest_string[0] == '-' && dest_string[1] == '-')
	{
		while(dest_string[str_index + 2] != '\0')
30051474:	e51b3008 	ldr	r3, [fp, #-8]
30051478:	e2832002 	add	r2, r3, #2	; 0x2
3005147c:	e51b3010 	ldr	r3, [fp, #-16]
30051480:	e0833002 	add	r3, r3, r2
30051484:	e5d33000 	ldrb	r3, [r3]
30051488:	e3530000 	cmp	r3, #0	; 0x0
3005148c:	1affffe2 	bne	3005141c <clean_string_prox+0x4c>
			dest_string[str_index] = dest_string[str_index + 1];
			dest_string[str_index + 1] = dest_string[str_index + 2];
			str_index++;
		}
	}
}
30051490:	e28bd000 	add	sp, fp, #0	; 0x0
30051494:	e8bd0800 	pop	{fp}
30051498:	e12fff1e 	bx	lr

3005149c <string_to_int>:
Function Name:  		string_to_int
Input Paramater:		source_string
Function Description:	Convert string to int value
************************************************************************/
int string_to_int(char* source_string)
{
3005149c:	e92d4800 	push	{fp, lr}
300514a0:	e28db004 	add	fp, sp, #4	; 0x4
300514a4:	e24dd018 	sub	sp, sp, #24	; 0x18
300514a8:	e50b0018 	str	r0, [fp, #-24]
	int ret = 0;
300514ac:	e3a03000 	mov	r3, #0	; 0x0
300514b0:	e50b3014 	str	r3, [fp, #-20]
	int str_index = 0;
300514b4:	e3a03000 	mov	r3, #0	; 0x0
300514b8:	e50b3010 	str	r3, [fp, #-16]
	int string_length = strlen(source_string);
300514bc:	e51b0018 	ldr	r0, [fp, #-24]
300514c0:	ebffff27 	bl	30051164 <strlen>
300514c4:	e1a03000 	mov	r3, r0
300514c8:	e50b300c 	str	r3, [fp, #-12]
	int first_valid_bit = 0;			//If the last char not number, 
300514cc:	e3a03000 	mov	r3, #0	; 0x0
300514d0:	e50b3008 	str	r3, [fp, #-8]

	//Flag first valid bit
	for(str_index = string_length - 1; str_index >= 0; str_index--)
300514d4:	e51b300c 	ldr	r3, [fp, #-12]
300514d8:	e2433001 	sub	r3, r3, #1	; 0x1
300514dc:	e50b3010 	str	r3, [fp, #-16]
300514e0:	ea000014 	b	30051538 <string_to_int+0x9c>
	{
		if('0' <= source_string[str_index] && source_string[str_index] <= '9')
300514e4:	e51b2010 	ldr	r2, [fp, #-16]
300514e8:	e51b3018 	ldr	r3, [fp, #-24]
300514ec:	e0833002 	add	r3, r3, r2
300514f0:	e5d33000 	ldrb	r3, [r3]
300514f4:	e353002f 	cmp	r3, #47	; 0x2f
300514f8:	9a00000b 	bls	3005152c <string_to_int+0x90>
300514fc:	e51b2010 	ldr	r2, [fp, #-16]
30051500:	e51b3018 	ldr	r3, [fp, #-24]
30051504:	e0833002 	add	r3, r3, r2
30051508:	e5d33000 	ldrb	r3, [r3]
3005150c:	e3530039 	cmp	r3, #57	; 0x39
30051510:	8a000005 	bhi	3005152c <string_to_int+0x90>
		{
			first_valid_bit = string_length - 1 - str_index;
30051514:	e51b300c 	ldr	r3, [fp, #-12]
30051518:	e2432001 	sub	r2, r3, #1	; 0x1
3005151c:	e51b3010 	ldr	r3, [fp, #-16]
30051520:	e0633002 	rsb	r3, r3, r2
30051524:	e50b3008 	str	r3, [fp, #-8]
30051528:	ea000005 	b	30051544 <string_to_int+0xa8>
	int str_index = 0;
	int string_length = strlen(source_string);
	int first_valid_bit = 0;			//If the last char not number, 

	//Flag first valid bit
	for(str_index = string_length - 1; str_index >= 0; str_index--)
3005152c:	e51b3010 	ldr	r3, [fp, #-16]
30051530:	e2433001 	sub	r3, r3, #1	; 0x1
30051534:	e50b3010 	str	r3, [fp, #-16]
30051538:	e51b3010 	ldr	r3, [fp, #-16]
3005153c:	e3530000 	cmp	r3, #0	; 0x0
30051540:	aaffffe7 	bge	300514e4 <string_to_int+0x48>
			first_valid_bit = string_length - 1 - str_index;
			break;
		}
	}
	
	for(str_index = string_length - 1; str_index >= 0; str_index--)
30051544:	e51b300c 	ldr	r3, [fp, #-12]
30051548:	e2433001 	sub	r3, r3, #1	; 0x1
3005154c:	e50b3010 	str	r3, [fp, #-16]
30051550:	ea000021 	b	300515dc <string_to_int+0x140>
	{
		if('0' <= source_string[str_index] && source_string[str_index] <= '9')
30051554:	e51b2010 	ldr	r2, [fp, #-16]
30051558:	e51b3018 	ldr	r3, [fp, #-24]
3005155c:	e0833002 	add	r3, r3, r2
30051560:	e5d33000 	ldrb	r3, [r3]
30051564:	e353002f 	cmp	r3, #47	; 0x2f
30051568:	9a000018 	bls	300515d0 <string_to_int+0x134>
3005156c:	e51b2010 	ldr	r2, [fp, #-16]
30051570:	e51b3018 	ldr	r3, [fp, #-24]
30051574:	e0833002 	add	r3, r3, r2
30051578:	e5d33000 	ldrb	r3, [r3]
3005157c:	e3530039 	cmp	r3, #57	; 0x39
30051580:	8a000012 	bhi	300515d0 <string_to_int+0x134>
		{
			ret = ret + caculate_power(10, string_length - 1 - str_index - first_valid_bit) 
30051584:	e51b300c 	ldr	r3, [fp, #-12]
30051588:	e2432001 	sub	r2, r3, #1	; 0x1
3005158c:	e51b3010 	ldr	r3, [fp, #-16]
30051590:	e0632002 	rsb	r2, r3, r2
30051594:	e51b3008 	ldr	r3, [fp, #-8]
30051598:	e0633002 	rsb	r3, r3, r2
3005159c:	e3a0000a 	mov	r0, #10	; 0xa
300515a0:	e1a01003 	mov	r1, r3
300515a4:	ebfffe67 	bl	30050f48 <caculate_power>
300515a8:	e1a01000 	mov	r1, r0
300515ac:	e51b2010 	ldr	r2, [fp, #-16]
300515b0:	e51b3018 	ldr	r3, [fp, #-24]
300515b4:	e0833002 	add	r3, r3, r2
300515b8:	e5d33000 	ldrb	r3, [r3]
300515bc:	e2433030 	sub	r3, r3, #48	; 0x30
300515c0:	e0020193 	mul	r2, r3, r1
300515c4:	e51b3014 	ldr	r3, [fp, #-20]
300515c8:	e0833002 	add	r3, r3, r2
300515cc:	e50b3014 	str	r3, [fp, #-20]
			first_valid_bit = string_length - 1 - str_index;
			break;
		}
	}
	
	for(str_index = string_length - 1; str_index >= 0; str_index--)
300515d0:	e51b3010 	ldr	r3, [fp, #-16]
300515d4:	e2433001 	sub	r3, r3, #1	; 0x1
300515d8:	e50b3010 	str	r3, [fp, #-16]
300515dc:	e51b3010 	ldr	r3, [fp, #-16]
300515e0:	e3530000 	cmp	r3, #0	; 0x0
300515e4:	aaffffda 	bge	30051554 <string_to_int+0xb8>
			ret = ret + caculate_power(10, string_length - 1 - str_index - first_valid_bit) 
				* (source_string[str_index] - '0');
		}
	}
	
	return ret;
300515e8:	e51b3014 	ldr	r3, [fp, #-20]
}
300515ec:	e1a00003 	mov	r0, r3
300515f0:	e24bd004 	sub	sp, fp, #4	; 0x4
300515f4:	e8bd4800 	pop	{fp, lr}
300515f8:	e12fff1e 	bx	lr

300515fc <hex_string_to_int>:
Function Name:  		hex_string_to_int
Input Paramater:		source_string
Function Description:	Convert string to int value
************************************************************************/
int hex_string_to_int(char* source_string)
{
300515fc:	e92d4800 	push	{fp, lr}
30051600:	e28db004 	add	fp, sp, #4	; 0x4
30051604:	e24dd018 	sub	sp, sp, #24	; 0x18
30051608:	e50b0018 	str	r0, [fp, #-24]
	int ret = 0;
3005160c:	e3a03000 	mov	r3, #0	; 0x0
30051610:	e50b3014 	str	r3, [fp, #-20]
	int str_index = 0;
30051614:	e3a03000 	mov	r3, #0	; 0x0
30051618:	e50b3010 	str	r3, [fp, #-16]
	int string_length = strlen(source_string);
3005161c:	e51b0018 	ldr	r0, [fp, #-24]
30051620:	ebfffecf 	bl	30051164 <strlen>
30051624:	e1a03000 	mov	r3, r0
30051628:	e50b300c 	str	r3, [fp, #-12]
	int first_valid_bit = 0;			//If the last char not number, 
3005162c:	e3a03000 	mov	r3, #0	; 0x0
30051630:	e50b3008 	str	r3, [fp, #-8]
	

	//Flag first valid bit
	for(str_index = string_length - 1; str_index >= 0; str_index--)
30051634:	e51b300c 	ldr	r3, [fp, #-12]
30051638:	e2433001 	sub	r3, r3, #1	; 0x1
3005163c:	e50b3010 	str	r3, [fp, #-16]
30051640:	ea00002c 	b	300516f8 <hex_string_to_int+0xfc>
	{
		if(('0' <= source_string[str_index] && source_string[str_index] <= '9') ||
30051644:	e51b2010 	ldr	r2, [fp, #-16]
30051648:	e51b3018 	ldr	r3, [fp, #-24]
3005164c:	e0833002 	add	r3, r3, r2
30051650:	e5d33000 	ldrb	r3, [r3]
30051654:	e353002f 	cmp	r3, #47	; 0x2f
30051658:	9a000005 	bls	30051674 <hex_string_to_int+0x78>
3005165c:	e51b2010 	ldr	r2, [fp, #-16]
30051660:	e51b3018 	ldr	r3, [fp, #-24]
30051664:	e0833002 	add	r3, r3, r2
30051668:	e5d33000 	ldrb	r3, [r3]
3005166c:	e3530039 	cmp	r3, #57	; 0x39
30051670:	9a000017 	bls	300516d4 <hex_string_to_int+0xd8>
30051674:	e51b2010 	ldr	r2, [fp, #-16]
30051678:	e51b3018 	ldr	r3, [fp, #-24]
3005167c:	e0833002 	add	r3, r3, r2
30051680:	e5d33000 	ldrb	r3, [r3]
30051684:	e3530060 	cmp	r3, #96	; 0x60
30051688:	9a000005 	bls	300516a4 <hex_string_to_int+0xa8>
3005168c:	e51b2010 	ldr	r2, [fp, #-16]
30051690:	e51b3018 	ldr	r3, [fp, #-24]
30051694:	e0833002 	add	r3, r3, r2
30051698:	e5d33000 	ldrb	r3, [r3]
3005169c:	e3530066 	cmp	r3, #102	; 0x66
300516a0:	9a00000b 	bls	300516d4 <hex_string_to_int+0xd8>
300516a4:	e51b2010 	ldr	r2, [fp, #-16]
300516a8:	e51b3018 	ldr	r3, [fp, #-24]
300516ac:	e0833002 	add	r3, r3, r2
300516b0:	e5d33000 	ldrb	r3, [r3]
300516b4:	e3530040 	cmp	r3, #64	; 0x40
300516b8:	9a00000b 	bls	300516ec <hex_string_to_int+0xf0>
300516bc:	e51b2010 	ldr	r2, [fp, #-16]
300516c0:	e51b3018 	ldr	r3, [fp, #-24]
300516c4:	e0833002 	add	r3, r3, r2
300516c8:	e5d33000 	ldrb	r3, [r3]
300516cc:	e3530046 	cmp	r3, #70	; 0x46
300516d0:	8a000005 	bhi	300516ec <hex_string_to_int+0xf0>
			('a' <= source_string[str_index] && source_string[str_index] <= 'f') ||
			('A' <= source_string[str_index] && source_string[str_index] <= 'F'))
		{
			first_valid_bit = string_length - 1 - str_index;
300516d4:	e51b300c 	ldr	r3, [fp, #-12]
300516d8:	e2432001 	sub	r2, r3, #1	; 0x1
300516dc:	e51b3010 	ldr	r3, [fp, #-16]
300516e0:	e0633002 	rsb	r3, r3, r2
300516e4:	e50b3008 	str	r3, [fp, #-8]
300516e8:	ea000005 	b	30051704 <hex_string_to_int+0x108>
	int string_length = strlen(source_string);
	int first_valid_bit = 0;			//If the last char not number, 
	

	//Flag first valid bit
	for(str_index = string_length - 1; str_index >= 0; str_index--)
300516ec:	e51b3010 	ldr	r3, [fp, #-16]
300516f0:	e2433001 	sub	r3, r3, #1	; 0x1
300516f4:	e50b3010 	str	r3, [fp, #-16]
300516f8:	e51b3010 	ldr	r3, [fp, #-16]
300516fc:	e3530000 	cmp	r3, #0	; 0x0
30051700:	aaffffcf 	bge	30051644 <hex_string_to_int+0x48>
			first_valid_bit = string_length - 1 - str_index;
			break;
		}
	}
	
	for(str_index = string_length - 1; str_index >= 0; str_index--)
30051704:	e51b300c 	ldr	r3, [fp, #-12]
30051708:	e2433001 	sub	r3, r3, #1	; 0x1
3005170c:	e50b3010 	str	r3, [fp, #-16]
30051710:	ea000061 	b	3005189c <hex_string_to_int+0x2a0>
	{
		if('0' <= source_string[str_index] && source_string[str_index] <= '9')
30051714:	e51b2010 	ldr	r2, [fp, #-16]
30051718:	e51b3018 	ldr	r3, [fp, #-24]
3005171c:	e0833002 	add	r3, r3, r2
30051720:	e5d33000 	ldrb	r3, [r3]
30051724:	e353002f 	cmp	r3, #47	; 0x2f
30051728:	9a000019 	bls	30051794 <hex_string_to_int+0x198>
3005172c:	e51b2010 	ldr	r2, [fp, #-16]
30051730:	e51b3018 	ldr	r3, [fp, #-24]
30051734:	e0833002 	add	r3, r3, r2
30051738:	e5d33000 	ldrb	r3, [r3]
3005173c:	e3530039 	cmp	r3, #57	; 0x39
30051740:	8a000013 	bhi	30051794 <hex_string_to_int+0x198>
		{
			ret = ret + caculate_power(16, string_length - 1 - str_index - first_valid_bit) 
30051744:	e51b300c 	ldr	r3, [fp, #-12]
30051748:	e2432001 	sub	r2, r3, #1	; 0x1
3005174c:	e51b3010 	ldr	r3, [fp, #-16]
30051750:	e0632002 	rsb	r2, r3, r2
30051754:	e51b3008 	ldr	r3, [fp, #-8]
30051758:	e0633002 	rsb	r3, r3, r2
3005175c:	e3a00010 	mov	r0, #16	; 0x10
30051760:	e1a01003 	mov	r1, r3
30051764:	ebfffdf7 	bl	30050f48 <caculate_power>
30051768:	e1a01000 	mov	r1, r0
3005176c:	e51b2010 	ldr	r2, [fp, #-16]
30051770:	e51b3018 	ldr	r3, [fp, #-24]
30051774:	e0833002 	add	r3, r3, r2
30051778:	e5d33000 	ldrb	r3, [r3]
3005177c:	e2433030 	sub	r3, r3, #48	; 0x30
30051780:	e0020193 	mul	r2, r3, r1
30051784:	e51b3014 	ldr	r3, [fp, #-20]
30051788:	e0833002 	add	r3, r3, r2
3005178c:	e50b3014 	str	r3, [fp, #-20]
30051790:	ea00003e 	b	30051890 <hex_string_to_int+0x294>
				* (source_string[str_index] - '0');
		}
		else if(('a' <= source_string[str_index] && source_string[str_index] <= 'f'))
30051794:	e51b2010 	ldr	r2, [fp, #-16]
30051798:	e51b3018 	ldr	r3, [fp, #-24]
3005179c:	e0833002 	add	r3, r3, r2
300517a0:	e5d33000 	ldrb	r3, [r3]
300517a4:	e3530060 	cmp	r3, #96	; 0x60
300517a8:	9a000019 	bls	30051814 <hex_string_to_int+0x218>
300517ac:	e51b2010 	ldr	r2, [fp, #-16]
300517b0:	e51b3018 	ldr	r3, [fp, #-24]
300517b4:	e0833002 	add	r3, r3, r2
300517b8:	e5d33000 	ldrb	r3, [r3]
300517bc:	e3530066 	cmp	r3, #102	; 0x66
300517c0:	8a000013 	bhi	30051814 <hex_string_to_int+0x218>
		{
			ret = ret + caculate_power(16, string_length - 1 - str_index - first_valid_bit) 
300517c4:	e51b300c 	ldr	r3, [fp, #-12]
300517c8:	e2432001 	sub	r2, r3, #1	; 0x1
300517cc:	e51b3010 	ldr	r3, [fp, #-16]
300517d0:	e0632002 	rsb	r2, r3, r2
300517d4:	e51b3008 	ldr	r3, [fp, #-8]
300517d8:	e0633002 	rsb	r3, r3, r2
300517dc:	e3a00010 	mov	r0, #16	; 0x10
300517e0:	e1a01003 	mov	r1, r3
300517e4:	ebfffdd7 	bl	30050f48 <caculate_power>
300517e8:	e1a01000 	mov	r1, r0
300517ec:	e51b2010 	ldr	r2, [fp, #-16]
300517f0:	e51b3018 	ldr	r3, [fp, #-24]
300517f4:	e0833002 	add	r3, r3, r2
300517f8:	e5d33000 	ldrb	r3, [r3]
300517fc:	e2433057 	sub	r3, r3, #87	; 0x57
30051800:	e0020193 	mul	r2, r3, r1
30051804:	e51b3014 	ldr	r3, [fp, #-20]
30051808:	e0833002 	add	r3, r3, r2
3005180c:	e50b3014 	str	r3, [fp, #-20]
30051810:	ea00001e 	b	30051890 <hex_string_to_int+0x294>
				* (source_string[str_index] - 'a' + 10);
		}
		else if('A' <= source_string[str_index] && source_string[str_index] <= 'F')
30051814:	e51b2010 	ldr	r2, [fp, #-16]
30051818:	e51b3018 	ldr	r3, [fp, #-24]
3005181c:	e0833002 	add	r3, r3, r2
30051820:	e5d33000 	ldrb	r3, [r3]
30051824:	e3530040 	cmp	r3, #64	; 0x40
30051828:	9a000018 	bls	30051890 <hex_string_to_int+0x294>
3005182c:	e51b2010 	ldr	r2, [fp, #-16]
30051830:	e51b3018 	ldr	r3, [fp, #-24]
30051834:	e0833002 	add	r3, r3, r2
30051838:	e5d33000 	ldrb	r3, [r3]
3005183c:	e3530046 	cmp	r3, #70	; 0x46
30051840:	8a000012 	bhi	30051890 <hex_string_to_int+0x294>
		{
			ret = ret + caculate_power(16, string_length - 1 - str_index - first_valid_bit) 
30051844:	e51b300c 	ldr	r3, [fp, #-12]
30051848:	e2432001 	sub	r2, r3, #1	; 0x1
3005184c:	e51b3010 	ldr	r3, [fp, #-16]
30051850:	e0632002 	rsb	r2, r3, r2
30051854:	e51b3008 	ldr	r3, [fp, #-8]
30051858:	e0633002 	rsb	r3, r3, r2
3005185c:	e3a00010 	mov	r0, #16	; 0x10
30051860:	e1a01003 	mov	r1, r3
30051864:	ebfffdb7 	bl	30050f48 <caculate_power>
30051868:	e1a01000 	mov	r1, r0
3005186c:	e51b2010 	ldr	r2, [fp, #-16]
30051870:	e51b3018 	ldr	r3, [fp, #-24]
30051874:	e0833002 	add	r3, r3, r2
30051878:	e5d33000 	ldrb	r3, [r3]
3005187c:	e2433037 	sub	r3, r3, #55	; 0x37
30051880:	e0020193 	mul	r2, r3, r1
30051884:	e51b3014 	ldr	r3, [fp, #-20]
30051888:	e0833002 	add	r3, r3, r2
3005188c:	e50b3014 	str	r3, [fp, #-20]
			first_valid_bit = string_length - 1 - str_index;
			break;
		}
	}
	
	for(str_index = string_length - 1; str_index >= 0; str_index--)
30051890:	e51b3010 	ldr	r3, [fp, #-16]
30051894:	e2433001 	sub	r3, r3, #1	; 0x1
30051898:	e50b3010 	str	r3, [fp, #-16]
3005189c:	e51b3010 	ldr	r3, [fp, #-16]
300518a0:	e3530000 	cmp	r3, #0	; 0x0
300518a4:	aaffff9a 	bge	30051714 <hex_string_to_int+0x118>
			ret = ret + caculate_power(16, string_length - 1 - str_index - first_valid_bit) 
				* (source_string[str_index] - 'A' + 10);
		}
	}
	
	return ret;
300518a8:	e51b3014 	ldr	r3, [fp, #-20]
}
300518ac:	e1a00003 	mov	r0, r3
300518b0:	e24bd004 	sub	sp, fp, #4	; 0x4
300518b4:	e8bd4800 	pop	{fp, lr}
300518b8:	e12fff1e 	bx	lr

300518bc <GetoptInit>:
#include "GetoptTemp.h"

int optInd;

void GetoptInit()
{
300518bc:	e52db004 	push	{fp}		; (str fp, [sp, #-4]!)
300518c0:	e28db000 	add	fp, sp, #0	; 0x0
	optInd = 0;
300518c4:	e59f2010 	ldr	r2, [pc, #16]	; 300518dc <GetoptInit+0x20>
300518c8:	e3a03000 	mov	r3, #0	; 0x0
300518cc:	e5823000 	str	r3, [r2]
}
300518d0:	e28bd000 	add	sp, fp, #0	; 0x0
300518d4:	e8bd0800 	pop	{fp}
300518d8:	e12fff1e 	bx	lr
300518dc:	3006466c 	.word	0x3006466c

300518e0 <Getopt>:

char Getopt(int argc, char (*argv)[MAX_COMMAND_LENGTH], const char *shortopts)
{
300518e0:	e52db004 	push	{fp}		; (str fp, [sp, #-4]!)
300518e4:	e28db000 	add	fp, sp, #0	; 0x0
300518e8:	e24dd01c 	sub	sp, sp, #28	; 0x1c
300518ec:	e50b0010 	str	r0, [fp, #-16]
300518f0:	e50b1014 	str	r1, [fp, #-20]
300518f4:	e50b2018 	str	r2, [fp, #-24]
	int index = 0;
300518f8:	e3a03000 	mov	r3, #0	; 0x0
300518fc:	e50b300c 	str	r3, [fp, #-12]
	char ret = 0;
30051900:	e3a03000 	mov	r3, #0	; 0x0
30051904:	e54b3005 	strb	r3, [fp, #-5]
	
	for(index = optInd; index < argc; index++)
30051908:	e59f30cc 	ldr	r3, [pc, #204]	; 300519dc <Getopt+0xfc>
3005190c:	e5933000 	ldr	r3, [r3]
30051910:	e50b300c 	str	r3, [fp, #-12]
30051914:	ea000027 	b	300519b8 <Getopt+0xd8>
	{
		if(argv[index][0] == '-')
30051918:	e51b300c 	ldr	r3, [fp, #-12]
3005191c:	e1a02083 	lsl	r2, r3, #1
30051920:	e1a03102 	lsl	r3, r2, #2
30051924:	e0822003 	add	r2, r2, r3
30051928:	e51b3014 	ldr	r3, [fp, #-20]
3005192c:	e0833002 	add	r3, r3, r2
30051930:	e5d33000 	ldrb	r3, [r3]
30051934:	e353002d 	cmp	r3, #45	; 0x2d
30051938:	1a00001b 	bne	300519ac <Getopt+0xcc>
3005193c:	ea000015 	b	30051998 <Getopt+0xb8>
		{
			while(*shortopts)
			{
				if(argv[index][1] == *shortopts)
30051940:	e51b300c 	ldr	r3, [fp, #-12]
30051944:	e1a02083 	lsl	r2, r3, #1
30051948:	e1a03102 	lsl	r3, r2, #2
3005194c:	e0822003 	add	r2, r2, r3
30051950:	e51b3014 	ldr	r3, [fp, #-20]
30051954:	e0833002 	add	r3, r3, r2
30051958:	e5d32001 	ldrb	r2, [r3, #1]
3005195c:	e51b3018 	ldr	r3, [fp, #-24]
30051960:	e5d33000 	ldrb	r3, [r3]
30051964:	e1520003 	cmp	r2, r3
30051968:	1a000007 	bne	3005198c <Getopt+0xac>
				{
					ret = *shortopts;
3005196c:	e51b3018 	ldr	r3, [fp, #-24]
30051970:	e5d33000 	ldrb	r3, [r3]
30051974:	e54b3005 	strb	r3, [fp, #-5]
					optInd = index + 1;
30051978:	e51b300c 	ldr	r3, [fp, #-12]
3005197c:	e2832001 	add	r2, r3, #1	; 0x1
30051980:	e59f3054 	ldr	r3, [pc, #84]	; 300519dc <Getopt+0xfc>
30051984:	e5832000 	str	r2, [r3]
30051988:	ea00000e 	b	300519c8 <Getopt+0xe8>
					break;
				}
				
				shortopts++;
3005198c:	e51b3018 	ldr	r3, [fp, #-24]
30051990:	e2833001 	add	r3, r3, #1	; 0x1
30051994:	e50b3018 	str	r3, [fp, #-24]
	
	for(index = optInd; index < argc; index++)
	{
		if(argv[index][0] == '-')
		{
			while(*shortopts)
30051998:	e51b3018 	ldr	r3, [fp, #-24]
3005199c:	e5d33000 	ldrb	r3, [r3]
300519a0:	e3530000 	cmp	r3, #0	; 0x0
300519a4:	1affffe5 	bne	30051940 <Getopt+0x60>
300519a8:	ea000006 	b	300519c8 <Getopt+0xe8>
char Getopt(int argc, char (*argv)[MAX_COMMAND_LENGTH], const char *shortopts)
{
	int index = 0;
	char ret = 0;
	
	for(index = optInd; index < argc; index++)
300519ac:	e51b300c 	ldr	r3, [fp, #-12]
300519b0:	e2833001 	add	r3, r3, #1	; 0x1
300519b4:	e50b300c 	str	r3, [fp, #-12]
300519b8:	e51b200c 	ldr	r2, [fp, #-12]
300519bc:	e51b3010 	ldr	r3, [fp, #-16]
300519c0:	e1520003 	cmp	r2, r3
300519c4:	baffffd3 	blt	30051918 <Getopt+0x38>
			}
			break;
		}
	}
	
	return ret;
300519c8:	e55b3005 	ldrb	r3, [fp, #-5]
}
300519cc:	e1a00003 	mov	r0, r3
300519d0:	e28bd000 	add	sp, fp, #0	; 0x0
300519d4:	e8bd0800 	pop	{fp}
300519d8:	e12fff1e 	bx	lr
300519dc:	3006466c 	.word	0x3006466c

300519e0 <ErrorCheck>:
#include "Error.h"
#include "Uart.h"

void ErrorCheck(MINI2440_STATUS mini2440Status)
{
300519e0:	e92d4800 	push	{fp, lr}
300519e4:	e28db004 	add	fp, sp, #4	; 0x4
300519e8:	e24dd008 	sub	sp, sp, #8	; 0x8
300519ec:	e50b0008 	str	r0, [fp, #-8]
	switch(mini2440Status)
300519f0:	e51b3008 	ldr	r3, [fp, #-8]
300519f4:	e50b300c 	str	r3, [fp, #-12]
300519f8:	e51b300c 	ldr	r3, [fp, #-12]
300519fc:	e3530000 	cmp	r3, #0	; 0x0
30051a00:	0a000003 	beq	30051a14 <ErrorCheck+0x34>
30051a04:	e51b300c 	ldr	r3, [fp, #-12]
30051a08:	e3530001 	cmp	r3, #1	; 0x1
30051a0c:	0a000003 	beq	30051a20 <ErrorCheck+0x40>
30051a10:	ea000005 	b	30051a2c <ErrorCheck+0x4c>
	{
		case MINI2440_SUCCESS:
			print_string("Success\n");
30051a14:	e59f0024 	ldr	r0, [pc, #36]	; 30051a40 <ErrorCheck+0x60>
30051a18:	eb000957 	bl	30053f7c <print_string>
30051a1c:	ea000004 	b	30051a34 <ErrorCheck+0x54>
			break;
		case MINI2440_INVALID_PARAMETER:
			print_string("Invalid parameter\n");
30051a20:	e59f001c 	ldr	r0, [pc, #28]	; 30051a44 <ErrorCheck+0x64>
30051a24:	eb000954 	bl	30053f7c <print_string>
30051a28:	ea000001 	b	30051a34 <ErrorCheck+0x54>
			break;
		default:
			print_string("Other error\n");
30051a2c:	e59f0014 	ldr	r0, [pc, #20]	; 30051a48 <ErrorCheck+0x68>
30051a30:	eb000951 	bl	30053f7c <print_string>
			break;
	}
}
30051a34:	e24bd004 	sub	sp, fp, #4	; 0x4
30051a38:	e8bd4800 	pop	{fp, lr}
30051a3c:	e12fff1e 	bx	lr
30051a40:	3005be4c 	.word	0x3005be4c
30051a44:	3005be58 	.word	0x3005be58
30051a48:	3005be6c 	.word	0x3005be6c

30051a4c <malloc>:
#include "Malloc.h"

MALLOC gMallocPool[MALLOC_MAX_SIZE] = {0};

void* malloc(int length)
{
30051a4c:	e92d4800 	push	{fp, lr}
30051a50:	e28db004 	add	fp, sp, #4	; 0x4
30051a54:	e24dd018 	sub	sp, sp, #24	; 0x18
30051a58:	e50b0010 	str	r0, [fp, #-16]
	void* ret = NULL;
30051a5c:	e3a03000 	mov	r3, #0	; 0x0
30051a60:	e50b300c 	str	r3, [fp, #-12]
	unsigned i = 0;
30051a64:	e3a03000 	mov	r3, #0	; 0x0
30051a68:	e50b3008 	str	r3, [fp, #-8]
	printf_string("&gMallocPool = %x\n\n", &gMallocPool);
30051a6c:	e59f010c 	ldr	r0, [pc, #268]	; 30051b80 <malloc+0x134>
30051a70:	e59f110c 	ldr	r1, [pc, #268]	; 30051b84 <malloc+0x138>
30051a74:	eb000c92 	bl	30054cc4 <printf_string>
	
	if(length > MALLOC_POOL_SIZE)
30051a78:	e51b3010 	ldr	r3, [fp, #-16]
30051a7c:	e3530064 	cmp	r3, #100	; 0x64
30051a80:	da000004 	ble	30051a98 <malloc+0x4c>
	{
		print_string("Malloc length > MALLOC_POOL_SIZE, malloc fail\n");
30051a84:	e59f00fc 	ldr	r0, [pc, #252]	; 30051b88 <malloc+0x13c>
30051a88:	eb00093b 	bl	30053f7c <print_string>
		return ret;
30051a8c:	e51b100c 	ldr	r1, [fp, #-12]
30051a90:	e50b1014 	str	r1, [fp, #-20]
30051a94:	ea000034 	b	30051b6c <malloc+0x120>
	}
	
	for(i = 0; i < MALLOC_MAX_SIZE; i++)
30051a98:	e3a03000 	mov	r3, #0	; 0x0
30051a9c:	e50b3008 	str	r3, [fp, #-8]
30051aa0:	ea00002c 	b	30051b58 <malloc+0x10c>
	{
		if(gMallocPool[i].isFreed == 0)
30051aa4:	e51b1008 	ldr	r1, [fp, #-8]
30051aa8:	e59f00d4 	ldr	r0, [pc, #212]	; 30051b84 <malloc+0x138>
30051aac:	e1a03001 	mov	r3, r1
30051ab0:	e1a03103 	lsl	r3, r3, #2
30051ab4:	e1a02103 	lsl	r2, r3, #2
30051ab8:	e0833002 	add	r3, r3, r2
30051abc:	e1a02103 	lsl	r2, r3, #2
30051ac0:	e0833002 	add	r3, r3, r2
30051ac4:	e0833001 	add	r3, r3, r1
30051ac8:	e0803003 	add	r3, r0, r3
30051acc:	e5d33000 	ldrb	r3, [r3]
30051ad0:	e3530000 	cmp	r3, #0	; 0x0
30051ad4:	1a00001c 	bne	30051b4c <malloc+0x100>
		{
			gMallocPool[i].isFreed == 1;
30051ad8:	e51b2008 	ldr	r2, [fp, #-8]
30051adc:	e1a03002 	mov	r3, r2
30051ae0:	e1a03103 	lsl	r3, r3, #2
30051ae4:	e50b3018 	str	r3, [fp, #-24]
30051ae8:	e51b1018 	ldr	r1, [fp, #-24]
30051aec:	e1a03101 	lsl	r3, r1, #2
30051af0:	e51b1018 	ldr	r1, [fp, #-24]
30051af4:	e0811003 	add	r1, r1, r3
30051af8:	e50b1018 	str	r1, [fp, #-24]
30051afc:	e51b1018 	ldr	r1, [fp, #-24]
30051b00:	e1a03101 	lsl	r3, r1, #2
30051b04:	e51b1018 	ldr	r1, [fp, #-24]
30051b08:	e0811003 	add	r1, r1, r3
30051b0c:	e50b1018 	str	r1, [fp, #-24]
30051b10:	e51b3018 	ldr	r3, [fp, #-24]
30051b14:	e0833002 	add	r3, r3, r2
			ret = gMallocPool[i].mallocPool;
30051b18:	e51b1008 	ldr	r1, [fp, #-8]
30051b1c:	e1a03001 	mov	r3, r1
30051b20:	e1a03103 	lsl	r3, r3, #2
30051b24:	e1a02103 	lsl	r2, r3, #2
30051b28:	e0833002 	add	r3, r3, r2
30051b2c:	e1a02103 	lsl	r2, r3, #2
30051b30:	e0833002 	add	r3, r3, r2
30051b34:	e0833001 	add	r3, r3, r1
30051b38:	e59f2044 	ldr	r2, [pc, #68]	; 30051b84 <malloc+0x138>
30051b3c:	e0833002 	add	r3, r3, r2
30051b40:	e2833001 	add	r3, r3, #1	; 0x1
30051b44:	e50b300c 	str	r3, [fp, #-12]
30051b48:	ea000005 	b	30051b64 <malloc+0x118>
	{
		print_string("Malloc length > MALLOC_POOL_SIZE, malloc fail\n");
		return ret;
	}
	
	for(i = 0; i < MALLOC_MAX_SIZE; i++)
30051b4c:	e51b3008 	ldr	r3, [fp, #-8]
30051b50:	e2833001 	add	r3, r3, #1	; 0x1
30051b54:	e50b3008 	str	r3, [fp, #-8]
30051b58:	e51b3008 	ldr	r3, [fp, #-8]
30051b5c:	e3530013 	cmp	r3, #19	; 0x13
30051b60:	9affffcf 	bls	30051aa4 <malloc+0x58>
			ret = gMallocPool[i].mallocPool;
			break;
		}
	}
	
	return ret;
30051b64:	e51b100c 	ldr	r1, [fp, #-12]
30051b68:	e50b1014 	str	r1, [fp, #-20]
30051b6c:	e51b3014 	ldr	r3, [fp, #-20]
}
30051b70:	e1a00003 	mov	r0, r3
30051b74:	e24bd004 	sub	sp, fp, #4	; 0x4
30051b78:	e8bd4800 	pop	{fp, lr}
30051b7c:	e12fff1e 	bx	lr
30051b80:	3005be7c 	.word	0x3005be7c
30051b84:	3005ee14 	.word	0x3005ee14
30051b88:	3005be90 	.word	0x3005be90

30051b8c <free>:

void free(void* ptr)
{
30051b8c:	e92d4800 	push	{fp, lr}
30051b90:	e28db004 	add	fp, sp, #4	; 0x4
30051b94:	e24dd010 	sub	sp, sp, #16	; 0x10
30051b98:	e50b0010 	str	r0, [fp, #-16]
	int i = 0;
30051b9c:	e3a03000 	mov	r3, #0	; 0x0
30051ba0:	e50b3008 	str	r3, [fp, #-8]
	
	if(ptr != NULL)
30051ba4:	e51b3010 	ldr	r3, [fp, #-16]
30051ba8:	e3530000 	cmp	r3, #0	; 0x0
30051bac:	0a000027 	beq	30051c50 <free+0xc4>
	{
		for(i = 0; i < MALLOC_MAX_SIZE; i++)
30051bb0:	e3a03000 	mov	r3, #0	; 0x0
30051bb4:	e50b3008 	str	r3, [fp, #-8]
30051bb8:	ea000020 	b	30051c40 <free+0xb4>
		{
			if(gMallocPool[i].mallocPool == ptr)
30051bbc:	e51b1008 	ldr	r1, [fp, #-8]
30051bc0:	e1a03001 	mov	r3, r1
30051bc4:	e1a03103 	lsl	r3, r3, #2
30051bc8:	e1a02103 	lsl	r2, r3, #2
30051bcc:	e0833002 	add	r3, r3, r2
30051bd0:	e1a02103 	lsl	r2, r3, #2
30051bd4:	e0833002 	add	r3, r3, r2
30051bd8:	e0833001 	add	r3, r3, r1
30051bdc:	e59f2080 	ldr	r2, [pc, #128]	; 30051c64 <free+0xd8>
30051be0:	e0833002 	add	r3, r3, r2
30051be4:	e2832001 	add	r2, r3, #1	; 0x1
30051be8:	e51b3010 	ldr	r3, [fp, #-16]
30051bec:	e1520003 	cmp	r2, r3
30051bf0:	1a00000f 	bne	30051c34 <free+0xa8>
			{
				gMallocPool[i].isFreed = 0;
30051bf4:	e51b1008 	ldr	r1, [fp, #-8]
30051bf8:	e59f0064 	ldr	r0, [pc, #100]	; 30051c64 <free+0xd8>
30051bfc:	e1a03001 	mov	r3, r1
30051c00:	e1a03103 	lsl	r3, r3, #2
30051c04:	e1a02103 	lsl	r2, r3, #2
30051c08:	e0833002 	add	r3, r3, r2
30051c0c:	e1a02103 	lsl	r2, r3, #2
30051c10:	e0833002 	add	r3, r3, r2
30051c14:	e0833001 	add	r3, r3, r1
30051c18:	e0802003 	add	r2, r0, r3
30051c1c:	e3a03000 	mov	r3, #0	; 0x0
30051c20:	e5c23000 	strb	r3, [r2]
				printf_string("Free gMallocPoo[%d]\n", i);
30051c24:	e59f003c 	ldr	r0, [pc, #60]	; 30051c68 <free+0xdc>
30051c28:	e51b1008 	ldr	r1, [fp, #-8]
30051c2c:	eb000c24 	bl	30054cc4 <printf_string>
30051c30:	ea000008 	b	30051c58 <free+0xcc>
{
	int i = 0;
	
	if(ptr != NULL)
	{
		for(i = 0; i < MALLOC_MAX_SIZE; i++)
30051c34:	e51b3008 	ldr	r3, [fp, #-8]
30051c38:	e2833001 	add	r3, r3, #1	; 0x1
30051c3c:	e50b3008 	str	r3, [fp, #-8]
30051c40:	e51b3008 	ldr	r3, [fp, #-8]
30051c44:	e3530013 	cmp	r3, #19	; 0x13
30051c48:	daffffdb 	ble	30051bbc <free+0x30>
30051c4c:	ea000001 	b	30051c58 <free+0xcc>
			}
		}
	}
	else
	{
		print_string("Freed failed, NULL pointer input\n");
30051c50:	e59f0014 	ldr	r0, [pc, #20]	; 30051c6c <free+0xe0>
30051c54:	eb0008c8 	bl	30053f7c <print_string>
	}
}
30051c58:	e24bd004 	sub	sp, fp, #4	; 0x4
30051c5c:	e8bd4800 	pop	{fp, lr}
30051c60:	e12fff1e 	bx	lr
30051c64:	3005ee14 	.word	0x3005ee14
30051c68:	3005bec0 	.word	0x3005bec0
30051c6c:	3005bed8 	.word	0x3005bed8

30051c70 <DLinkList_Create>:
    DLinkListNode* slider;
    int length;
} TDLinkList;

DLinkList* DLinkList_Create() // O(1)
{
30051c70:	e92d4800 	push	{fp, lr}
30051c74:	e28db004 	add	fp, sp, #4	; 0x4
30051c78:	e24dd008 	sub	sp, sp, #8	; 0x8
    TDLinkList* ret = (TDLinkList*)malloc(sizeof(TDLinkList));
30051c7c:	e3a00010 	mov	r0, #16	; 0x10
30051c80:	ebffff71 	bl	30051a4c <malloc>
30051c84:	e1a03000 	mov	r3, r0
30051c88:	e50b3008 	str	r3, [fp, #-8]
    
    if( ret != NULL )
30051c8c:	e51b3008 	ldr	r3, [fp, #-8]
30051c90:	e3530000 	cmp	r3, #0	; 0x0
30051c94:	0a00000b 	beq	30051cc8 <DLinkList_Create+0x58>
    {
        ret->length = 0;
30051c98:	e51b2008 	ldr	r2, [fp, #-8]
30051c9c:	e3a03000 	mov	r3, #0	; 0x0
30051ca0:	e582300c 	str	r3, [r2, #12]
        ret->header.next = NULL;
30051ca4:	e51b2008 	ldr	r2, [fp, #-8]
30051ca8:	e3a03000 	mov	r3, #0	; 0x0
30051cac:	e5823000 	str	r3, [r2]
        ret->header.pre = NULL;
30051cb0:	e51b2008 	ldr	r2, [fp, #-8]
30051cb4:	e3a03000 	mov	r3, #0	; 0x0
30051cb8:	e5823004 	str	r3, [r2, #4]
        ret->slider = NULL;
30051cbc:	e51b2008 	ldr	r2, [fp, #-8]
30051cc0:	e3a03000 	mov	r3, #0	; 0x0
30051cc4:	e5823008 	str	r3, [r2, #8]
    }
    
    return ret;
30051cc8:	e51b3008 	ldr	r3, [fp, #-8]
}
30051ccc:	e1a00003 	mov	r0, r3
30051cd0:	e24bd004 	sub	sp, fp, #4	; 0x4
30051cd4:	e8bd4800 	pop	{fp, lr}
30051cd8:	e12fff1e 	bx	lr

30051cdc <DLinkList_Destroy>:

void DLinkList_Destroy(DLinkList* list) // O(1)
{
30051cdc:	e92d4800 	push	{fp, lr}
30051ce0:	e28db004 	add	fp, sp, #4	; 0x4
30051ce4:	e24dd008 	sub	sp, sp, #8	; 0x8
30051ce8:	e50b0008 	str	r0, [fp, #-8]
    free(list);
30051cec:	e51b0008 	ldr	r0, [fp, #-8]
30051cf0:	ebffffa5 	bl	30051b8c <free>
}
30051cf4:	e24bd004 	sub	sp, fp, #4	; 0x4
30051cf8:	e8bd4800 	pop	{fp, lr}
30051cfc:	e12fff1e 	bx	lr

30051d00 <DLinkList_Clear>:

void DLinkList_Clear(DLinkList* list) // O(1)
{
30051d00:	e52db004 	push	{fp}		; (str fp, [sp, #-4]!)
30051d04:	e28db000 	add	fp, sp, #0	; 0x0
30051d08:	e24dd014 	sub	sp, sp, #20	; 0x14
30051d0c:	e50b0010 	str	r0, [fp, #-16]
    TDLinkList* sList = (TDLinkList*)list;
30051d10:	e51b3010 	ldr	r3, [fp, #-16]
30051d14:	e50b3008 	str	r3, [fp, #-8]
    
    if( sList != NULL )
30051d18:	e51b3008 	ldr	r3, [fp, #-8]
30051d1c:	e3530000 	cmp	r3, #0	; 0x0
30051d20:	0a00000b 	beq	30051d54 <DLinkList_Clear+0x54>
    {
        sList->length = 0;
30051d24:	e51b2008 	ldr	r2, [fp, #-8]
30051d28:	e3a03000 	mov	r3, #0	; 0x0
30051d2c:	e582300c 	str	r3, [r2, #12]
        sList->header.next = NULL;
30051d30:	e51b2008 	ldr	r2, [fp, #-8]
30051d34:	e3a03000 	mov	r3, #0	; 0x0
30051d38:	e5823000 	str	r3, [r2]
        sList->header.pre = NULL;
30051d3c:	e51b2008 	ldr	r2, [fp, #-8]
30051d40:	e3a03000 	mov	r3, #0	; 0x0
30051d44:	e5823004 	str	r3, [r2, #4]
        sList->slider = NULL;
30051d48:	e51b2008 	ldr	r2, [fp, #-8]
30051d4c:	e3a03000 	mov	r3, #0	; 0x0
30051d50:	e5823008 	str	r3, [r2, #8]
    }
}
30051d54:	e28bd000 	add	sp, fp, #0	; 0x0
30051d58:	e8bd0800 	pop	{fp}
30051d5c:	e12fff1e 	bx	lr

30051d60 <DLinkList_Length>:

int DLinkList_Length(DLinkList* list) // O(1)
{
30051d60:	e52db004 	push	{fp}		; (str fp, [sp, #-4]!)
30051d64:	e28db000 	add	fp, sp, #0	; 0x0
30051d68:	e24dd014 	sub	sp, sp, #20	; 0x14
30051d6c:	e50b0010 	str	r0, [fp, #-16]
    TDLinkList* sList = (TDLinkList*)list;
30051d70:	e51b3010 	ldr	r3, [fp, #-16]
30051d74:	e50b300c 	str	r3, [fp, #-12]
    int ret = -1;
30051d78:	e3e03000 	mvn	r3, #0	; 0x0
30051d7c:	e50b3008 	str	r3, [fp, #-8]
    
    if( sList != NULL )
30051d80:	e51b300c 	ldr	r3, [fp, #-12]
30051d84:	e3530000 	cmp	r3, #0	; 0x0
30051d88:	0a000002 	beq	30051d98 <DLinkList_Length+0x38>
    {
        ret = sList->length;
30051d8c:	e51b300c 	ldr	r3, [fp, #-12]
30051d90:	e593300c 	ldr	r3, [r3, #12]
30051d94:	e50b3008 	str	r3, [fp, #-8]
    }
    
    return ret;
30051d98:	e51b3008 	ldr	r3, [fp, #-8]
}
30051d9c:	e1a00003 	mov	r0, r3
30051da0:	e28bd000 	add	sp, fp, #0	; 0x0
30051da4:	e8bd0800 	pop	{fp}
30051da8:	e12fff1e 	bx	lr

30051dac <DLinkList_Insert>:

int DLinkList_Insert(DLinkList* list, DLinkListNode* node, int pos) // O(n)
{ 
30051dac:	e52db004 	push	{fp}		; (str fp, [sp, #-4]!)
30051db0:	e28db000 	add	fp, sp, #0	; 0x0
30051db4:	e24dd02c 	sub	sp, sp, #44	; 0x2c
30051db8:	e50b0020 	str	r0, [fp, #-32]
30051dbc:	e50b1024 	str	r1, [fp, #-36]
30051dc0:	e50b2028 	str	r2, [fp, #-40]
    TDLinkList* sList = (TDLinkList*)list;
30051dc4:	e51b3020 	ldr	r3, [fp, #-32]
30051dc8:	e50b3018 	str	r3, [fp, #-24]
    int ret = (sList != NULL) && (pos >= 0) && (node != NULL);
30051dcc:	e51b3018 	ldr	r3, [fp, #-24]
30051dd0:	e3530000 	cmp	r3, #0	; 0x0
30051dd4:	0a000008 	beq	30051dfc <DLinkList_Insert+0x50>
30051dd8:	e51b3028 	ldr	r3, [fp, #-40]
30051ddc:	e3530000 	cmp	r3, #0	; 0x0
30051de0:	ba000005 	blt	30051dfc <DLinkList_Insert+0x50>
30051de4:	e51b3024 	ldr	r3, [fp, #-36]
30051de8:	e3530000 	cmp	r3, #0	; 0x0
30051dec:	0a000002 	beq	30051dfc <DLinkList_Insert+0x50>
30051df0:	e3a03001 	mov	r3, #1	; 0x1
30051df4:	e50b302c 	str	r3, [fp, #-44]
30051df8:	ea000001 	b	30051e04 <DLinkList_Insert+0x58>
30051dfc:	e3a03000 	mov	r3, #0	; 0x0
30051e00:	e50b302c 	str	r3, [fp, #-44]
30051e04:	e51b302c 	ldr	r3, [fp, #-44]
30051e08:	e50b3014 	str	r3, [fp, #-20]
    int i = 0;
30051e0c:	e3a03000 	mov	r3, #0	; 0x0
30051e10:	e50b3010 	str	r3, [fp, #-16]
    
    if( ret )
30051e14:	e51b3014 	ldr	r3, [fp, #-20]
30051e18:	e3530000 	cmp	r3, #0	; 0x0
30051e1c:	0a000035 	beq	30051ef8 <DLinkList_Insert+0x14c>
    {
        DLinkListNode* current = (DLinkListNode*)sList;
30051e20:	e51b3018 	ldr	r3, [fp, #-24]
30051e24:	e50b300c 	str	r3, [fp, #-12]
        DLinkListNode* next = NULL;
30051e28:	e3a03000 	mov	r3, #0	; 0x0
30051e2c:	e50b3008 	str	r3, [fp, #-8]
        
        for(i=0; (i<pos) && (current->next != NULL); i++)
30051e30:	e3a03000 	mov	r3, #0	; 0x0
30051e34:	e50b3010 	str	r3, [fp, #-16]
30051e38:	ea000005 	b	30051e54 <DLinkList_Insert+0xa8>
        {
            current = current->next;
30051e3c:	e51b300c 	ldr	r3, [fp, #-12]
30051e40:	e5933000 	ldr	r3, [r3]
30051e44:	e50b300c 	str	r3, [fp, #-12]
    if( ret )
    {
        DLinkListNode* current = (DLinkListNode*)sList;
        DLinkListNode* next = NULL;
        
        for(i=0; (i<pos) && (current->next != NULL); i++)
30051e48:	e51b3010 	ldr	r3, [fp, #-16]
30051e4c:	e2833001 	add	r3, r3, #1	; 0x1
30051e50:	e50b3010 	str	r3, [fp, #-16]
30051e54:	e51b2010 	ldr	r2, [fp, #-16]
30051e58:	e51b3028 	ldr	r3, [fp, #-40]
30051e5c:	e1520003 	cmp	r2, r3
30051e60:	aa000003 	bge	30051e74 <DLinkList_Insert+0xc8>
30051e64:	e51b300c 	ldr	r3, [fp, #-12]
30051e68:	e5933000 	ldr	r3, [r3]
30051e6c:	e3530000 	cmp	r3, #0	; 0x0
30051e70:	1afffff1 	bne	30051e3c <DLinkList_Insert+0x90>
        {
            current = current->next;
        }
        
        next = current->next;
30051e74:	e51b300c 	ldr	r3, [fp, #-12]
30051e78:	e5933000 	ldr	r3, [r3]
30051e7c:	e50b3008 	str	r3, [fp, #-8]
        
        current->next = node;
30051e80:	e51b200c 	ldr	r2, [fp, #-12]
30051e84:	e51b3024 	ldr	r3, [fp, #-36]
30051e88:	e5823000 	str	r3, [r2]
        node->next = next;
30051e8c:	e51b2024 	ldr	r2, [fp, #-36]
30051e90:	e51b3008 	ldr	r3, [fp, #-8]
30051e94:	e5823000 	str	r3, [r2]
        
        if( next != NULL )
30051e98:	e51b3008 	ldr	r3, [fp, #-8]
30051e9c:	e3530000 	cmp	r3, #0	; 0x0
30051ea0:	0a000002 	beq	30051eb0 <DLinkList_Insert+0x104>
        {
            next->pre = node;
30051ea4:	e51b2008 	ldr	r2, [fp, #-8]
30051ea8:	e51b3024 	ldr	r3, [fp, #-36]
30051eac:	e5823004 	str	r3, [r2, #4]
        }
        
        node->pre = current;
30051eb0:	e51b2024 	ldr	r2, [fp, #-36]
30051eb4:	e51b300c 	ldr	r3, [fp, #-12]
30051eb8:	e5823004 	str	r3, [r2, #4]
        
        if( sList->length == 0 )
30051ebc:	e51b3018 	ldr	r3, [fp, #-24]
30051ec0:	e593300c 	ldr	r3, [r3, #12]
30051ec4:	e3530000 	cmp	r3, #0	; 0x0
30051ec8:	1a000005 	bne	30051ee4 <DLinkList_Insert+0x138>
        {
            node->pre = NULL;
30051ecc:	e51b2024 	ldr	r2, [fp, #-36]
30051ed0:	e3a03000 	mov	r3, #0	; 0x0
30051ed4:	e5823004 	str	r3, [r2, #4]
            sList->slider = node;
30051ed8:	e51b2018 	ldr	r2, [fp, #-24]
30051edc:	e51b3024 	ldr	r3, [fp, #-36]
30051ee0:	e5823008 	str	r3, [r2, #8]
        }
        
        sList->length++;
30051ee4:	e51b3018 	ldr	r3, [fp, #-24]
30051ee8:	e593300c 	ldr	r3, [r3, #12]
30051eec:	e2832001 	add	r2, r3, #1	; 0x1
30051ef0:	e51b3018 	ldr	r3, [fp, #-24]
30051ef4:	e583200c 	str	r2, [r3, #12]
    }
    
    return ret;
30051ef8:	e51b3014 	ldr	r3, [fp, #-20]
}
30051efc:	e1a00003 	mov	r0, r3
30051f00:	e28bd000 	add	sp, fp, #0	; 0x0
30051f04:	e8bd0800 	pop	{fp}
30051f08:	e12fff1e 	bx	lr

30051f0c <DLinkList_Get>:

DLinkListNode* DLinkList_Get(DLinkList* list, int pos) // O(n)
{
30051f0c:	e52db004 	push	{fp}		; (str fp, [sp, #-4]!)
30051f10:	e28db000 	add	fp, sp, #0	; 0x0
30051f14:	e24dd01c 	sub	sp, sp, #28	; 0x1c
30051f18:	e50b0018 	str	r0, [fp, #-24]
30051f1c:	e50b101c 	str	r1, [fp, #-28]
    TDLinkList* sList = (TDLinkList*)list;
30051f20:	e51b3018 	ldr	r3, [fp, #-24]
30051f24:	e50b3014 	str	r3, [fp, #-20]
    DLinkListNode* ret = NULL;
30051f28:	e3a03000 	mov	r3, #0	; 0x0
30051f2c:	e50b3010 	str	r3, [fp, #-16]
    int i = 0;
30051f30:	e3a03000 	mov	r3, #0	; 0x0
30051f34:	e50b300c 	str	r3, [fp, #-12]
    
    if( (sList != NULL) && (0 <= pos) && (pos < sList->length) )
30051f38:	e51b3014 	ldr	r3, [fp, #-20]
30051f3c:	e3530000 	cmp	r3, #0	; 0x0
30051f40:	0a000019 	beq	30051fac <DLinkList_Get+0xa0>
30051f44:	e51b301c 	ldr	r3, [fp, #-28]
30051f48:	e3530000 	cmp	r3, #0	; 0x0
30051f4c:	ba000016 	blt	30051fac <DLinkList_Get+0xa0>
30051f50:	e51b3014 	ldr	r3, [fp, #-20]
30051f54:	e593200c 	ldr	r2, [r3, #12]
30051f58:	e51b301c 	ldr	r3, [fp, #-28]
30051f5c:	e1520003 	cmp	r2, r3
30051f60:	da000011 	ble	30051fac <DLinkList_Get+0xa0>
    {
        DLinkListNode* current = (DLinkListNode*)sList;
30051f64:	e51b3014 	ldr	r3, [fp, #-20]
30051f68:	e50b3008 	str	r3, [fp, #-8]
        
        for(i=0; i<pos; i++)
30051f6c:	e3a03000 	mov	r3, #0	; 0x0
30051f70:	e50b300c 	str	r3, [fp, #-12]
30051f74:	ea000005 	b	30051f90 <DLinkList_Get+0x84>
        {
            current = current->next;
30051f78:	e51b3008 	ldr	r3, [fp, #-8]
30051f7c:	e5933000 	ldr	r3, [r3]
30051f80:	e50b3008 	str	r3, [fp, #-8]
    
    if( (sList != NULL) && (0 <= pos) && (pos < sList->length) )
    {
        DLinkListNode* current = (DLinkListNode*)sList;
        
        for(i=0; i<pos; i++)
30051f84:	e51b300c 	ldr	r3, [fp, #-12]
30051f88:	e2833001 	add	r3, r3, #1	; 0x1
30051f8c:	e50b300c 	str	r3, [fp, #-12]
30051f90:	e51b200c 	ldr	r2, [fp, #-12]
30051f94:	e51b301c 	ldr	r3, [fp, #-28]
30051f98:	e1520003 	cmp	r2, r3
30051f9c:	bafffff5 	blt	30051f78 <DLinkList_Get+0x6c>
        {
            current = current->next;
        }
        
        ret = current->next;
30051fa0:	e51b3008 	ldr	r3, [fp, #-8]
30051fa4:	e5933000 	ldr	r3, [r3]
30051fa8:	e50b3010 	str	r3, [fp, #-16]
    }
    
    return ret;
30051fac:	e51b3010 	ldr	r3, [fp, #-16]
}
30051fb0:	e1a00003 	mov	r0, r3
30051fb4:	e28bd000 	add	sp, fp, #0	; 0x0
30051fb8:	e8bd0800 	pop	{fp}
30051fbc:	e12fff1e 	bx	lr

30051fc0 <DLinkList_Delete>:

DLinkListNode* DLinkList_Delete(DLinkList* list, int pos) // O(n)
{
30051fc0:	e52db004 	push	{fp}		; (str fp, [sp, #-4]!)
30051fc4:	e28db000 	add	fp, sp, #0	; 0x0
30051fc8:	e24dd024 	sub	sp, sp, #36	; 0x24
30051fcc:	e50b0020 	str	r0, [fp, #-32]
30051fd0:	e50b1024 	str	r1, [fp, #-36]
    TDLinkList* sList = (TDLinkList*)list;
30051fd4:	e51b3020 	ldr	r3, [fp, #-32]
30051fd8:	e50b3018 	str	r3, [fp, #-24]
    DLinkListNode* ret = NULL;
30051fdc:	e3a03000 	mov	r3, #0	; 0x0
30051fe0:	e50b3014 	str	r3, [fp, #-20]
    int i = 0;
30051fe4:	e3a03000 	mov	r3, #0	; 0x0
30051fe8:	e50b3010 	str	r3, [fp, #-16]
    
    if( (sList != NULL) && (0 <= pos) && (pos < sList->length) )
30051fec:	e51b3018 	ldr	r3, [fp, #-24]
30051ff0:	e3530000 	cmp	r3, #0	; 0x0
30051ff4:	0a00003b 	beq	300520e8 <DLinkList_Delete+0x128>
30051ff8:	e51b3024 	ldr	r3, [fp, #-36]
30051ffc:	e3530000 	cmp	r3, #0	; 0x0
30052000:	ba000038 	blt	300520e8 <DLinkList_Delete+0x128>
30052004:	e51b3018 	ldr	r3, [fp, #-24]
30052008:	e593200c 	ldr	r2, [r3, #12]
3005200c:	e51b3024 	ldr	r3, [fp, #-36]
30052010:	e1520003 	cmp	r2, r3
30052014:	da000033 	ble	300520e8 <DLinkList_Delete+0x128>
    {
        DLinkListNode* current = (DLinkListNode*)sList;
30052018:	e51b3018 	ldr	r3, [fp, #-24]
3005201c:	e50b300c 	str	r3, [fp, #-12]
        DLinkListNode* next = NULL;
30052020:	e3a03000 	mov	r3, #0	; 0x0
30052024:	e50b3008 	str	r3, [fp, #-8]
        
        for(i=0; i<pos; i++)
30052028:	e3a03000 	mov	r3, #0	; 0x0
3005202c:	e50b3010 	str	r3, [fp, #-16]
30052030:	ea000005 	b	3005204c <DLinkList_Delete+0x8c>
        {
            current = current->next;
30052034:	e51b300c 	ldr	r3, [fp, #-12]
30052038:	e5933000 	ldr	r3, [r3]
3005203c:	e50b300c 	str	r3, [fp, #-12]
    if( (sList != NULL) && (0 <= pos) && (pos < sList->length) )
    {
        DLinkListNode* current = (DLinkListNode*)sList;
        DLinkListNode* next = NULL;
        
        for(i=0; i<pos; i++)
30052040:	e51b3010 	ldr	r3, [fp, #-16]
30052044:	e2833001 	add	r3, r3, #1	; 0x1
30052048:	e50b3010 	str	r3, [fp, #-16]
3005204c:	e51b2010 	ldr	r2, [fp, #-16]
30052050:	e51b3024 	ldr	r3, [fp, #-36]
30052054:	e1520003 	cmp	r2, r3
30052058:	bafffff5 	blt	30052034 <DLinkList_Delete+0x74>
        {
            current = current->next;
        }
        
        ret = current->next;
3005205c:	e51b300c 	ldr	r3, [fp, #-12]
30052060:	e5933000 	ldr	r3, [r3]
30052064:	e50b3014 	str	r3, [fp, #-20]
        next = ret->next;
30052068:	e51b3014 	ldr	r3, [fp, #-20]
3005206c:	e5933000 	ldr	r3, [r3]
30052070:	e50b3008 	str	r3, [fp, #-8]
        
        current->next = next;
30052074:	e51b200c 	ldr	r2, [fp, #-12]
30052078:	e51b3008 	ldr	r3, [fp, #-8]
3005207c:	e5823000 	str	r3, [r2]
        
        if( next != NULL )
30052080:	e51b3008 	ldr	r3, [fp, #-8]
30052084:	e3530000 	cmp	r3, #0	; 0x0
30052088:	0a000009 	beq	300520b4 <DLinkList_Delete+0xf4>
        {
            next->pre = current;
3005208c:	e51b2008 	ldr	r2, [fp, #-8]
30052090:	e51b300c 	ldr	r3, [fp, #-12]
30052094:	e5823004 	str	r3, [r2, #4]
            
            if( current == (DLinkListNode*)sList )
30052098:	e51b2018 	ldr	r2, [fp, #-24]
3005209c:	e51b300c 	ldr	r3, [fp, #-12]
300520a0:	e1530002 	cmp	r3, r2
300520a4:	1a000002 	bne	300520b4 <DLinkList_Delete+0xf4>
            {
                next->pre = NULL;
300520a8:	e51b2008 	ldr	r2, [fp, #-8]
300520ac:	e3a03000 	mov	r3, #0	; 0x0
300520b0:	e5823004 	str	r3, [r2, #4]
            }
        }
        
        if( sList->slider == ret )
300520b4:	e51b3018 	ldr	r3, [fp, #-24]
300520b8:	e5932008 	ldr	r2, [r3, #8]
300520bc:	e51b3014 	ldr	r3, [fp, #-20]
300520c0:	e1520003 	cmp	r2, r3
300520c4:	1a000002 	bne	300520d4 <DLinkList_Delete+0x114>
        {
            sList->slider = next;
300520c8:	e51b2018 	ldr	r2, [fp, #-24]
300520cc:	e51b3008 	ldr	r3, [fp, #-8]
300520d0:	e5823008 	str	r3, [r2, #8]
        }
        
        sList->length--;
300520d4:	e51b3018 	ldr	r3, [fp, #-24]
300520d8:	e593300c 	ldr	r3, [r3, #12]
300520dc:	e2432001 	sub	r2, r3, #1	; 0x1
300520e0:	e51b3018 	ldr	r3, [fp, #-24]
300520e4:	e583200c 	str	r2, [r3, #12]
    }
    
    return ret;
300520e8:	e51b3014 	ldr	r3, [fp, #-20]
}
300520ec:	e1a00003 	mov	r0, r3
300520f0:	e28bd000 	add	sp, fp, #0	; 0x0
300520f4:	e8bd0800 	pop	{fp}
300520f8:	e12fff1e 	bx	lr

300520fc <DLinkList_DeleteNode>:

DLinkListNode* DLinkList_DeleteNode(DLinkList* list, DLinkListNode* node)
{
300520fc:	e92d4800 	push	{fp, lr}
30052100:	e28db004 	add	fp, sp, #4	; 0x4
30052104:	e24dd018 	sub	sp, sp, #24	; 0x18
30052108:	e50b0018 	str	r0, [fp, #-24]
3005210c:	e50b101c 	str	r1, [fp, #-28]
    TDLinkList* sList = (TDLinkList*)list;
30052110:	e51b3018 	ldr	r3, [fp, #-24]
30052114:	e50b3014 	str	r3, [fp, #-20]
    DLinkListNode* ret = NULL;
30052118:	e3a03000 	mov	r3, #0	; 0x0
3005211c:	e50b3010 	str	r3, [fp, #-16]
    int i = 0;
30052120:	e3a03000 	mov	r3, #0	; 0x0
30052124:	e50b300c 	str	r3, [fp, #-12]
    
    if( sList != NULL )
30052128:	e51b3014 	ldr	r3, [fp, #-20]
3005212c:	e3530000 	cmp	r3, #0	; 0x0
30052130:	0a00001e 	beq	300521b0 <DLinkList_DeleteNode+0xb4>
    {
        DLinkListNode* current = (DLinkListNode*)sList;
30052134:	e51b3014 	ldr	r3, [fp, #-20]
30052138:	e50b3008 	str	r3, [fp, #-8]
        
        for(i=0; i<sList->length; i++)
3005213c:	e3a03000 	mov	r3, #0	; 0x0
30052140:	e50b300c 	str	r3, [fp, #-12]
30052144:	ea00000e 	b	30052184 <DLinkList_DeleteNode+0x88>
        {
            if( current->next == node )
30052148:	e51b3008 	ldr	r3, [fp, #-8]
3005214c:	e5932000 	ldr	r2, [r3]
30052150:	e51b301c 	ldr	r3, [fp, #-28]
30052154:	e1520003 	cmp	r2, r3
30052158:	1a000003 	bne	3005216c <DLinkList_DeleteNode+0x70>
            {
                ret = current->next;
3005215c:	e51b3008 	ldr	r3, [fp, #-8]
30052160:	e5933000 	ldr	r3, [r3]
30052164:	e50b3010 	str	r3, [fp, #-16]
30052168:	ea00000a 	b	30052198 <DLinkList_DeleteNode+0x9c>
                break;
            }
            
            current = current->next;
3005216c:	e51b3008 	ldr	r3, [fp, #-8]
30052170:	e5933000 	ldr	r3, [r3]
30052174:	e50b3008 	str	r3, [fp, #-8]
    
    if( sList != NULL )
    {
        DLinkListNode* current = (DLinkListNode*)sList;
        
        for(i=0; i<sList->length; i++)
30052178:	e51b300c 	ldr	r3, [fp, #-12]
3005217c:	e2833001 	add	r3, r3, #1	; 0x1
30052180:	e50b300c 	str	r3, [fp, #-12]
30052184:	e51b3014 	ldr	r3, [fp, #-20]
30052188:	e593200c 	ldr	r2, [r3, #12]
3005218c:	e51b300c 	ldr	r3, [fp, #-12]
30052190:	e1520003 	cmp	r2, r3
30052194:	caffffeb 	bgt	30052148 <DLinkList_DeleteNode+0x4c>
            }
            
            current = current->next;
        }
        
        if( ret != NULL )
30052198:	e51b3010 	ldr	r3, [fp, #-16]
3005219c:	e3530000 	cmp	r3, #0	; 0x0
300521a0:	0a000002 	beq	300521b0 <DLinkList_DeleteNode+0xb4>
        {
            DLinkList_Delete(sList, i);
300521a4:	e51b0014 	ldr	r0, [fp, #-20]
300521a8:	e51b100c 	ldr	r1, [fp, #-12]
300521ac:	ebffff83 	bl	30051fc0 <DLinkList_Delete>
        }
    }
    
    return ret;
300521b0:	e51b3010 	ldr	r3, [fp, #-16]
}
300521b4:	e1a00003 	mov	r0, r3
300521b8:	e24bd004 	sub	sp, fp, #4	; 0x4
300521bc:	e8bd4800 	pop	{fp, lr}
300521c0:	e12fff1e 	bx	lr

300521c4 <DLinkList_Reset>:

DLinkListNode* DLinkList_Reset(DLinkList* list)
{
300521c4:	e52db004 	push	{fp}		; (str fp, [sp, #-4]!)
300521c8:	e28db000 	add	fp, sp, #0	; 0x0
300521cc:	e24dd014 	sub	sp, sp, #20	; 0x14
300521d0:	e50b0010 	str	r0, [fp, #-16]
    TDLinkList* sList = (TDLinkList*)list;
300521d4:	e51b3010 	ldr	r3, [fp, #-16]
300521d8:	e50b300c 	str	r3, [fp, #-12]
    DLinkListNode* ret = NULL;
300521dc:	e3a03000 	mov	r3, #0	; 0x0
300521e0:	e50b3008 	str	r3, [fp, #-8]
    
    if( sList != NULL )
300521e4:	e51b300c 	ldr	r3, [fp, #-12]
300521e8:	e3530000 	cmp	r3, #0	; 0x0
300521ec:	0a000006 	beq	3005220c <DLinkList_Reset+0x48>
    {
        sList->slider = sList->header.next;
300521f0:	e51b300c 	ldr	r3, [fp, #-12]
300521f4:	e5932000 	ldr	r2, [r3]
300521f8:	e51b300c 	ldr	r3, [fp, #-12]
300521fc:	e5832008 	str	r2, [r3, #8]
        ret = sList->slider;
30052200:	e51b300c 	ldr	r3, [fp, #-12]
30052204:	e5933008 	ldr	r3, [r3, #8]
30052208:	e50b3008 	str	r3, [fp, #-8]
    }
    
    return ret;
3005220c:	e51b3008 	ldr	r3, [fp, #-8]
}
30052210:	e1a00003 	mov	r0, r3
30052214:	e28bd000 	add	sp, fp, #0	; 0x0
30052218:	e8bd0800 	pop	{fp}
3005221c:	e12fff1e 	bx	lr

30052220 <DLinkList_Current>:

DLinkListNode* DLinkList_Current(DLinkList* list)
{
30052220:	e52db004 	push	{fp}		; (str fp, [sp, #-4]!)
30052224:	e28db000 	add	fp, sp, #0	; 0x0
30052228:	e24dd014 	sub	sp, sp, #20	; 0x14
3005222c:	e50b0010 	str	r0, [fp, #-16]
    TDLinkList* sList = (TDLinkList*)list;
30052230:	e51b3010 	ldr	r3, [fp, #-16]
30052234:	e50b300c 	str	r3, [fp, #-12]
    DLinkListNode* ret = NULL;
30052238:	e3a03000 	mov	r3, #0	; 0x0
3005223c:	e50b3008 	str	r3, [fp, #-8]
    
    if( sList != NULL )
30052240:	e51b300c 	ldr	r3, [fp, #-12]
30052244:	e3530000 	cmp	r3, #0	; 0x0
30052248:	0a000002 	beq	30052258 <DLinkList_Current+0x38>
    {
        ret = sList->slider;
3005224c:	e51b300c 	ldr	r3, [fp, #-12]
30052250:	e5933008 	ldr	r3, [r3, #8]
30052254:	e50b3008 	str	r3, [fp, #-8]
    }
    
    return ret;
30052258:	e51b3008 	ldr	r3, [fp, #-8]
}
3005225c:	e1a00003 	mov	r0, r3
30052260:	e28bd000 	add	sp, fp, #0	; 0x0
30052264:	e8bd0800 	pop	{fp}
30052268:	e12fff1e 	bx	lr

3005226c <DLinkList_Next>:

DLinkListNode* DLinkList_Next(DLinkList* list)
{
3005226c:	e52db004 	push	{fp}		; (str fp, [sp, #-4]!)
30052270:	e28db000 	add	fp, sp, #0	; 0x0
30052274:	e24dd014 	sub	sp, sp, #20	; 0x14
30052278:	e50b0010 	str	r0, [fp, #-16]
    TDLinkList* sList = (TDLinkList*)list;
3005227c:	e51b3010 	ldr	r3, [fp, #-16]
30052280:	e50b300c 	str	r3, [fp, #-12]
    DLinkListNode* ret = NULL;
30052284:	e3a03000 	mov	r3, #0	; 0x0
30052288:	e50b3008 	str	r3, [fp, #-8]
    
    if( (sList != NULL) && (sList->slider != NULL) )
3005228c:	e51b300c 	ldr	r3, [fp, #-12]
30052290:	e3530000 	cmp	r3, #0	; 0x0
30052294:	0a00000a 	beq	300522c4 <DLinkList_Next+0x58>
30052298:	e51b300c 	ldr	r3, [fp, #-12]
3005229c:	e5933008 	ldr	r3, [r3, #8]
300522a0:	e3530000 	cmp	r3, #0	; 0x0
300522a4:	0a000006 	beq	300522c4 <DLinkList_Next+0x58>
    {
        ret = sList->slider;
300522a8:	e51b300c 	ldr	r3, [fp, #-12]
300522ac:	e5933008 	ldr	r3, [r3, #8]
300522b0:	e50b3008 	str	r3, [fp, #-8]
        sList->slider = ret->next;
300522b4:	e51b3008 	ldr	r3, [fp, #-8]
300522b8:	e5932000 	ldr	r2, [r3]
300522bc:	e51b300c 	ldr	r3, [fp, #-12]
300522c0:	e5832008 	str	r2, [r3, #8]
    }
    
    return ret;
300522c4:	e51b3008 	ldr	r3, [fp, #-8]
}
300522c8:	e1a00003 	mov	r0, r3
300522cc:	e28bd000 	add	sp, fp, #0	; 0x0
300522d0:	e8bd0800 	pop	{fp}
300522d4:	e12fff1e 	bx	lr

300522d8 <DLinkList_Pre>:

DLinkListNode* DLinkList_Pre(DLinkList* list)
{
300522d8:	e52db004 	push	{fp}		; (str fp, [sp, #-4]!)
300522dc:	e28db000 	add	fp, sp, #0	; 0x0
300522e0:	e24dd014 	sub	sp, sp, #20	; 0x14
300522e4:	e50b0010 	str	r0, [fp, #-16]
    TDLinkList* sList = (TDLinkList*)list;
300522e8:	e51b3010 	ldr	r3, [fp, #-16]
300522ec:	e50b300c 	str	r3, [fp, #-12]
    DLinkListNode* ret = NULL;
300522f0:	e3a03000 	mov	r3, #0	; 0x0
300522f4:	e50b3008 	str	r3, [fp, #-8]
    
    if( (sList != NULL) && (sList->slider != NULL) )
300522f8:	e51b300c 	ldr	r3, [fp, #-12]
300522fc:	e3530000 	cmp	r3, #0	; 0x0
30052300:	0a00000a 	beq	30052330 <DLinkList_Pre+0x58>
30052304:	e51b300c 	ldr	r3, [fp, #-12]
30052308:	e5933008 	ldr	r3, [r3, #8]
3005230c:	e3530000 	cmp	r3, #0	; 0x0
30052310:	0a000006 	beq	30052330 <DLinkList_Pre+0x58>
    {
        ret = sList->slider;
30052314:	e51b300c 	ldr	r3, [fp, #-12]
30052318:	e5933008 	ldr	r3, [r3, #8]
3005231c:	e50b3008 	str	r3, [fp, #-8]
        sList->slider = ret->pre;
30052320:	e51b3008 	ldr	r3, [fp, #-8]
30052324:	e5932004 	ldr	r2, [r3, #4]
30052328:	e51b300c 	ldr	r3, [fp, #-12]
3005232c:	e5832008 	str	r2, [r3, #8]
    }
    
    return ret;
30052330:	e51b3008 	ldr	r3, [fp, #-8]
30052334:	e1a00003 	mov	r0, r3
30052338:	e28bd000 	add	sp, fp, #0	; 0x0
3005233c:	e8bd0800 	pop	{fp}
30052340:	e12fff1e 	bx	lr

30052344 <fill_template_color>:
	{'Y', TEMPLATE_Y},
	{'Z', TEMPLATE_Z},
};

void fill_template_color(unsigned short color, TEMPLATE8X16* ascii_template)
{
30052344:	e52db004 	push	{fp}		; (str fp, [sp, #-4]!)
30052348:	e28db000 	add	fp, sp, #0	; 0x0
3005234c:	e24dd014 	sub	sp, sp, #20	; 0x14
30052350:	e1a03000 	mov	r3, r0
30052354:	e50b1014 	str	r1, [fp, #-20]
30052358:	e14b30be 	strh	r3, [fp, #-14]
	unsigned index = 0;
3005235c:	e3a03000 	mov	r3, #0	; 0x0
30052360:	e50b3008 	str	r3, [fp, #-8]
	
	if(ascii_template != NULL && color != 0x00)
30052364:	e51b3014 	ldr	r3, [fp, #-20]
30052368:	e3530000 	cmp	r3, #0	; 0x0
3005236c:	0a00001f 	beq	300523f0 <fill_template_color+0xac>
30052370:	e15b30be 	ldrh	r3, [fp, #-14]
30052374:	e3530000 	cmp	r3, #0	; 0x0
30052378:	0a00001c 	beq	300523f0 <fill_template_color+0xac>
	{
		for(index = 0; index < (8 * 16); index++)
3005237c:	e3a03000 	mov	r3, #0	; 0x0
30052380:	e50b3008 	str	r3, [fp, #-8]
30052384:	ea000016 	b	300523e4 <fill_template_color+0xa0>
		{
			if((*ascii_template)[index] != 0x00)
30052388:	e51b3008 	ldr	r3, [fp, #-8]
3005238c:	e51b2014 	ldr	r2, [fp, #-20]
30052390:	e1a03083 	lsl	r3, r3, #1
30052394:	e0823003 	add	r3, r2, r3
30052398:	e1d330b0 	ldrh	r3, [r3]
3005239c:	e3530000 	cmp	r3, #0	; 0x0
300523a0:	0a000006 	beq	300523c0 <fill_template_color+0x7c>
			{
				(*ascii_template)[index] = color;
300523a4:	e51b3008 	ldr	r3, [fp, #-8]
300523a8:	e51b2014 	ldr	r2, [fp, #-20]
300523ac:	e1a03083 	lsl	r3, r3, #1
300523b0:	e0822003 	add	r2, r2, r3
300523b4:	e15b30be 	ldrh	r3, [fp, #-14]
300523b8:	e1c230b0 	strh	r3, [r2]
300523bc:	ea000005 	b	300523d8 <fill_template_color+0x94>
			}
			else
			{
				(*ascii_template)[index] = 0x00;
300523c0:	e51b3008 	ldr	r3, [fp, #-8]
300523c4:	e51b2014 	ldr	r2, [fp, #-20]
300523c8:	e1a03083 	lsl	r3, r3, #1
300523cc:	e0822003 	add	r2, r2, r3
300523d0:	e3a03000 	mov	r3, #0	; 0x0
300523d4:	e1c230b0 	strh	r3, [r2]
{
	unsigned index = 0;
	
	if(ascii_template != NULL && color != 0x00)
	{
		for(index = 0; index < (8 * 16); index++)
300523d8:	e51b3008 	ldr	r3, [fp, #-8]
300523dc:	e2833001 	add	r3, r3, #1	; 0x1
300523e0:	e50b3008 	str	r3, [fp, #-8]
300523e4:	e51b3008 	ldr	r3, [fp, #-8]
300523e8:	e353007f 	cmp	r3, #127	; 0x7f
300523ec:	9affffe5 	bls	30052388 <fill_template_color+0x44>
			{
				(*ascii_template)[index] = 0x00;
			}
		}
	}
}
300523f0:	e28bd000 	add	sp, fp, #0	; 0x0
300523f4:	e8bd0800 	pop	{fp}
300523f8:	e12fff1e 	bx	lr

300523fc <get_template>:

unsigned get_template(unsigned char ascii_char, unsigned short color, TEMPLATE8X16** ascii_template)
{
300523fc:	e92d4800 	push	{fp, lr}
30052400:	e28db004 	add	fp, sp, #4	; 0x4
30052404:	e24dd010 	sub	sp, sp, #16	; 0x10
30052408:	e1a03000 	mov	r3, r0
3005240c:	e50b2014 	str	r2, [fp, #-20]
30052410:	e54b300d 	strb	r3, [fp, #-13]
30052414:	e14b11b0 	strh	r1, [fp, #-16]
	unsigned index = 0;
30052418:	e3a03000 	mov	r3, #0	; 0x0
3005241c:	e50b3008 	str	r3, [fp, #-8]
	print_string("In function get_template\n\n");
30052420:	e59f00ec 	ldr	r0, [pc, #236]	; 30052514 <get_template+0x118>
30052424:	eb0006d4 	bl	30053f7c <print_string>
	printf_string("&global_ascii_template = 0x%x\n\n", &global_ascii_template);
30052428:	e59f00e8 	ldr	r0, [pc, #232]	; 30052518 <get_template+0x11c>
3005242c:	e59f10e8 	ldr	r1, [pc, #232]	; 3005251c <get_template+0x120>
30052430:	eb000a23 	bl	30054cc4 <printf_string>
	printf_string("global_ascii_template = 0x%x\n\n", global_ascii_template);
30052434:	e59f00e4 	ldr	r0, [pc, #228]	; 30052520 <get_template+0x124>
30052438:	e59f10dc 	ldr	r1, [pc, #220]	; 3005251c <get_template+0x120>
3005243c:	eb000a20 	bl	30054cc4 <printf_string>
	
	for(index = 0; index < (sizeof(global_ascii_template) / sizeof(global_ascii_template[0])); index++)
30052440:	e3a03000 	mov	r3, #0	; 0x0
30052444:	e50b3008 	str	r3, [fp, #-8]
30052448:	ea000023 	b	300524dc <get_template+0xe0>
	{
		if(global_ascii_template[index].ascii_char == ascii_char)
3005244c:	e51b3008 	ldr	r3, [fp, #-8]
30052450:	e59f10c4 	ldr	r1, [pc, #196]	; 3005251c <get_template+0x120>
30052454:	e1a03083 	lsl	r3, r3, #1
30052458:	e1a02383 	lsl	r2, r3, #7
3005245c:	e0833002 	add	r3, r3, r2
30052460:	e0813003 	add	r3, r1, r3
30052464:	e5d32000 	ldrb	r2, [r3]
30052468:	e55b300d 	ldrb	r3, [fp, #-13]
3005246c:	e1530002 	cmp	r3, r2
30052470:	1a000016 	bne	300524d0 <get_template+0xd4>
		{
			printf_string("index = %d\n\n", index);
30052474:	e59f00a8 	ldr	r0, [pc, #168]	; 30052524 <get_template+0x128>
30052478:	e51b1008 	ldr	r1, [fp, #-8]
3005247c:	eb000a10 	bl	30054cc4 <printf_string>
			printf_string("&(global_ascii_template[index].ascii_template) = 0x%x\n\n", &(global_ascii_template[index].ascii_template));
30052480:	e51b3008 	ldr	r3, [fp, #-8]
30052484:	e1a03083 	lsl	r3, r3, #1
30052488:	e1a02383 	lsl	r2, r3, #7
3005248c:	e0833002 	add	r3, r3, r2
30052490:	e59f2084 	ldr	r2, [pc, #132]	; 3005251c <get_template+0x120>
30052494:	e0833002 	add	r3, r3, r2
30052498:	e2833002 	add	r3, r3, #2	; 0x2
3005249c:	e59f0084 	ldr	r0, [pc, #132]	; 30052528 <get_template+0x12c>
300524a0:	e1a01003 	mov	r1, r3
300524a4:	eb000a06 	bl	30054cc4 <printf_string>
			*ascii_template = &(global_ascii_template[index].ascii_template);
300524a8:	e51b3008 	ldr	r3, [fp, #-8]
300524ac:	e1a03083 	lsl	r3, r3, #1
300524b0:	e1a02383 	lsl	r2, r3, #7
300524b4:	e0833002 	add	r3, r3, r2
300524b8:	e59f205c 	ldr	r2, [pc, #92]	; 3005251c <get_template+0x120>
300524bc:	e0833002 	add	r3, r3, r2
300524c0:	e2832002 	add	r2, r3, #2	; 0x2
300524c4:	e51b3014 	ldr	r3, [fp, #-20]
300524c8:	e5832000 	str	r2, [r3]
300524cc:	ea000005 	b	300524e8 <get_template+0xec>
	unsigned index = 0;
	print_string("In function get_template\n\n");
	printf_string("&global_ascii_template = 0x%x\n\n", &global_ascii_template);
	printf_string("global_ascii_template = 0x%x\n\n", global_ascii_template);
	
	for(index = 0; index < (sizeof(global_ascii_template) / sizeof(global_ascii_template[0])); index++)
300524d0:	e51b3008 	ldr	r3, [fp, #-8]
300524d4:	e2833001 	add	r3, r3, #1	; 0x1
300524d8:	e50b3008 	str	r3, [fp, #-8]
300524dc:	e51b3008 	ldr	r3, [fp, #-8]
300524e0:	e3530019 	cmp	r3, #25	; 0x19
300524e4:	9affffd8 	bls	3005244c <get_template+0x50>
			*ascii_template = &(global_ascii_template[index].ascii_template);
			break;
		}
	}
	
	fill_template_color(color, *ascii_template);
300524e8:	e51b3014 	ldr	r3, [fp, #-20]
300524ec:	e5932000 	ldr	r2, [r3]
300524f0:	e15b31b0 	ldrh	r3, [fp, #-16]
300524f4:	e1a00003 	mov	r0, r3
300524f8:	e1a01002 	mov	r1, r2
300524fc:	ebffff90 	bl	30052344 <fill_template_color>

	return index;
30052500:	e51b3008 	ldr	r3, [fp, #-8]
30052504:	e1a00003 	mov	r0, r3
30052508:	e24bd004 	sub	sp, fp, #4	; 0x4
3005250c:	e8bd4800 	pop	{fp, lr}
30052510:	e12fff1e 	bx	lr
30052514:	3005befc 	.word	0x3005befc
30052518:	3005bf18 	.word	0x3005bf18
3005251c:	3005d026 	.word	0x3005d026
30052520:	3005bf38 	.word	0x3005bf38
30052524:	3005bf58 	.word	0x3005bf58
30052528:	3005bf68 	.word	0x3005bf68

3005252c <SeqList_Create>:
	int length;
	SeqListNode* node;
};

SeqList* SeqList_Create(int capacity)
{
3005252c:	e92d4800 	push	{fp, lr}
30052530:	e28db004 	add	fp, sp, #4	; 0x4
30052534:	e24dd010 	sub	sp, sp, #16	; 0x10
30052538:	e50b0010 	str	r0, [fp, #-16]
	TSeqList* ret = NULL;
3005253c:	e3a03000 	mov	r3, #0	; 0x0
30052540:	e50b3008 	str	r3, [fp, #-8]
	
	if(capacity >= 0)
30052544:	e51b3010 	ldr	r3, [fp, #-16]
30052548:	e3530000 	cmp	r3, #0	; 0x0
3005254c:	ba000006 	blt	3005256c <SeqList_Create+0x40>
	{
		ret = (SeqList*)malloc(sizeof(TSeqList) + sizeof(SeqListNode) * capacity);
30052550:	e51b3010 	ldr	r3, [fp, #-16]
30052554:	e2833003 	add	r3, r3, #3	; 0x3
30052558:	e1a03103 	lsl	r3, r3, #2
3005255c:	e1a00003 	mov	r0, r3
30052560:	ebfffd39 	bl	30051a4c <malloc>
30052564:	e1a03000 	mov	r3, r0
30052568:	e50b3008 	str	r3, [fp, #-8]
	}
	
	//Init
	if(ret != NULL)
3005256c:	e51b3008 	ldr	r3, [fp, #-8]
30052570:	e3530000 	cmp	r3, #0	; 0x0
30052574:	0a000011 	beq	300525c0 <SeqList_Create+0x94>
	{
		ret->capacity = capacity;
30052578:	e51b2008 	ldr	r2, [fp, #-8]
3005257c:	e51b3010 	ldr	r3, [fp, #-16]
30052580:	e5823000 	str	r3, [r2]
		ret->length = 0;
30052584:	e51b2008 	ldr	r2, [fp, #-8]
30052588:	e3a03000 	mov	r3, #0	; 0x0
3005258c:	e5823004 	str	r3, [r2, #4]
		ret->node = (SeqListNode*)(ret + 1);
30052590:	e51b3008 	ldr	r3, [fp, #-8]
30052594:	e283200c 	add	r2, r3, #12	; 0xc
30052598:	e51b3008 	ldr	r3, [fp, #-8]
3005259c:	e5832008 	str	r2, [r3, #8]
		
		memset(ret->node, 0, sizeof(SeqListNode) * capacity);
300525a0:	e51b3008 	ldr	r3, [fp, #-8]
300525a4:	e5932008 	ldr	r2, [r3, #8]
300525a8:	e51b3010 	ldr	r3, [fp, #-16]
300525ac:	e1a03103 	lsl	r3, r3, #2
300525b0:	e1a00002 	mov	r0, r2
300525b4:	e3a01000 	mov	r1, #0	; 0x0
300525b8:	e1a02003 	mov	r2, r3
300525bc:	ebfffb62 	bl	3005134c <memset>
	}
	
	return ret;
300525c0:	e51b3008 	ldr	r3, [fp, #-8]
};
300525c4:	e1a00003 	mov	r0, r3
300525c8:	e24bd004 	sub	sp, fp, #4	; 0x4
300525cc:	e8bd4800 	pop	{fp, lr}
300525d0:	e12fff1e 	bx	lr

300525d4 <SeqList_Destroy>:

void SeqList_Destroy(SeqList* seqList)
{
300525d4:	e92d4800 	push	{fp, lr}
300525d8:	e28db004 	add	fp, sp, #4	; 0x4
300525dc:	e24dd008 	sub	sp, sp, #8	; 0x8
300525e0:	e50b0008 	str	r0, [fp, #-8]
	if(seqList != NULL)
300525e4:	e51b3008 	ldr	r3, [fp, #-8]
300525e8:	e3530000 	cmp	r3, #0	; 0x0
300525ec:	0a000001 	beq	300525f8 <SeqList_Destroy+0x24>
	{
		free(seqList);
300525f0:	e51b0008 	ldr	r0, [fp, #-8]
300525f4:	ebfffd64 	bl	30051b8c <free>
	}
}
300525f8:	e24bd004 	sub	sp, fp, #4	; 0x4
300525fc:	e8bd4800 	pop	{fp, lr}
30052600:	e12fff1e 	bx	lr

30052604 <SeqList_Clear>:

void SeqList_Clear(SeqList* seqList)
{
30052604:	e52db004 	push	{fp}		; (str fp, [sp, #-4]!)
30052608:	e28db000 	add	fp, sp, #0	; 0x0
3005260c:	e24dd014 	sub	sp, sp, #20	; 0x14
30052610:	e50b0010 	str	r0, [fp, #-16]
	TSeqList* tSeqList = (TSeqList*)seqList;
30052614:	e51b3010 	ldr	r3, [fp, #-16]
30052618:	e50b3008 	str	r3, [fp, #-8]
	
	if(tSeqList != NULL)
3005261c:	e51b3008 	ldr	r3, [fp, #-8]
30052620:	e3530000 	cmp	r3, #0	; 0x0
30052624:	0a000005 	beq	30052640 <SeqList_Clear+0x3c>
	{
		tSeqList->length = 0;
30052628:	e51b2008 	ldr	r2, [fp, #-8]
3005262c:	e3a03000 	mov	r3, #0	; 0x0
30052630:	e5823004 	str	r3, [r2, #4]
		tSeqList->node = NULL;
30052634:	e51b2008 	ldr	r2, [fp, #-8]
30052638:	e3a03000 	mov	r3, #0	; 0x0
3005263c:	e5823008 	str	r3, [r2, #8]
	}
}
30052640:	e28bd000 	add	sp, fp, #0	; 0x0
30052644:	e8bd0800 	pop	{fp}
30052648:	e12fff1e 	bx	lr

3005264c <SeqList_Insert>:
//-1: Insert fail;  0 Insert Success; 1: Insert fail(Full)
int SeqList_Insert(SeqList* seqList, SeqListNode* node, int pos)
{
3005264c:	e52db004 	push	{fp}		; (str fp, [sp, #-4]!)
30052650:	e28db000 	add	fp, sp, #0	; 0x0
30052654:	e24dd024 	sub	sp, sp, #36	; 0x24
30052658:	e50b0018 	str	r0, [fp, #-24]
3005265c:	e50b101c 	str	r1, [fp, #-28]
30052660:	e50b2020 	str	r2, [fp, #-32]
	TSeqList* tSeqList = (TSeqList*)seqList;
30052664:	e51b3018 	ldr	r3, [fp, #-24]
30052668:	e50b3010 	str	r3, [fp, #-16]
	int ret = -1;
3005266c:	e3e03000 	mvn	r3, #0	; 0x0
30052670:	e50b300c 	str	r3, [fp, #-12]
	int i = 0;
30052674:	e3a03000 	mov	r3, #0	; 0x0
30052678:	e50b3008 	str	r3, [fp, #-8]

	if((tSeqList != NULL) && (node != NULL))
3005267c:	e51b3010 	ldr	r3, [fp, #-16]
30052680:	e3530000 	cmp	r3, #0	; 0x0
30052684:	0a00003d 	beq	30052780 <SeqList_Insert+0x134>
30052688:	e51b301c 	ldr	r3, [fp, #-28]
3005268c:	e3530000 	cmp	r3, #0	; 0x0
30052690:	0a00003a 	beq	30052780 <SeqList_Insert+0x134>
	{
		if(pos > tSeqList->length)
30052694:	e51b3010 	ldr	r3, [fp, #-16]
30052698:	e5932004 	ldr	r2, [r3, #4]
3005269c:	e51b3020 	ldr	r3, [fp, #-32]
300526a0:	e1520003 	cmp	r2, r3
300526a4:	aa000002 	bge	300526b4 <SeqList_Insert+0x68>
		{
			pos = tSeqList->length;
300526a8:	e51b3010 	ldr	r3, [fp, #-16]
300526ac:	e5933004 	ldr	r3, [r3, #4]
300526b0:	e50b3020 	str	r3, [fp, #-32]
		}
		
		if((tSeqList->length < tSeqList->capacity) && (pos >= 0))
300526b4:	e51b3010 	ldr	r3, [fp, #-16]
300526b8:	e5932004 	ldr	r2, [r3, #4]
300526bc:	e51b3010 	ldr	r3, [fp, #-16]
300526c0:	e5933000 	ldr	r3, [r3]
300526c4:	e1520003 	cmp	r2, r3
300526c8:	aa00002a 	bge	30052778 <SeqList_Insert+0x12c>
300526cc:	e51b3020 	ldr	r3, [fp, #-32]
300526d0:	e3530000 	cmp	r3, #0	; 0x0
300526d4:	ba000027 	blt	30052778 <SeqList_Insert+0x12c>
		{
			//Move the node after pos
			for(i = tSeqList->length; i > pos; i--)
300526d8:	e51b3010 	ldr	r3, [fp, #-16]
300526dc:	e5933004 	ldr	r3, [r3, #4]
300526e0:	e50b3008 	str	r3, [fp, #-8]
300526e4:	ea000010 	b	3005272c <SeqList_Insert+0xe0>
			{
				tSeqList->node[i] = tSeqList->node[i-1];
300526e8:	e51b3010 	ldr	r3, [fp, #-16]
300526ec:	e5932008 	ldr	r2, [r3, #8]
300526f0:	e51b3008 	ldr	r3, [fp, #-8]
300526f4:	e1a03103 	lsl	r3, r3, #2
300526f8:	e0822003 	add	r2, r2, r3
300526fc:	e51b3010 	ldr	r3, [fp, #-16]
30052700:	e5931008 	ldr	r1, [r3, #8]
30052704:	e51b3008 	ldr	r3, [fp, #-8]
30052708:	e2633001 	rsb	r3, r3, #1	; 0x1
3005270c:	e1a03103 	lsl	r3, r3, #2
30052710:	e2633000 	rsb	r3, r3, #0	; 0x0
30052714:	e0813003 	add	r3, r1, r3
30052718:	e5933000 	ldr	r3, [r3]
3005271c:	e5823000 	str	r3, [r2]
		}
		
		if((tSeqList->length < tSeqList->capacity) && (pos >= 0))
		{
			//Move the node after pos
			for(i = tSeqList->length; i > pos; i--)
30052720:	e51b3008 	ldr	r3, [fp, #-8]
30052724:	e2433001 	sub	r3, r3, #1	; 0x1
30052728:	e50b3008 	str	r3, [fp, #-8]
3005272c:	e51b2008 	ldr	r2, [fp, #-8]
30052730:	e51b3020 	ldr	r3, [fp, #-32]
30052734:	e1520003 	cmp	r2, r3
30052738:	caffffea 	bgt	300526e8 <SeqList_Insert+0x9c>
			{
				tSeqList->node[i] = tSeqList->node[i-1];
			}
			
			tSeqList->node[pos] = (SeqListNode)node;
3005273c:	e51b3010 	ldr	r3, [fp, #-16]
30052740:	e5932008 	ldr	r2, [r3, #8]
30052744:	e51b3020 	ldr	r3, [fp, #-32]
30052748:	e1a03103 	lsl	r3, r3, #2
3005274c:	e0822003 	add	r2, r2, r3
30052750:	e51b301c 	ldr	r3, [fp, #-28]
30052754:	e5823000 	str	r3, [r2]
			
			tSeqList->length = tSeqList->length  + 1;
30052758:	e51b3010 	ldr	r3, [fp, #-16]
3005275c:	e5933004 	ldr	r3, [r3, #4]
30052760:	e2832001 	add	r2, r3, #1	; 0x1
30052764:	e51b3010 	ldr	r3, [fp, #-16]
30052768:	e5832004 	str	r2, [r3, #4]
			
			ret = 0;
3005276c:	e3a03000 	mov	r3, #0	; 0x0
30052770:	e50b300c 	str	r3, [fp, #-12]
30052774:	ea000001 	b	30052780 <SeqList_Insert+0x134>
		}
		else
		{
			ret = 1;
30052778:	e3a03001 	mov	r3, #1	; 0x1
3005277c:	e50b300c 	str	r3, [fp, #-12]
		}
		
	}
	
	return ret;
30052780:	e51b300c 	ldr	r3, [fp, #-12]
}
30052784:	e1a00003 	mov	r0, r3
30052788:	e28bd000 	add	sp, fp, #0	; 0x0
3005278c:	e8bd0800 	pop	{fp}
30052790:	e12fff1e 	bx	lr

30052794 <SeqList_Delete>:

SeqListNode* SeqList_Delete(SeqList* seqList, int pos)
{
30052794:	e52db004 	push	{fp}		; (str fp, [sp, #-4]!)
30052798:	e28db000 	add	fp, sp, #0	; 0x0
3005279c:	e24dd01c 	sub	sp, sp, #28	; 0x1c
300527a0:	e50b0018 	str	r0, [fp, #-24]
300527a4:	e50b101c 	str	r1, [fp, #-28]
	TSeqList* tSeqList = (TSeqList*)seqList;
300527a8:	e51b3018 	ldr	r3, [fp, #-24]
300527ac:	e50b3010 	str	r3, [fp, #-16]
	SeqListNode* ret = NULL;
300527b0:	e3a03000 	mov	r3, #0	; 0x0
300527b4:	e50b300c 	str	r3, [fp, #-12]
	int i = 0;
300527b8:	e3a03000 	mov	r3, #0	; 0x0
300527bc:	e50b3008 	str	r3, [fp, #-8]
	
	if((tSeqList != NULL) && (pos >= 0) && (pos < tSeqList->length))
300527c0:	e51b3010 	ldr	r3, [fp, #-16]
300527c4:	e3530000 	cmp	r3, #0	; 0x0
300527c8:	0a000033 	beq	3005289c <SeqList_Delete+0x108>
300527cc:	e51b301c 	ldr	r3, [fp, #-28]
300527d0:	e3530000 	cmp	r3, #0	; 0x0
300527d4:	ba000030 	blt	3005289c <SeqList_Delete+0x108>
300527d8:	e51b3010 	ldr	r3, [fp, #-16]
300527dc:	e5932004 	ldr	r2, [r3, #4]
300527e0:	e51b301c 	ldr	r3, [fp, #-28]
300527e4:	e1520003 	cmp	r2, r3
300527e8:	da00002b 	ble	3005289c <SeqList_Delete+0x108>
	{
		ret = (SeqListNode*)(tSeqList->node[pos]);
300527ec:	e51b3010 	ldr	r3, [fp, #-16]
300527f0:	e5932008 	ldr	r2, [r3, #8]
300527f4:	e51b301c 	ldr	r3, [fp, #-28]
300527f8:	e1a03103 	lsl	r3, r3, #2
300527fc:	e0823003 	add	r3, r2, r3
30052800:	e5933000 	ldr	r3, [r3]
30052804:	e50b300c 	str	r3, [fp, #-12]
		
		for(i = pos; i < tSeqList->length; i++)
30052808:	e51b301c 	ldr	r3, [fp, #-28]
3005280c:	e50b3008 	str	r3, [fp, #-8]
30052810:	ea00000f 	b	30052854 <SeqList_Delete+0xc0>
		{
			tSeqList->node[i] = tSeqList->node[i+1];
30052814:	e51b3010 	ldr	r3, [fp, #-16]
30052818:	e5932008 	ldr	r2, [r3, #8]
3005281c:	e51b3008 	ldr	r3, [fp, #-8]
30052820:	e1a03103 	lsl	r3, r3, #2
30052824:	e0821003 	add	r1, r2, r3
30052828:	e51b3010 	ldr	r3, [fp, #-16]
3005282c:	e5932008 	ldr	r2, [r3, #8]
30052830:	e51b3008 	ldr	r3, [fp, #-8]
30052834:	e2833001 	add	r3, r3, #1	; 0x1
30052838:	e1a03103 	lsl	r3, r3, #2
3005283c:	e0823003 	add	r3, r2, r3
30052840:	e5933000 	ldr	r3, [r3]
30052844:	e5813000 	str	r3, [r1]
	
	if((tSeqList != NULL) && (pos >= 0) && (pos < tSeqList->length))
	{
		ret = (SeqListNode*)(tSeqList->node[pos]);
		
		for(i = pos; i < tSeqList->length; i++)
30052848:	e51b3008 	ldr	r3, [fp, #-8]
3005284c:	e2833001 	add	r3, r3, #1	; 0x1
30052850:	e50b3008 	str	r3, [fp, #-8]
30052854:	e51b3010 	ldr	r3, [fp, #-16]
30052858:	e5932004 	ldr	r2, [r3, #4]
3005285c:	e51b3008 	ldr	r3, [fp, #-8]
30052860:	e1520003 	cmp	r2, r3
30052864:	caffffea 	bgt	30052814 <SeqList_Delete+0x80>
		{
			tSeqList->node[i] = tSeqList->node[i+1];
		}
		
		tSeqList->node[tSeqList->length] = (SeqListNode)0;
30052868:	e51b3010 	ldr	r3, [fp, #-16]
3005286c:	e5932008 	ldr	r2, [r3, #8]
30052870:	e51b3010 	ldr	r3, [fp, #-16]
30052874:	e5933004 	ldr	r3, [r3, #4]
30052878:	e1a03103 	lsl	r3, r3, #2
3005287c:	e0822003 	add	r2, r2, r3
30052880:	e3a03000 	mov	r3, #0	; 0x0
30052884:	e5823000 	str	r3, [r2]
		
		tSeqList->length = tSeqList->length - 1;
30052888:	e51b3010 	ldr	r3, [fp, #-16]
3005288c:	e5933004 	ldr	r3, [r3, #4]
30052890:	e2432001 	sub	r2, r3, #1	; 0x1
30052894:	e51b3010 	ldr	r3, [fp, #-16]
30052898:	e5832004 	str	r2, [r3, #4]
	}
	
	return ret;
3005289c:	e51b300c 	ldr	r3, [fp, #-12]
}
300528a0:	e1a00003 	mov	r0, r3
300528a4:	e28bd000 	add	sp, fp, #0	; 0x0
300528a8:	e8bd0800 	pop	{fp}
300528ac:	e12fff1e 	bx	lr

300528b0 <SeqList_Get>:

SeqListNode* SeqList_Get(SeqList* seqList, int pos)
{
300528b0:	e52db004 	push	{fp}		; (str fp, [sp, #-4]!)
300528b4:	e28db000 	add	fp, sp, #0	; 0x0
300528b8:	e24dd014 	sub	sp, sp, #20	; 0x14
300528bc:	e50b0010 	str	r0, [fp, #-16]
300528c0:	e50b1014 	str	r1, [fp, #-20]
	TSeqList* tSeqList = (TSeqList*)seqList;
300528c4:	e51b3010 	ldr	r3, [fp, #-16]
300528c8:	e50b300c 	str	r3, [fp, #-12]
	SeqListNode* ret = NULL;
300528cc:	e3a03000 	mov	r3, #0	; 0x0
300528d0:	e50b3008 	str	r3, [fp, #-8]
	
	if((tSeqList != NULL) && (pos >= 0) && (pos < tSeqList->length))
300528d4:	e51b300c 	ldr	r3, [fp, #-12]
300528d8:	e3530000 	cmp	r3, #0	; 0x0
300528dc:	0a00000e 	beq	3005291c <SeqList_Get+0x6c>
300528e0:	e51b3014 	ldr	r3, [fp, #-20]
300528e4:	e3530000 	cmp	r3, #0	; 0x0
300528e8:	ba00000b 	blt	3005291c <SeqList_Get+0x6c>
300528ec:	e51b300c 	ldr	r3, [fp, #-12]
300528f0:	e5932004 	ldr	r2, [r3, #4]
300528f4:	e51b3014 	ldr	r3, [fp, #-20]
300528f8:	e1520003 	cmp	r2, r3
300528fc:	da000006 	ble	3005291c <SeqList_Get+0x6c>
	{
		ret = (SeqListNode*)(tSeqList->node[pos]);
30052900:	e51b300c 	ldr	r3, [fp, #-12]
30052904:	e5932008 	ldr	r2, [r3, #8]
30052908:	e51b3014 	ldr	r3, [fp, #-20]
3005290c:	e1a03103 	lsl	r3, r3, #2
30052910:	e0823003 	add	r3, r2, r3
30052914:	e5933000 	ldr	r3, [r3]
30052918:	e50b3008 	str	r3, [fp, #-8]
	}
	
	return ret;
3005291c:	e51b3008 	ldr	r3, [fp, #-8]
}
30052920:	e1a00003 	mov	r0, r3
30052924:	e28bd000 	add	sp, fp, #0	; 0x0
30052928:	e8bd0800 	pop	{fp}
3005292c:	e12fff1e 	bx	lr

30052930 <SeqList_Length>:

int SeqList_Length(SeqList* seqList)
{
30052930:	e52db004 	push	{fp}		; (str fp, [sp, #-4]!)
30052934:	e28db000 	add	fp, sp, #0	; 0x0
30052938:	e24dd014 	sub	sp, sp, #20	; 0x14
3005293c:	e50b0010 	str	r0, [fp, #-16]
	TSeqList* tSeqList = (TSeqList*)seqList;
30052940:	e51b3010 	ldr	r3, [fp, #-16]
30052944:	e50b3008 	str	r3, [fp, #-8]
	
	return tSeqList->length;
30052948:	e51b3008 	ldr	r3, [fp, #-8]
3005294c:	e5933004 	ldr	r3, [r3, #4]
}
30052950:	e1a00003 	mov	r0, r3
30052954:	e28bd000 	add	sp, fp, #0	; 0x0
30052958:	e8bd0800 	pop	{fp}
3005295c:	e12fff1e 	bx	lr

30052960 <SeqList_Capacity>:

int SeqList_Capacity(SeqList* seqList)
{
30052960:	e52db004 	push	{fp}		; (str fp, [sp, #-4]!)
30052964:	e28db000 	add	fp, sp, #0	; 0x0
30052968:	e24dd014 	sub	sp, sp, #20	; 0x14
3005296c:	e50b0010 	str	r0, [fp, #-16]
	TSeqList* tSeqList = (TSeqList*)seqList;
30052970:	e51b3010 	ldr	r3, [fp, #-16]
30052974:	e50b3008 	str	r3, [fp, #-8]
	
	return tSeqList->capacity;
30052978:	e51b3008 	ldr	r3, [fp, #-8]
3005297c:	e5933000 	ldr	r3, [r3]
}
30052980:	e1a00003 	mov	r0, r3
30052984:	e28bd000 	add	sp, fp, #0	; 0x0
30052988:	e8bd0800 	pop	{fp}
3005298c:	e12fff1e 	bx	lr

30052990 <SeqStack_Create>:

#include "SeqStack.h"
#include "SeqList.h"

SeqStack* SeqStack_Create(int capacity)
{
30052990:	e92d4800 	push	{fp, lr}
30052994:	e28db004 	add	fp, sp, #4	; 0x4
30052998:	e24dd008 	sub	sp, sp, #8	; 0x8
3005299c:	e50b0008 	str	r0, [fp, #-8]
	return SeqList_Create(capacity);
300529a0:	e51b0008 	ldr	r0, [fp, #-8]
300529a4:	ebfffee0 	bl	3005252c <SeqList_Create>
300529a8:	e1a03000 	mov	r3, r0
}
300529ac:	e1a00003 	mov	r0, r3
300529b0:	e24bd004 	sub	sp, fp, #4	; 0x4
300529b4:	e8bd4800 	pop	{fp, lr}
300529b8:	e12fff1e 	bx	lr

300529bc <SeqStack_Destroy>:

void SeqStack_Destroy(SeqStack* seqStack)
{
300529bc:	e92d4800 	push	{fp, lr}
300529c0:	e28db004 	add	fp, sp, #4	; 0x4
300529c4:	e24dd008 	sub	sp, sp, #8	; 0x8
300529c8:	e50b0008 	str	r0, [fp, #-8]
	SeqList_Destroy(seqStack);
300529cc:	e51b0008 	ldr	r0, [fp, #-8]
300529d0:	ebfffeff 	bl	300525d4 <SeqList_Destroy>
}
300529d4:	e24bd004 	sub	sp, fp, #4	; 0x4
300529d8:	e8bd4800 	pop	{fp, lr}
300529dc:	e12fff1e 	bx	lr

300529e0 <SeqStack_Clear>:

void SeqStack_Clear(SeqStack* seqStack)
{
300529e0:	e92d4800 	push	{fp, lr}
300529e4:	e28db004 	add	fp, sp, #4	; 0x4
300529e8:	e24dd008 	sub	sp, sp, #8	; 0x8
300529ec:	e50b0008 	str	r0, [fp, #-8]
	SeqList_Clear(seqStack);
300529f0:	e51b0008 	ldr	r0, [fp, #-8]
300529f4:	ebffff02 	bl	30052604 <SeqList_Clear>
}
300529f8:	e24bd004 	sub	sp, fp, #4	; 0x4
300529fc:	e8bd4800 	pop	{fp, lr}
30052a00:	e12fff1e 	bx	lr

30052a04 <SeqStack_Push>:

int SeqStack_Push(SeqStack* seqStack, void* item)
{
30052a04:	e92d4810 	push	{r4, fp, lr}
30052a08:	e28db008 	add	fp, sp, #8	; 0x8
30052a0c:	e24dd014 	sub	sp, sp, #20	; 0x14
30052a10:	e50b0010 	str	r0, [fp, #-16]
30052a14:	e50b1014 	str	r1, [fp, #-20]
	SeqList_Insert(seqStack, item, SeqList_Length(seqStack));
30052a18:	e51b4014 	ldr	r4, [fp, #-20]
30052a1c:	e51b0010 	ldr	r0, [fp, #-16]
30052a20:	ebffffc2 	bl	30052930 <SeqList_Length>
30052a24:	e1a03000 	mov	r3, r0
30052a28:	e51b0010 	ldr	r0, [fp, #-16]
30052a2c:	e1a01004 	mov	r1, r4
30052a30:	e1a02003 	mov	r2, r3
30052a34:	ebffff04 	bl	3005264c <SeqList_Insert>
}
30052a38:	e24bd008 	sub	sp, fp, #8	; 0x8
30052a3c:	e8bd4810 	pop	{r4, fp, lr}
30052a40:	e12fff1e 	bx	lr

30052a44 <SeqStack_Pop>:

void* SeqStack_Pop(SeqStack* seqStack)
{
30052a44:	e92d4800 	push	{fp, lr}
30052a48:	e28db004 	add	fp, sp, #4	; 0x4
30052a4c:	e24dd008 	sub	sp, sp, #8	; 0x8
30052a50:	e50b0008 	str	r0, [fp, #-8]
	return SeqList_Delete(seqStack, SeqList_Length(seqStack));
30052a54:	e51b0008 	ldr	r0, [fp, #-8]
30052a58:	ebffffb4 	bl	30052930 <SeqList_Length>
30052a5c:	e1a03000 	mov	r3, r0
30052a60:	e51b0008 	ldr	r0, [fp, #-8]
30052a64:	e1a01003 	mov	r1, r3
30052a68:	ebffff49 	bl	30052794 <SeqList_Delete>
30052a6c:	e1a03000 	mov	r3, r0
}
30052a70:	e1a00003 	mov	r0, r3
30052a74:	e24bd004 	sub	sp, fp, #4	; 0x4
30052a78:	e8bd4800 	pop	{fp, lr}
30052a7c:	e12fff1e 	bx	lr

30052a80 <SeqStack_Top>:

void* SeqStack_Top(SeqStack* seqStack)
{
30052a80:	e92d4800 	push	{fp, lr}
30052a84:	e28db004 	add	fp, sp, #4	; 0x4
30052a88:	e24dd008 	sub	sp, sp, #8	; 0x8
30052a8c:	e50b0008 	str	r0, [fp, #-8]
	return SeqList_Get(seqStack, SeqList_Length(seqStack));
30052a90:	e51b0008 	ldr	r0, [fp, #-8]
30052a94:	ebffffa5 	bl	30052930 <SeqList_Length>
30052a98:	e1a03000 	mov	r3, r0
30052a9c:	e51b0008 	ldr	r0, [fp, #-8]
30052aa0:	e1a01003 	mov	r1, r3
30052aa4:	ebffff81 	bl	300528b0 <SeqList_Get>
30052aa8:	e1a03000 	mov	r3, r0
}
30052aac:	e1a00003 	mov	r0, r3
30052ab0:	e24bd004 	sub	sp, fp, #4	; 0x4
30052ab4:	e8bd4800 	pop	{fp, lr}
30052ab8:	e12fff1e 	bx	lr

30052abc <SeqStack_Size>:

int SeqStack_Size(SeqStack* seqStack)
{
30052abc:	e92d4800 	push	{fp, lr}
30052ac0:	e28db004 	add	fp, sp, #4	; 0x4
30052ac4:	e24dd008 	sub	sp, sp, #8	; 0x8
30052ac8:	e50b0008 	str	r0, [fp, #-8]
	return SeqList_Length(seqStack);
30052acc:	e51b0008 	ldr	r0, [fp, #-8]
30052ad0:	ebffff96 	bl	30052930 <SeqList_Length>
30052ad4:	e1a03000 	mov	r3, r0
}
30052ad8:	e1a00003 	mov	r0, r3
30052adc:	e24bd004 	sub	sp, fp, #4	; 0x4
30052ae0:	e8bd4800 	pop	{fp, lr}
30052ae4:	e12fff1e 	bx	lr

30052ae8 <SeqStack_Capacity>:


int SeqStack_Capacity(SeqStack* seqStack)
{
30052ae8:	e92d4800 	push	{fp, lr}
30052aec:	e28db004 	add	fp, sp, #4	; 0x4
30052af0:	e24dd008 	sub	sp, sp, #8	; 0x8
30052af4:	e50b0008 	str	r0, [fp, #-8]
	return SeqList_Capacity(seqStack);
30052af8:	e51b0008 	ldr	r0, [fp, #-8]
30052afc:	ebffff97 	bl	30052960 <SeqList_Capacity>
30052b00:	e1a03000 	mov	r3, r0
30052b04:	e1a00003 	mov	r0, r3
30052b08:	e24bd004 	sub	sp, fp, #4	; 0x4
30052b0c:	e8bd4800 	pop	{fp, lr}
30052b10:	e12fff1e 	bx	lr

30052b14 <SeqQueue_Create>:

#include "SeqList.h"
#include "SeqQueue.h"

SeqQueue* SeqQueue_Create(int capacity)
{
30052b14:	e92d4800 	push	{fp, lr}
30052b18:	e28db004 	add	fp, sp, #4	; 0x4
30052b1c:	e24dd008 	sub	sp, sp, #8	; 0x8
30052b20:	e50b0008 	str	r0, [fp, #-8]
	return SeqList_Create(capacity);
30052b24:	e51b0008 	ldr	r0, [fp, #-8]
30052b28:	ebfffe7f 	bl	3005252c <SeqList_Create>
30052b2c:	e1a03000 	mov	r3, r0
}
30052b30:	e1a00003 	mov	r0, r3
30052b34:	e24bd004 	sub	sp, fp, #4	; 0x4
30052b38:	e8bd4800 	pop	{fp, lr}
30052b3c:	e12fff1e 	bx	lr

30052b40 <SeqQueue_Destroy>:

void SeqQueue_Destroy(SeqQueue* seqQueue)
{
30052b40:	e92d4800 	push	{fp, lr}
30052b44:	e28db004 	add	fp, sp, #4	; 0x4
30052b48:	e24dd008 	sub	sp, sp, #8	; 0x8
30052b4c:	e50b0008 	str	r0, [fp, #-8]
	return SeqList_Destroy(seqQueue);
30052b50:	e51b0008 	ldr	r0, [fp, #-8]
30052b54:	ebfffe9e 	bl	300525d4 <SeqList_Destroy>
}
30052b58:	e24bd004 	sub	sp, fp, #4	; 0x4
30052b5c:	e8bd4800 	pop	{fp, lr}
30052b60:	e12fff1e 	bx	lr

30052b64 <SeqQueue_Clear>:

void SeqQueue_Clear(SeqQueue* seqQueue)
{
30052b64:	e92d4800 	push	{fp, lr}
30052b68:	e28db004 	add	fp, sp, #4	; 0x4
30052b6c:	e24dd008 	sub	sp, sp, #8	; 0x8
30052b70:	e50b0008 	str	r0, [fp, #-8]
	return SeqList_Clear(seqQueue);
30052b74:	e51b0008 	ldr	r0, [fp, #-8]
30052b78:	ebfffea1 	bl	30052604 <SeqList_Clear>
}
30052b7c:	e24bd004 	sub	sp, fp, #4	; 0x4
30052b80:	e8bd4800 	pop	{fp, lr}
30052b84:	e12fff1e 	bx	lr

30052b88 <SeqQueue_Append>:

int SeqQueue_Append(SeqQueue* seqQueue, void* item)
{
30052b88:	e92d4810 	push	{r4, fp, lr}
30052b8c:	e28db008 	add	fp, sp, #8	; 0x8
30052b90:	e24dd00c 	sub	sp, sp, #12	; 0xc
30052b94:	e50b0010 	str	r0, [fp, #-16]
30052b98:	e50b1014 	str	r1, [fp, #-20]
	return SeqList_Insert(seqQueue, item, SeqList_Length(seqQueue));
30052b9c:	e51b4014 	ldr	r4, [fp, #-20]
30052ba0:	e51b0010 	ldr	r0, [fp, #-16]
30052ba4:	ebffff61 	bl	30052930 <SeqList_Length>
30052ba8:	e1a03000 	mov	r3, r0
30052bac:	e51b0010 	ldr	r0, [fp, #-16]
30052bb0:	e1a01004 	mov	r1, r4
30052bb4:	e1a02003 	mov	r2, r3
30052bb8:	ebfffea3 	bl	3005264c <SeqList_Insert>
30052bbc:	e1a03000 	mov	r3, r0
}
30052bc0:	e1a00003 	mov	r0, r3
30052bc4:	e24bd008 	sub	sp, fp, #8	; 0x8
30052bc8:	e8bd4810 	pop	{r4, fp, lr}
30052bcc:	e12fff1e 	bx	lr

30052bd0 <SeqQueue_Retrieve>:

void* SeqQueue_Retrieve(SeqQueue* seqQueue)
{
30052bd0:	e92d4800 	push	{fp, lr}
30052bd4:	e28db004 	add	fp, sp, #4	; 0x4
30052bd8:	e24dd008 	sub	sp, sp, #8	; 0x8
30052bdc:	e50b0008 	str	r0, [fp, #-8]
	return SeqList_Delete(seqQueue, 0);
30052be0:	e51b0008 	ldr	r0, [fp, #-8]
30052be4:	e3a01000 	mov	r1, #0	; 0x0
30052be8:	ebfffee9 	bl	30052794 <SeqList_Delete>
30052bec:	e1a03000 	mov	r3, r0
}
30052bf0:	e1a00003 	mov	r0, r3
30052bf4:	e24bd004 	sub	sp, fp, #4	; 0x4
30052bf8:	e8bd4800 	pop	{fp, lr}
30052bfc:	e12fff1e 	bx	lr

30052c00 <SeqQueue_Header>:

void* SeqQueue_Header(SeqQueue* seqQueue)
{
30052c00:	e92d4800 	push	{fp, lr}
30052c04:	e28db004 	add	fp, sp, #4	; 0x4
30052c08:	e24dd008 	sub	sp, sp, #8	; 0x8
30052c0c:	e50b0008 	str	r0, [fp, #-8]
	return SeqList_Get(seqQueue, 0);
30052c10:	e51b0008 	ldr	r0, [fp, #-8]
30052c14:	e3a01000 	mov	r1, #0	; 0x0
30052c18:	ebffff24 	bl	300528b0 <SeqList_Get>
30052c1c:	e1a03000 	mov	r3, r0
}
30052c20:	e1a00003 	mov	r0, r3
30052c24:	e24bd004 	sub	sp, fp, #4	; 0x4
30052c28:	e8bd4800 	pop	{fp, lr}
30052c2c:	e12fff1e 	bx	lr

30052c30 <SeqQueue_Length>:

int SeqQueue_Length(SeqQueue* seqQueue)
{
30052c30:	e92d4800 	push	{fp, lr}
30052c34:	e28db004 	add	fp, sp, #4	; 0x4
30052c38:	e24dd008 	sub	sp, sp, #8	; 0x8
30052c3c:	e50b0008 	str	r0, [fp, #-8]
	return SeqList_Length(seqQueue);
30052c40:	e51b0008 	ldr	r0, [fp, #-8]
30052c44:	ebffff39 	bl	30052930 <SeqList_Length>
30052c48:	e1a03000 	mov	r3, r0
}
30052c4c:	e1a00003 	mov	r0, r3
30052c50:	e24bd004 	sub	sp, fp, #4	; 0x4
30052c54:	e8bd4800 	pop	{fp, lr}
30052c58:	e12fff1e 	bx	lr

30052c5c <SeqQueue_Capacity>:

int SeqQueue_Capacity(SeqQueue* seqQueue)
{
30052c5c:	e92d4800 	push	{fp, lr}
30052c60:	e28db004 	add	fp, sp, #4	; 0x4
30052c64:	e24dd008 	sub	sp, sp, #8	; 0x8
30052c68:	e50b0008 	str	r0, [fp, #-8]
	return SeqList_Capacity(seqQueue);
30052c6c:	e51b0008 	ldr	r0, [fp, #-8]
30052c70:	ebffff3a 	bl	30052960 <SeqList_Capacity>
30052c74:	e1a03000 	mov	r3, r0
30052c78:	e1a00003 	mov	r0, r3
30052c7c:	e24bd004 	sub	sp, fp, #4	; 0x4
30052c80:	e8bd4800 	pop	{fp, lr}
30052c84:	e12fff1e 	bx	lr

30052c88 <LinkList_Create>:
    LinkListNode header;
    int length;
} TLinkList;

LinkList* LinkList_Create() // O(1)
{
30052c88:	e92d4800 	push	{fp, lr}
30052c8c:	e28db004 	add	fp, sp, #4	; 0x4
30052c90:	e24dd008 	sub	sp, sp, #8	; 0x8
    TLinkList* ret = (TLinkList*)malloc(sizeof(TLinkList));
30052c94:	e3a00008 	mov	r0, #8	; 0x8
30052c98:	ebfffb6b 	bl	30051a4c <malloc>
30052c9c:	e1a03000 	mov	r3, r0
30052ca0:	e50b3008 	str	r3, [fp, #-8]
    
    if( ret != NULL )
30052ca4:	e51b3008 	ldr	r3, [fp, #-8]
30052ca8:	e3530000 	cmp	r3, #0	; 0x0
30052cac:	0a000005 	beq	30052cc8 <LinkList_Create+0x40>
    {
        ret->length = 0;
30052cb0:	e51b2008 	ldr	r2, [fp, #-8]
30052cb4:	e3a03000 	mov	r3, #0	; 0x0
30052cb8:	e5823004 	str	r3, [r2, #4]
        ret->header.next = NULL;
30052cbc:	e51b2008 	ldr	r2, [fp, #-8]
30052cc0:	e3a03000 	mov	r3, #0	; 0x0
30052cc4:	e5823000 	str	r3, [r2]
    }
    
    return ret;
30052cc8:	e51b3008 	ldr	r3, [fp, #-8]
}
30052ccc:	e1a00003 	mov	r0, r3
30052cd0:	e24bd004 	sub	sp, fp, #4	; 0x4
30052cd4:	e8bd4800 	pop	{fp, lr}
30052cd8:	e12fff1e 	bx	lr

30052cdc <LinkList_Destroy>:

void LinkList_Destroy(LinkList* list) // O(1)
{
30052cdc:	e92d4800 	push	{fp, lr}
30052ce0:	e28db004 	add	fp, sp, #4	; 0x4
30052ce4:	e24dd008 	sub	sp, sp, #8	; 0x8
30052ce8:	e50b0008 	str	r0, [fp, #-8]
    free(list);
30052cec:	e51b0008 	ldr	r0, [fp, #-8]
30052cf0:	ebfffba5 	bl	30051b8c <free>
}
30052cf4:	e24bd004 	sub	sp, fp, #4	; 0x4
30052cf8:	e8bd4800 	pop	{fp, lr}
30052cfc:	e12fff1e 	bx	lr

30052d00 <LinkList_Clear>:

void LinkList_Clear(LinkList* list) // O(1)
{
30052d00:	e52db004 	push	{fp}		; (str fp, [sp, #-4]!)
30052d04:	e28db000 	add	fp, sp, #0	; 0x0
30052d08:	e24dd014 	sub	sp, sp, #20	; 0x14
30052d0c:	e50b0010 	str	r0, [fp, #-16]
    TLinkList* sList = (TLinkList*)list;
30052d10:	e51b3010 	ldr	r3, [fp, #-16]
30052d14:	e50b3008 	str	r3, [fp, #-8]
    
    if( sList != NULL )
30052d18:	e51b3008 	ldr	r3, [fp, #-8]
30052d1c:	e3530000 	cmp	r3, #0	; 0x0
30052d20:	0a000005 	beq	30052d3c <LinkList_Clear+0x3c>
    {
        sList->length = 0;
30052d24:	e51b2008 	ldr	r2, [fp, #-8]
30052d28:	e3a03000 	mov	r3, #0	; 0x0
30052d2c:	e5823004 	str	r3, [r2, #4]
        sList->header.next = NULL;
30052d30:	e51b2008 	ldr	r2, [fp, #-8]
30052d34:	e3a03000 	mov	r3, #0	; 0x0
30052d38:	e5823000 	str	r3, [r2]
    }
}
30052d3c:	e28bd000 	add	sp, fp, #0	; 0x0
30052d40:	e8bd0800 	pop	{fp}
30052d44:	e12fff1e 	bx	lr

30052d48 <LinkList_Length>:

int LinkList_Length(LinkList* list) // O(1)
{
30052d48:	e52db004 	push	{fp}		; (str fp, [sp, #-4]!)
30052d4c:	e28db000 	add	fp, sp, #0	; 0x0
30052d50:	e24dd014 	sub	sp, sp, #20	; 0x14
30052d54:	e50b0010 	str	r0, [fp, #-16]
    TLinkList* sList = (TLinkList*)list;
30052d58:	e51b3010 	ldr	r3, [fp, #-16]
30052d5c:	e50b300c 	str	r3, [fp, #-12]
    int ret = -1;
30052d60:	e3e03000 	mvn	r3, #0	; 0x0
30052d64:	e50b3008 	str	r3, [fp, #-8]
    
    if( sList != NULL )
30052d68:	e51b300c 	ldr	r3, [fp, #-12]
30052d6c:	e3530000 	cmp	r3, #0	; 0x0
30052d70:	0a000002 	beq	30052d80 <LinkList_Length+0x38>
    {
        ret = sList->length;
30052d74:	e51b300c 	ldr	r3, [fp, #-12]
30052d78:	e5933004 	ldr	r3, [r3, #4]
30052d7c:	e50b3008 	str	r3, [fp, #-8]
    }
    
    return ret;
30052d80:	e51b3008 	ldr	r3, [fp, #-8]
}
30052d84:	e1a00003 	mov	r0, r3
30052d88:	e28bd000 	add	sp, fp, #0	; 0x0
30052d8c:	e8bd0800 	pop	{fp}
30052d90:	e12fff1e 	bx	lr

30052d94 <LinkList_Insert>:

int LinkList_Insert(LinkList* list, LinkListNode* node, int pos) // O(n)
{ 
30052d94:	e52db004 	push	{fp}		; (str fp, [sp, #-4]!)
30052d98:	e28db000 	add	fp, sp, #0	; 0x0
30052d9c:	e24dd024 	sub	sp, sp, #36	; 0x24
30052da0:	e50b0018 	str	r0, [fp, #-24]
30052da4:	e50b101c 	str	r1, [fp, #-28]
30052da8:	e50b2020 	str	r2, [fp, #-32]
    TLinkList* sList = (TLinkList*)list;
30052dac:	e51b3018 	ldr	r3, [fp, #-24]
30052db0:	e50b3014 	str	r3, [fp, #-20]
    int ret = (sList != NULL) && (pos >= 0) && (node != NULL);
30052db4:	e51b3014 	ldr	r3, [fp, #-20]
30052db8:	e3530000 	cmp	r3, #0	; 0x0
30052dbc:	0a000008 	beq	30052de4 <LinkList_Insert+0x50>
30052dc0:	e51b3020 	ldr	r3, [fp, #-32]
30052dc4:	e3530000 	cmp	r3, #0	; 0x0
30052dc8:	ba000005 	blt	30052de4 <LinkList_Insert+0x50>
30052dcc:	e51b301c 	ldr	r3, [fp, #-28]
30052dd0:	e3530000 	cmp	r3, #0	; 0x0
30052dd4:	0a000002 	beq	30052de4 <LinkList_Insert+0x50>
30052dd8:	e3a03001 	mov	r3, #1	; 0x1
30052ddc:	e50b3024 	str	r3, [fp, #-36]
30052de0:	ea000001 	b	30052dec <LinkList_Insert+0x58>
30052de4:	e3a03000 	mov	r3, #0	; 0x0
30052de8:	e50b3024 	str	r3, [fp, #-36]
30052dec:	e51b3024 	ldr	r3, [fp, #-36]
30052df0:	e50b3010 	str	r3, [fp, #-16]
    int i = 0;
30052df4:	e3a03000 	mov	r3, #0	; 0x0
30052df8:	e50b300c 	str	r3, [fp, #-12]
    
    if( ret )
30052dfc:	e51b3010 	ldr	r3, [fp, #-16]
30052e00:	e3530000 	cmp	r3, #0	; 0x0
30052e04:	0a00001e 	beq	30052e84 <LinkList_Insert+0xf0>
    {
        LinkListNode* current = (LinkListNode*)sList;
30052e08:	e51b3014 	ldr	r3, [fp, #-20]
30052e0c:	e50b3008 	str	r3, [fp, #-8]
        
        for(i=0; (i<pos) && (current->next != NULL); i++)
30052e10:	e3a03000 	mov	r3, #0	; 0x0
30052e14:	e50b300c 	str	r3, [fp, #-12]
30052e18:	ea000005 	b	30052e34 <LinkList_Insert+0xa0>
        {
            current = current->next;
30052e1c:	e51b3008 	ldr	r3, [fp, #-8]
30052e20:	e5933000 	ldr	r3, [r3]
30052e24:	e50b3008 	str	r3, [fp, #-8]
    
    if( ret )
    {
        LinkListNode* current = (LinkListNode*)sList;
        
        for(i=0; (i<pos) && (current->next != NULL); i++)
30052e28:	e51b300c 	ldr	r3, [fp, #-12]
30052e2c:	e2833001 	add	r3, r3, #1	; 0x1
30052e30:	e50b300c 	str	r3, [fp, #-12]
30052e34:	e51b200c 	ldr	r2, [fp, #-12]
30052e38:	e51b3020 	ldr	r3, [fp, #-32]
30052e3c:	e1520003 	cmp	r2, r3
30052e40:	aa000003 	bge	30052e54 <LinkList_Insert+0xc0>
30052e44:	e51b3008 	ldr	r3, [fp, #-8]
30052e48:	e5933000 	ldr	r3, [r3]
30052e4c:	e3530000 	cmp	r3, #0	; 0x0
30052e50:	1afffff1 	bne	30052e1c <LinkList_Insert+0x88>
        {
            current = current->next;
        }
        
        node->next = current->next;
30052e54:	e51b3008 	ldr	r3, [fp, #-8]
30052e58:	e5932000 	ldr	r2, [r3]
30052e5c:	e51b301c 	ldr	r3, [fp, #-28]
30052e60:	e5832000 	str	r2, [r3]
        current->next = node;
30052e64:	e51b2008 	ldr	r2, [fp, #-8]
30052e68:	e51b301c 	ldr	r3, [fp, #-28]
30052e6c:	e5823000 	str	r3, [r2]
        
        sList->length++;
30052e70:	e51b3014 	ldr	r3, [fp, #-20]
30052e74:	e5933004 	ldr	r3, [r3, #4]
30052e78:	e2832001 	add	r2, r3, #1	; 0x1
30052e7c:	e51b3014 	ldr	r3, [fp, #-20]
30052e80:	e5832004 	str	r2, [r3, #4]
    }
    
    return ret;
30052e84:	e51b3010 	ldr	r3, [fp, #-16]
}
30052e88:	e1a00003 	mov	r0, r3
30052e8c:	e28bd000 	add	sp, fp, #0	; 0x0
30052e90:	e8bd0800 	pop	{fp}
30052e94:	e12fff1e 	bx	lr

30052e98 <LinkList_Get>:

LinkListNode* LinkList_Get(LinkList* list, int pos) // O(n)
{
30052e98:	e52db004 	push	{fp}		; (str fp, [sp, #-4]!)
30052e9c:	e28db000 	add	fp, sp, #0	; 0x0
30052ea0:	e24dd01c 	sub	sp, sp, #28	; 0x1c
30052ea4:	e50b0018 	str	r0, [fp, #-24]
30052ea8:	e50b101c 	str	r1, [fp, #-28]
    TLinkList* sList = (TLinkList*)list;
30052eac:	e51b3018 	ldr	r3, [fp, #-24]
30052eb0:	e50b3014 	str	r3, [fp, #-20]
    LinkListNode* ret = NULL;
30052eb4:	e3a03000 	mov	r3, #0	; 0x0
30052eb8:	e50b3010 	str	r3, [fp, #-16]
    int i = 0;
30052ebc:	e3a03000 	mov	r3, #0	; 0x0
30052ec0:	e50b300c 	str	r3, [fp, #-12]
    
    if( (sList != NULL) && (0 <= pos) && (pos < sList->length) )
30052ec4:	e51b3014 	ldr	r3, [fp, #-20]
30052ec8:	e3530000 	cmp	r3, #0	; 0x0
30052ecc:	0a000019 	beq	30052f38 <LinkList_Get+0xa0>
30052ed0:	e51b301c 	ldr	r3, [fp, #-28]
30052ed4:	e3530000 	cmp	r3, #0	; 0x0
30052ed8:	ba000016 	blt	30052f38 <LinkList_Get+0xa0>
30052edc:	e51b3014 	ldr	r3, [fp, #-20]
30052ee0:	e5932004 	ldr	r2, [r3, #4]
30052ee4:	e51b301c 	ldr	r3, [fp, #-28]
30052ee8:	e1520003 	cmp	r2, r3
30052eec:	da000011 	ble	30052f38 <LinkList_Get+0xa0>
    {
        LinkListNode* current = (LinkListNode*)sList;
30052ef0:	e51b3014 	ldr	r3, [fp, #-20]
30052ef4:	e50b3008 	str	r3, [fp, #-8]
        
        for(i=0; i<pos; i++)
30052ef8:	e3a03000 	mov	r3, #0	; 0x0
30052efc:	e50b300c 	str	r3, [fp, #-12]
30052f00:	ea000005 	b	30052f1c <LinkList_Get+0x84>
        {
            current = current->next;
30052f04:	e51b3008 	ldr	r3, [fp, #-8]
30052f08:	e5933000 	ldr	r3, [r3]
30052f0c:	e50b3008 	str	r3, [fp, #-8]
    
    if( (sList != NULL) && (0 <= pos) && (pos < sList->length) )
    {
        LinkListNode* current = (LinkListNode*)sList;
        
        for(i=0; i<pos; i++)
30052f10:	e51b300c 	ldr	r3, [fp, #-12]
30052f14:	e2833001 	add	r3, r3, #1	; 0x1
30052f18:	e50b300c 	str	r3, [fp, #-12]
30052f1c:	e51b200c 	ldr	r2, [fp, #-12]
30052f20:	e51b301c 	ldr	r3, [fp, #-28]
30052f24:	e1520003 	cmp	r2, r3
30052f28:	bafffff5 	blt	30052f04 <LinkList_Get+0x6c>
        {
            current = current->next;
        }
        
        ret = current->next;
30052f2c:	e51b3008 	ldr	r3, [fp, #-8]
30052f30:	e5933000 	ldr	r3, [r3]
30052f34:	e50b3010 	str	r3, [fp, #-16]
    }
    
    return ret;
30052f38:	e51b3010 	ldr	r3, [fp, #-16]
}
30052f3c:	e1a00003 	mov	r0, r3
30052f40:	e28bd000 	add	sp, fp, #0	; 0x0
30052f44:	e8bd0800 	pop	{fp}
30052f48:	e12fff1e 	bx	lr

30052f4c <LinkList_Delete>:

LinkListNode* LinkList_Delete(LinkList* list, int pos) // O(n)
{
30052f4c:	e52db004 	push	{fp}		; (str fp, [sp, #-4]!)
30052f50:	e28db000 	add	fp, sp, #0	; 0x0
30052f54:	e24dd01c 	sub	sp, sp, #28	; 0x1c
30052f58:	e50b0018 	str	r0, [fp, #-24]
30052f5c:	e50b101c 	str	r1, [fp, #-28]
    TLinkList* sList = (TLinkList*)list;
30052f60:	e51b3018 	ldr	r3, [fp, #-24]
30052f64:	e50b3014 	str	r3, [fp, #-20]
    LinkListNode* ret = NULL;
30052f68:	e3a03000 	mov	r3, #0	; 0x0
30052f6c:	e50b3010 	str	r3, [fp, #-16]
    int i = 0;
30052f70:	e3a03000 	mov	r3, #0	; 0x0
30052f74:	e50b300c 	str	r3, [fp, #-12]
    
    if( (sList != NULL) && (0 <= pos) && (pos < sList->length) )
30052f78:	e51b3014 	ldr	r3, [fp, #-20]
30052f7c:	e3530000 	cmp	r3, #0	; 0x0
30052f80:	0a000022 	beq	30053010 <LinkList_Delete+0xc4>
30052f84:	e51b301c 	ldr	r3, [fp, #-28]
30052f88:	e3530000 	cmp	r3, #0	; 0x0
30052f8c:	ba00001f 	blt	30053010 <LinkList_Delete+0xc4>
30052f90:	e51b3014 	ldr	r3, [fp, #-20]
30052f94:	e5932004 	ldr	r2, [r3, #4]
30052f98:	e51b301c 	ldr	r3, [fp, #-28]
30052f9c:	e1520003 	cmp	r2, r3
30052fa0:	da00001a 	ble	30053010 <LinkList_Delete+0xc4>
    {
        LinkListNode* current = (LinkListNode*)sList;
30052fa4:	e51b3014 	ldr	r3, [fp, #-20]
30052fa8:	e50b3008 	str	r3, [fp, #-8]
        
        for(i=0; i<pos; i++)
30052fac:	e3a03000 	mov	r3, #0	; 0x0
30052fb0:	e50b300c 	str	r3, [fp, #-12]
30052fb4:	ea000005 	b	30052fd0 <LinkList_Delete+0x84>
        {
            current = current->next;
30052fb8:	e51b3008 	ldr	r3, [fp, #-8]
30052fbc:	e5933000 	ldr	r3, [r3]
30052fc0:	e50b3008 	str	r3, [fp, #-8]
    
    if( (sList != NULL) && (0 <= pos) && (pos < sList->length) )
    {
        LinkListNode* current = (LinkListNode*)sList;
        
        for(i=0; i<pos; i++)
30052fc4:	e51b300c 	ldr	r3, [fp, #-12]
30052fc8:	e2833001 	add	r3, r3, #1	; 0x1
30052fcc:	e50b300c 	str	r3, [fp, #-12]
30052fd0:	e51b200c 	ldr	r2, [fp, #-12]
30052fd4:	e51b301c 	ldr	r3, [fp, #-28]
30052fd8:	e1520003 	cmp	r2, r3
30052fdc:	bafffff5 	blt	30052fb8 <LinkList_Delete+0x6c>
        {
            current = current->next;
        }
        
        ret = current->next;
30052fe0:	e51b3008 	ldr	r3, [fp, #-8]
30052fe4:	e5933000 	ldr	r3, [r3]
30052fe8:	e50b3010 	str	r3, [fp, #-16]
        current->next = ret->next;
30052fec:	e51b3010 	ldr	r3, [fp, #-16]
30052ff0:	e5932000 	ldr	r2, [r3]
30052ff4:	e51b3008 	ldr	r3, [fp, #-8]
30052ff8:	e5832000 	str	r2, [r3]
        
        sList->length--;
30052ffc:	e51b3014 	ldr	r3, [fp, #-20]
30053000:	e5933004 	ldr	r3, [r3, #4]
30053004:	e2432001 	sub	r2, r3, #1	; 0x1
30053008:	e51b3014 	ldr	r3, [fp, #-20]
3005300c:	e5832004 	str	r2, [r3, #4]
    }
    
    return ret;
30053010:	e51b3010 	ldr	r3, [fp, #-16]
}
30053014:	e1a00003 	mov	r0, r3
30053018:	e28bd000 	add	sp, fp, #0	; 0x0
3005301c:	e8bd0800 	pop	{fp}
30053020:	e12fff1e 	bx	lr

30053024 <LinkStack_Create>:
	LinkListNode header;
	void* item;
} TLinkStackNode;

LinkStack* LinkStack_Create()
{
30053024:	e92d4800 	push	{fp, lr}
30053028:	e28db004 	add	fp, sp, #4	; 0x4
	return LinkList_Create();
3005302c:	ebffff15 	bl	30052c88 <LinkList_Create>
30053030:	e1a03000 	mov	r3, r0
}
30053034:	e1a00003 	mov	r0, r3
30053038:	e24bd004 	sub	sp, fp, #4	; 0x4
3005303c:	e8bd4800 	pop	{fp, lr}
30053040:	e12fff1e 	bx	lr

30053044 <LinkStack_Destroy>:

void LinkStack_Destroy(LinkStack* linkStack)
{
30053044:	e92d4800 	push	{fp, lr}
30053048:	e28db004 	add	fp, sp, #4	; 0x4
3005304c:	e24dd008 	sub	sp, sp, #8	; 0x8
30053050:	e50b0008 	str	r0, [fp, #-8]
	LinkStack_Clear(linkStack);
30053054:	e51b0008 	ldr	r0, [fp, #-8]
30053058:	eb000004 	bl	30053070 <LinkStack_Clear>
	LinkList_Destroy(linkStack);
3005305c:	e51b0008 	ldr	r0, [fp, #-8]
30053060:	ebffff1d 	bl	30052cdc <LinkList_Destroy>
}
30053064:	e24bd004 	sub	sp, fp, #4	; 0x4
30053068:	e8bd4800 	pop	{fp, lr}
3005306c:	e12fff1e 	bx	lr

30053070 <LinkStack_Clear>:

void LinkStack_Clear(LinkStack* linkStack)
{
30053070:	e92d4800 	push	{fp, lr}
30053074:	e28db004 	add	fp, sp, #4	; 0x4
30053078:	e24dd008 	sub	sp, sp, #8	; 0x8
3005307c:	e50b0008 	str	r0, [fp, #-8]
30053080:	ea000001 	b	3005308c <LinkStack_Clear+0x1c>
	while(LinkStack_Size(linkStack) > 0)
	{
		LinkStack_Pop(linkStack);
30053084:	e51b0008 	ldr	r0, [fp, #-8]
30053088:	eb000034 	bl	30053160 <LinkStack_Pop>
	LinkList_Destroy(linkStack);
}

void LinkStack_Clear(LinkStack* linkStack)
{
	while(LinkStack_Size(linkStack) > 0)
3005308c:	e51b0008 	ldr	r0, [fp, #-8]
30053090:	eb000060 	bl	30053218 <LinkStack_Size>
30053094:	e1a03000 	mov	r3, r0
30053098:	e3530000 	cmp	r3, #0	; 0x0
3005309c:	cafffff8 	bgt	30053084 <LinkStack_Clear+0x14>
	{
		LinkStack_Pop(linkStack);
	}
}
300530a0:	e24bd004 	sub	sp, fp, #4	; 0x4
300530a4:	e8bd4800 	pop	{fp, lr}
300530a8:	e12fff1e 	bx	lr

300530ac <LinkStack_Push>:

int LinkStack_Push(LinkStack* linkStack, void* item)
{
300530ac:	e92d4800 	push	{fp, lr}
300530b0:	e28db004 	add	fp, sp, #4	; 0x4
300530b4:	e24dd018 	sub	sp, sp, #24	; 0x18
300530b8:	e50b0010 	str	r0, [fp, #-16]
300530bc:	e50b1014 	str	r1, [fp, #-20]
	TLinkStackNode* node = (TLinkStackNode*)malloc(sizeof(TLinkStackNode));
300530c0:	e3a00008 	mov	r0, #8	; 0x8
300530c4:	ebfffa60 	bl	30051a4c <malloc>
300530c8:	e1a03000 	mov	r3, r0
300530cc:	e50b300c 	str	r3, [fp, #-12]
	int ret = (node != NULL) && (item != NULL);
300530d0:	e51b300c 	ldr	r3, [fp, #-12]
300530d4:	e3530000 	cmp	r3, #0	; 0x0
300530d8:	0a000005 	beq	300530f4 <LinkStack_Push+0x48>
300530dc:	e51b3014 	ldr	r3, [fp, #-20]
300530e0:	e3530000 	cmp	r3, #0	; 0x0
300530e4:	0a000002 	beq	300530f4 <LinkStack_Push+0x48>
300530e8:	e3a03001 	mov	r3, #1	; 0x1
300530ec:	e50b3018 	str	r3, [fp, #-24]
300530f0:	ea000001 	b	300530fc <LinkStack_Push+0x50>
300530f4:	e3a03000 	mov	r3, #0	; 0x0
300530f8:	e50b3018 	str	r3, [fp, #-24]
300530fc:	e51b3018 	ldr	r3, [fp, #-24]
30053100:	e50b3008 	str	r3, [fp, #-8]
	
	if(ret)
30053104:	e51b3008 	ldr	r3, [fp, #-8]
30053108:	e3530000 	cmp	r3, #0	; 0x0
3005310c:	0a000009 	beq	30053138 <LinkStack_Push+0x8c>
	{
		node->item = item;
30053110:	e51b200c 	ldr	r2, [fp, #-12]
30053114:	e51b3014 	ldr	r3, [fp, #-20]
30053118:	e5823004 	str	r3, [r2, #4]
		ret = LinkList_Insert(linkStack, (LinkListNode*)node, 0);
3005311c:	e51b300c 	ldr	r3, [fp, #-12]
30053120:	e51b0010 	ldr	r0, [fp, #-16]
30053124:	e1a01003 	mov	r1, r3
30053128:	e3a02000 	mov	r2, #0	; 0x0
3005312c:	ebffff18 	bl	30052d94 <LinkList_Insert>
30053130:	e1a03000 	mov	r3, r0
30053134:	e50b3008 	str	r3, [fp, #-8]
	}
	
	if( !ret)
30053138:	e51b3008 	ldr	r3, [fp, #-8]
3005313c:	e3530000 	cmp	r3, #0	; 0x0
30053140:	1a000001 	bne	3005314c <LinkStack_Push+0xa0>
	{
		free(node);
30053144:	e51b000c 	ldr	r0, [fp, #-12]
30053148:	ebfffa8f 	bl	30051b8c <free>
	}
	
	return ret;
3005314c:	e51b3008 	ldr	r3, [fp, #-8]
}
30053150:	e1a00003 	mov	r0, r3
30053154:	e24bd004 	sub	sp, fp, #4	; 0x4
30053158:	e8bd4800 	pop	{fp, lr}
3005315c:	e12fff1e 	bx	lr

30053160 <LinkStack_Pop>:

void* LinkStack_Pop(LinkStack* linkStack)
{
30053160:	e92d4800 	push	{fp, lr}
30053164:	e28db004 	add	fp, sp, #4	; 0x4
30053168:	e24dd010 	sub	sp, sp, #16	; 0x10
3005316c:	e50b0010 	str	r0, [fp, #-16]
	TLinkStackNode* node = (TLinkStackNode*)LinkList_Delete(linkStack, 0);
30053170:	e51b0010 	ldr	r0, [fp, #-16]
30053174:	e3a01000 	mov	r1, #0	; 0x0
30053178:	ebffff73 	bl	30052f4c <LinkList_Delete>
3005317c:	e1a03000 	mov	r3, r0
30053180:	e50b300c 	str	r3, [fp, #-12]
	void* ret = NULL;
30053184:	e3a03000 	mov	r3, #0	; 0x0
30053188:	e50b3008 	str	r3, [fp, #-8]
	
	if( node != NULL)
3005318c:	e51b300c 	ldr	r3, [fp, #-12]
30053190:	e3530000 	cmp	r3, #0	; 0x0
30053194:	0a000004 	beq	300531ac <LinkStack_Pop+0x4c>
	{
		ret = node->item;
30053198:	e51b300c 	ldr	r3, [fp, #-12]
3005319c:	e5933004 	ldr	r3, [r3, #4]
300531a0:	e50b3008 	str	r3, [fp, #-8]
		
		free(node);
300531a4:	e51b000c 	ldr	r0, [fp, #-12]
300531a8:	ebfffa77 	bl	30051b8c <free>
	}
	
	return ret;
300531ac:	e51b3008 	ldr	r3, [fp, #-8]
}
300531b0:	e1a00003 	mov	r0, r3
300531b4:	e24bd004 	sub	sp, fp, #4	; 0x4
300531b8:	e8bd4800 	pop	{fp, lr}
300531bc:	e12fff1e 	bx	lr

300531c0 <LinkStack_Top>:

void* LinkStack_Top(LinkStack* linkStack)
{
300531c0:	e92d4800 	push	{fp, lr}
300531c4:	e28db004 	add	fp, sp, #4	; 0x4
300531c8:	e24dd010 	sub	sp, sp, #16	; 0x10
300531cc:	e50b0010 	str	r0, [fp, #-16]
	TLinkStackNode* node = (TLinkStackNode*)LinkList_Get(linkStack, 0);
300531d0:	e51b0010 	ldr	r0, [fp, #-16]
300531d4:	e3a01000 	mov	r1, #0	; 0x0
300531d8:	ebffff2e 	bl	30052e98 <LinkList_Get>
300531dc:	e1a03000 	mov	r3, r0
300531e0:	e50b300c 	str	r3, [fp, #-12]
	void* ret = NULL;
300531e4:	e3a03000 	mov	r3, #0	; 0x0
300531e8:	e50b3008 	str	r3, [fp, #-8]
	
	if( node != NULL)
300531ec:	e51b300c 	ldr	r3, [fp, #-12]
300531f0:	e3530000 	cmp	r3, #0	; 0x0
300531f4:	0a000002 	beq	30053204 <LinkStack_Top+0x44>
	{
		ret = node->item;
300531f8:	e51b300c 	ldr	r3, [fp, #-12]
300531fc:	e5933004 	ldr	r3, [r3, #4]
30053200:	e50b3008 	str	r3, [fp, #-8]
	}
	
	return ret;
30053204:	e51b3008 	ldr	r3, [fp, #-8]
}
30053208:	e1a00003 	mov	r0, r3
3005320c:	e24bd004 	sub	sp, fp, #4	; 0x4
30053210:	e8bd4800 	pop	{fp, lr}
30053214:	e12fff1e 	bx	lr

30053218 <LinkStack_Size>:

int LinkStack_Size(LinkStack* linkStack)
{
30053218:	e92d4800 	push	{fp, lr}
3005321c:	e28db004 	add	fp, sp, #4	; 0x4
30053220:	e24dd008 	sub	sp, sp, #8	; 0x8
30053224:	e50b0008 	str	r0, [fp, #-8]
	return LinkList_Length(linkStack);
30053228:	e51b0008 	ldr	r0, [fp, #-8]
3005322c:	ebfffec5 	bl	30052d48 <LinkList_Length>
30053230:	e1a03000 	mov	r3, r0
}
30053234:	e1a00003 	mov	r0, r3
30053238:	e24bd004 	sub	sp, fp, #4	; 0x4
3005323c:	e8bd4800 	pop	{fp, lr}
30053240:	e12fff1e 	bx	lr

30053244 <LinkQueue_Create>:
	LinkListNode header;
	void *item;
} LinkQueueNode;

LinkQueue* LinkQueue_Create()
{
30053244:	e92d4800 	push	{fp, lr}
30053248:	e28db004 	add	fp, sp, #4	; 0x4
	return LinkList_Create();
3005324c:	ebfffe8d 	bl	30052c88 <LinkList_Create>
30053250:	e1a03000 	mov	r3, r0
}
30053254:	e1a00003 	mov	r0, r3
30053258:	e24bd004 	sub	sp, fp, #4	; 0x4
3005325c:	e8bd4800 	pop	{fp, lr}
30053260:	e12fff1e 	bx	lr

30053264 <LinkQueue_Destroy>:

void LinkQueue_Destroy(LinkQueue* linkQueue)
{
30053264:	e92d4800 	push	{fp, lr}
30053268:	e28db004 	add	fp, sp, #4	; 0x4
3005326c:	e24dd008 	sub	sp, sp, #8	; 0x8
30053270:	e50b0008 	str	r0, [fp, #-8]
	if(linkQueue != NULL)
30053274:	e51b3008 	ldr	r3, [fp, #-8]
30053278:	e3530000 	cmp	r3, #0	; 0x0
3005327c:	0a000003 	beq	30053290 <LinkQueue_Destroy+0x2c>
	{
		LinkQueue_Clear(linkQueue);
30053280:	e51b0008 	ldr	r0, [fp, #-8]
30053284:	eb000004 	bl	3005329c <LinkQueue_Clear>
		LinkList_Destroy(linkQueue);
30053288:	e51b0008 	ldr	r0, [fp, #-8]
3005328c:	ebfffe92 	bl	30052cdc <LinkList_Destroy>
	}
}
30053290:	e24bd004 	sub	sp, fp, #4	; 0x4
30053294:	e8bd4800 	pop	{fp, lr}
30053298:	e12fff1e 	bx	lr

3005329c <LinkQueue_Clear>:

void LinkQueue_Clear(LinkQueue* linkQueue)
{
3005329c:	e92d4800 	push	{fp, lr}
300532a0:	e28db004 	add	fp, sp, #4	; 0x4
300532a4:	e24dd010 	sub	sp, sp, #16	; 0x10
300532a8:	e50b0010 	str	r0, [fp, #-16]
	LinkListNode* node = NULL;
300532ac:	e3a03000 	mov	r3, #0	; 0x0
300532b0:	e50b3008 	str	r3, [fp, #-8]
	
	if(linkQueue != NULL && LinkList_Length(linkQueue) > 0)
300532b4:	e51b3010 	ldr	r3, [fp, #-16]
300532b8:	e3530000 	cmp	r3, #0	; 0x0
300532bc:	0a000014 	beq	30053314 <LinkQueue_Clear+0x78>
300532c0:	e51b0010 	ldr	r0, [fp, #-16]
300532c4:	ebfffe9f 	bl	30052d48 <LinkList_Length>
300532c8:	e1a03000 	mov	r3, r0
300532cc:	e3530000 	cmp	r3, #0	; 0x0
300532d0:	da00000f 	ble	30053314 <LinkQueue_Clear+0x78>
300532d4:	ea000009 	b	30053300 <LinkQueue_Clear+0x64>
	{
		while(LinkList_Length(linkQueue) > 0)
		{
			node = LinkList_Delete(linkQueue, 0);
300532d8:	e51b0010 	ldr	r0, [fp, #-16]
300532dc:	e3a01000 	mov	r1, #0	; 0x0
300532e0:	ebffff19 	bl	30052f4c <LinkList_Delete>
300532e4:	e1a03000 	mov	r3, r0
300532e8:	e50b3008 	str	r3, [fp, #-8]
			if(node != NULL)
300532ec:	e51b3008 	ldr	r3, [fp, #-8]
300532f0:	e3530000 	cmp	r3, #0	; 0x0
300532f4:	0a000001 	beq	30053300 <LinkQueue_Clear+0x64>
			{
				free(node);
300532f8:	e51b0008 	ldr	r0, [fp, #-8]
300532fc:	ebfffa22 	bl	30051b8c <free>
{
	LinkListNode* node = NULL;
	
	if(linkQueue != NULL && LinkList_Length(linkQueue) > 0)
	{
		while(LinkList_Length(linkQueue) > 0)
30053300:	e51b0010 	ldr	r0, [fp, #-16]
30053304:	ebfffe8f 	bl	30052d48 <LinkList_Length>
30053308:	e1a03000 	mov	r3, r0
3005330c:	e3530000 	cmp	r3, #0	; 0x0
30053310:	cafffff0 	bgt	300532d8 <LinkQueue_Clear+0x3c>
			{
				free(node);
			}
		}
	}
}
30053314:	e24bd004 	sub	sp, fp, #4	; 0x4
30053318:	e8bd4800 	pop	{fp, lr}
3005331c:	e12fff1e 	bx	lr

30053320 <LinkQueue_Append>:

int LinkQueue_Append(LinkQueue* linkQueue, void* item)
{
30053320:	e92d4800 	push	{fp, lr}
30053324:	e28db004 	add	fp, sp, #4	; 0x4
30053328:	e24dd010 	sub	sp, sp, #16	; 0x10
3005332c:	e50b0010 	str	r0, [fp, #-16]
30053330:	e50b1014 	str	r1, [fp, #-20]
	int ret = -1;
30053334:	e3e03000 	mvn	r3, #0	; 0x0
30053338:	e50b300c 	str	r3, [fp, #-12]
	LinkListNode* node = NULL;
3005333c:	e3a03000 	mov	r3, #0	; 0x0
30053340:	e50b3008 	str	r3, [fp, #-8]
	
	if(linkQueue != NULL && item != NULL)
30053344:	e51b3010 	ldr	r3, [fp, #-16]
30053348:	e3530000 	cmp	r3, #0	; 0x0
3005334c:	0a00001a 	beq	300533bc <LinkQueue_Append+0x9c>
30053350:	e51b3014 	ldr	r3, [fp, #-20]
30053354:	e3530000 	cmp	r3, #0	; 0x0
30053358:	0a000017 	beq	300533bc <LinkQueue_Append+0x9c>
	{
		node = malloc(sizeof(LinkQueueNode));
3005335c:	e3a00008 	mov	r0, #8	; 0x8
30053360:	ebfff9b9 	bl	30051a4c <malloc>
30053364:	e1a03000 	mov	r3, r0
30053368:	e50b3008 	str	r3, [fp, #-8]
		
		if(node != NULL)
3005336c:	e51b3008 	ldr	r3, [fp, #-8]
30053370:	e3530000 	cmp	r3, #0	; 0x0
30053374:	0a000010 	beq	300533bc <LinkQueue_Append+0x9c>
		{
			((LinkQueueNode*)node)->item = item;
30053378:	e51b2008 	ldr	r2, [fp, #-8]
3005337c:	e51b3014 	ldr	r3, [fp, #-20]
30053380:	e5823004 	str	r3, [r2, #4]
			
			ret = LinkList_Insert(linkQueue, node, LinkList_Length(linkQueue));
30053384:	e51b0010 	ldr	r0, [fp, #-16]
30053388:	ebfffe6e 	bl	30052d48 <LinkList_Length>
3005338c:	e1a03000 	mov	r3, r0
30053390:	e51b0010 	ldr	r0, [fp, #-16]
30053394:	e51b1008 	ldr	r1, [fp, #-8]
30053398:	e1a02003 	mov	r2, r3
3005339c:	ebfffe7c 	bl	30052d94 <LinkList_Insert>
300533a0:	e1a03000 	mov	r3, r0
300533a4:	e50b300c 	str	r3, [fp, #-12]
			
			if(!ret)
300533a8:	e51b300c 	ldr	r3, [fp, #-12]
300533ac:	e3530000 	cmp	r3, #0	; 0x0
300533b0:	1a000001 	bne	300533bc <LinkQueue_Append+0x9c>
			{
				free(node);
300533b4:	e51b0008 	ldr	r0, [fp, #-8]
300533b8:	ebfff9f3 	bl	30051b8c <free>
			}
		}
	}
	
	return ret;
300533bc:	e51b300c 	ldr	r3, [fp, #-12]
}
300533c0:	e1a00003 	mov	r0, r3
300533c4:	e24bd004 	sub	sp, fp, #4	; 0x4
300533c8:	e8bd4800 	pop	{fp, lr}
300533cc:	e12fff1e 	bx	lr

300533d0 <LinkQueue_Retrieve>:

void* LinkQueue_Retrieve(LinkQueue* linkQueue)
{
300533d0:	e92d4800 	push	{fp, lr}
300533d4:	e28db004 	add	fp, sp, #4	; 0x4
300533d8:	e24dd010 	sub	sp, sp, #16	; 0x10
300533dc:	e50b0010 	str	r0, [fp, #-16]
	void* ret = NULL;
300533e0:	e3a03000 	mov	r3, #0	; 0x0
300533e4:	e50b300c 	str	r3, [fp, #-12]
	LinkListNode* node = NULL;
300533e8:	e3a03000 	mov	r3, #0	; 0x0
300533ec:	e50b3008 	str	r3, [fp, #-8]
	
	if(linkQueue != NULL)
300533f0:	e51b3010 	ldr	r3, [fp, #-16]
300533f4:	e3530000 	cmp	r3, #0	; 0x0
300533f8:	0a00000c 	beq	30053430 <LinkQueue_Retrieve+0x60>
	{
		node = LinkList_Delete(linkQueue, 0);
300533fc:	e51b0010 	ldr	r0, [fp, #-16]
30053400:	e3a01000 	mov	r1, #0	; 0x0
30053404:	ebfffed0 	bl	30052f4c <LinkList_Delete>
30053408:	e1a03000 	mov	r3, r0
3005340c:	e50b3008 	str	r3, [fp, #-8]
		if(node != NULL)
30053410:	e51b3008 	ldr	r3, [fp, #-8]
30053414:	e3530000 	cmp	r3, #0	; 0x0
30053418:	0a000004 	beq	30053430 <LinkQueue_Retrieve+0x60>
		{
			ret = ((LinkQueueNode*)node)->item;
3005341c:	e51b3008 	ldr	r3, [fp, #-8]
30053420:	e5933004 	ldr	r3, [r3, #4]
30053424:	e50b300c 	str	r3, [fp, #-12]
			
			free(node);
30053428:	e51b0008 	ldr	r0, [fp, #-8]
3005342c:	ebfff9d6 	bl	30051b8c <free>
		}
	}
	
	return ret;
30053430:	e51b300c 	ldr	r3, [fp, #-12]
}
30053434:	e1a00003 	mov	r0, r3
30053438:	e24bd004 	sub	sp, fp, #4	; 0x4
3005343c:	e8bd4800 	pop	{fp, lr}
30053440:	e12fff1e 	bx	lr

30053444 <LinkQueue_Header>:

void* LinkQueue_Header(LinkQueue* linkQueue)
{
30053444:	e92d4800 	push	{fp, lr}
30053448:	e28db004 	add	fp, sp, #4	; 0x4
3005344c:	e24dd010 	sub	sp, sp, #16	; 0x10
30053450:	e50b0010 	str	r0, [fp, #-16]
	void* ret = NULL;
30053454:	e3a03000 	mov	r3, #0	; 0x0
30053458:	e50b300c 	str	r3, [fp, #-12]
	LinkListNode* node = NULL;
3005345c:	e3a03000 	mov	r3, #0	; 0x0
30053460:	e50b3008 	str	r3, [fp, #-8]
	
	if(linkQueue != NULL)
30053464:	e51b3010 	ldr	r3, [fp, #-16]
30053468:	e3530000 	cmp	r3, #0	; 0x0
3005346c:	0a00000a 	beq	3005349c <LinkQueue_Header+0x58>
	{
		node = LinkList_Get(linkQueue, 0);
30053470:	e51b0010 	ldr	r0, [fp, #-16]
30053474:	e3a01000 	mov	r1, #0	; 0x0
30053478:	ebfffe86 	bl	30052e98 <LinkList_Get>
3005347c:	e1a03000 	mov	r3, r0
30053480:	e50b3008 	str	r3, [fp, #-8]
		if(node != NULL)
30053484:	e51b3008 	ldr	r3, [fp, #-8]
30053488:	e3530000 	cmp	r3, #0	; 0x0
3005348c:	0a000002 	beq	3005349c <LinkQueue_Header+0x58>
		{
			ret = ((LinkQueueNode*)node)->item;
30053490:	e51b3008 	ldr	r3, [fp, #-8]
30053494:	e5933004 	ldr	r3, [r3, #4]
30053498:	e50b300c 	str	r3, [fp, #-12]
		}
	}
	
	return ret;
3005349c:	e51b300c 	ldr	r3, [fp, #-12]
}
300534a0:	e1a00003 	mov	r0, r3
300534a4:	e24bd004 	sub	sp, fp, #4	; 0x4
300534a8:	e8bd4800 	pop	{fp, lr}
300534ac:	e12fff1e 	bx	lr

300534b0 <LinkQueue_Length>:

int LinkQueue_Length(LinkQueue* linkQueue)
{
300534b0:	e92d4800 	push	{fp, lr}
300534b4:	e28db004 	add	fp, sp, #4	; 0x4
300534b8:	e24dd008 	sub	sp, sp, #8	; 0x8
300534bc:	e50b0008 	str	r0, [fp, #-8]
	return LinkList_Length(linkQueue);
300534c0:	e51b0008 	ldr	r0, [fp, #-8]
300534c4:	ebfffe1f 	bl	30052d48 <LinkList_Length>
300534c8:	e1a03000 	mov	r3, r0
300534cc:	e1a00003 	mov	r0, r3
300534d0:	e24bd004 	sub	sp, fp, #4	; 0x4
300534d4:	e8bd4800 	pop	{fp, lr}
300534d8:	e12fff1e 	bx	lr

300534dc <IntRegDump>:
300534dc:	e92d4800 	push	{fp, lr}
300534e0:	e28db004 	add	fp, sp, #4	; 0x4
300534e4:	e59f00a0 	ldr	r0, [pc, #160]	; 3005358c <IntRegDump+0xb0>
300534e8:	eb0005f5 	bl	30054cc4 <printf_string>
300534ec:	e3a0344a 	mov	r3, #1241513984	; 0x4a000000
300534f0:	e5933000 	ldr	r3, [r3]
300534f4:	e59f0094 	ldr	r0, [pc, #148]	; 30053590 <IntRegDump+0xb4>
300534f8:	e1a01003 	mov	r1, r3
300534fc:	eb0005f0 	bl	30054cc4 <printf_string>
30053500:	e3a0344a 	mov	r3, #1241513984	; 0x4a000000
30053504:	e2833008 	add	r3, r3, #8	; 0x8
30053508:	e5933000 	ldr	r3, [r3]
3005350c:	e59f0080 	ldr	r0, [pc, #128]	; 30053594 <IntRegDump+0xb8>
30053510:	e1a01003 	mov	r1, r3
30053514:	eb0005ea 	bl	30054cc4 <printf_string>
30053518:	e3a0344a 	mov	r3, #1241513984	; 0x4a000000
3005351c:	e2833010 	add	r3, r3, #16	; 0x10
30053520:	e5933000 	ldr	r3, [r3]
30053524:	e59f006c 	ldr	r0, [pc, #108]	; 30053598 <IntRegDump+0xbc>
30053528:	e1a01003 	mov	r1, r3
3005352c:	eb0005e4 	bl	30054cc4 <printf_string>
30053530:	e3a0344a 	mov	r3, #1241513984	; 0x4a000000
30053534:	e2833014 	add	r3, r3, #20	; 0x14
30053538:	e5933000 	ldr	r3, [r3]
3005353c:	e59f0058 	ldr	r0, [pc, #88]	; 3005359c <IntRegDump+0xc0>
30053540:	e1a01003 	mov	r1, r3
30053544:	eb0005de 	bl	30054cc4 <printf_string>
30053548:	e3a03456 	mov	r3, #1442840576	; 0x56000000
3005354c:	e28330a4 	add	r3, r3, #164	; 0xa4
30053550:	e5933000 	ldr	r3, [r3]
30053554:	e59f0044 	ldr	r0, [pc, #68]	; 300535a0 <IntRegDump+0xc4>
30053558:	e1a01003 	mov	r1, r3
3005355c:	eb0005d8 	bl	30054cc4 <printf_string>
30053560:	e3a03456 	mov	r3, #1442840576	; 0x56000000
30053564:	e28330a8 	add	r3, r3, #168	; 0xa8
30053568:	e5933000 	ldr	r3, [r3]
3005356c:	e59f0030 	ldr	r0, [pc, #48]	; 300535a4 <IntRegDump+0xc8>
30053570:	e1a01003 	mov	r1, r3
30053574:	eb0005d2 	bl	30054cc4 <printf_string>
30053578:	e59f0028 	ldr	r0, [pc, #40]	; 300535a8 <IntRegDump+0xcc>
3005357c:	eb0005d0 	bl	30054cc4 <printf_string>
30053580:	e24bd004 	sub	sp, fp, #4	; 0x4
30053584:	e8bd4800 	pop	{fp, lr}
30053588:	e12fff1e 	bx	lr
3005358c:	3005bfa0 	.word	0x3005bfa0
30053590:	3005bfec 	.word	0x3005bfec
30053594:	3005bffc 	.word	0x3005bffc
30053598:	3005c00c 	.word	0x3005c00c
3005359c:	3005c01c 	.word	0x3005c01c
300535a0:	3005c030 	.word	0x3005c030
300535a4:	3005c044 	.word	0x3005c044
300535a8:	3005c058 	.word	0x3005c058

300535ac <EnableMasterIrq>:
300535ac:	e52db004 	push	{fp}		; (str fp, [sp, #-4]!)
300535b0:	e28db000 	add	fp, sp, #0	; 0x0
300535b4:	e24dd00c 	sub	sp, sp, #12	; 0xc
300535b8:	e10f0000 	mrs	r0, CPSR
300535bc:	e3c00080 	bic	r0, r0, #128	; 0x80
300535c0:	e121f000 	msr	CPSR_c, r0
300535c4:	e3a0344a 	mov	r3, #1241513984	; 0x4a000000
300535c8:	e2833004 	add	r3, r3, #4	; 0x4
300535cc:	e3a02000 	mov	r2, #0	; 0x0
300535d0:	e5832000 	str	r2, [r3]
300535d4:	e3a0344a 	mov	r3, #1241513984	; 0x4a000000
300535d8:	e2833008 	add	r3, r3, #8	; 0x8
300535dc:	e5933000 	ldr	r3, [r3]
300535e0:	e3a0344a 	mov	r3, #1241513984	; 0x4a000000
300535e4:	e2833008 	add	r3, r3, #8	; 0x8
300535e8:	e3e02000 	mvn	r2, #0	; 0x0
300535ec:	e5832000 	str	r2, [r3]
300535f0:	e3a0344a 	mov	r3, #1241513984	; 0x4a000000
300535f4:	e283301c 	add	r3, r3, #28	; 0x1c
300535f8:	e5933000 	ldr	r3, [r3]
300535fc:	e3a0344a 	mov	r3, #1241513984	; 0x4a000000
30053600:	e283301c 	add	r3, r3, #28	; 0x1c
30053604:	e3e02000 	mvn	r2, #0	; 0x0
30053608:	e5832000 	str	r2, [r3]
3005360c:	e28bd000 	add	sp, fp, #0	; 0x0
30053610:	e8bd0800 	pop	{fp}
30053614:	e12fff1e 	bx	lr

30053618 <DisableMasterIrq>:
30053618:	e52db004 	push	{fp}		; (str fp, [sp, #-4]!)
3005361c:	e28db000 	add	fp, sp, #0	; 0x0
30053620:	e24dd00c 	sub	sp, sp, #12	; 0xc
30053624:	e10f0000 	mrs	r0, CPSR
30053628:	e3800080 	orr	r0, r0, #128	; 0x80
3005362c:	e121f000 	msr	CPSR_c, r0
30053630:	e3a0344a 	mov	r3, #1241513984	; 0x4a000000
30053634:	e2833008 	add	r3, r3, #8	; 0x8
30053638:	e5933000 	ldr	r3, [r3]
3005363c:	e3a0344a 	mov	r3, #1241513984	; 0x4a000000
30053640:	e2833008 	add	r3, r3, #8	; 0x8
30053644:	e3e02000 	mvn	r2, #0	; 0x0
30053648:	e5832000 	str	r2, [r3]
3005364c:	e3a0344a 	mov	r3, #1241513984	; 0x4a000000
30053650:	e283301c 	add	r3, r3, #28	; 0x1c
30053654:	e5933000 	ldr	r3, [r3]
30053658:	e3a0344a 	mov	r3, #1241513984	; 0x4a000000
3005365c:	e283301c 	add	r3, r3, #28	; 0x1c
30053660:	e3e02000 	mvn	r2, #0	; 0x0
30053664:	e5832000 	str	r2, [r3]
30053668:	e28bd000 	add	sp, fp, #0	; 0x0
3005366c:	e8bd0800 	pop	{fp}
30053670:	e12fff1e 	bx	lr

30053674 <EnableIrq>:
30053674:	e52db004 	push	{fp}		; (str fp, [sp, #-4]!)
30053678:	e28db000 	add	fp, sp, #0	; 0x0
3005367c:	e24dd00c 	sub	sp, sp, #12	; 0xc
30053680:	e50b0008 	str	r0, [fp, #-8]
30053684:	e3a0144a 	mov	r1, #1241513984	; 0x4a000000
30053688:	e2811008 	add	r1, r1, #8	; 0x8
3005368c:	e3a0344a 	mov	r3, #1241513984	; 0x4a000000
30053690:	e2833008 	add	r3, r3, #8	; 0x8
30053694:	e5930000 	ldr	r0, [r3]
30053698:	e3a02001 	mov	r2, #1	; 0x1
3005369c:	e51b3008 	ldr	r3, [fp, #-8]
300536a0:	e1a03312 	lsl	r3, r2, r3
300536a4:	e1e03003 	mvn	r3, r3
300536a8:	e0003003 	and	r3, r0, r3
300536ac:	e5813000 	str	r3, [r1]
300536b0:	e28bd000 	add	sp, fp, #0	; 0x0
300536b4:	e8bd0800 	pop	{fp}
300536b8:	e12fff1e 	bx	lr

300536bc <DisableIrq>:
300536bc:	e52db004 	push	{fp}		; (str fp, [sp, #-4]!)
300536c0:	e28db000 	add	fp, sp, #0	; 0x0
300536c4:	e24dd00c 	sub	sp, sp, #12	; 0xc
300536c8:	e50b0008 	str	r0, [fp, #-8]
300536cc:	e3a0144a 	mov	r1, #1241513984	; 0x4a000000
300536d0:	e2811008 	add	r1, r1, #8	; 0x8
300536d4:	e3a0344a 	mov	r3, #1241513984	; 0x4a000000
300536d8:	e2833008 	add	r3, r3, #8	; 0x8
300536dc:	e5930000 	ldr	r0, [r3]
300536e0:	e3a02001 	mov	r2, #1	; 0x1
300536e4:	e51b3008 	ldr	r3, [fp, #-8]
300536e8:	e1a03312 	lsl	r3, r2, r3
300536ec:	e1803003 	orr	r3, r0, r3
300536f0:	e5813000 	str	r3, [r1]
300536f4:	e28bd000 	add	sp, fp, #0	; 0x0
300536f8:	e8bd0800 	pop	{fp}
300536fc:	e12fff1e 	bx	lr

30053700 <ClearPending>:
30053700:	e52db004 	push	{fp}		; (str fp, [sp, #-4]!)
30053704:	e28db000 	add	fp, sp, #0	; 0x0
30053708:	e24dd00c 	sub	sp, sp, #12	; 0xc
3005370c:	e50b0008 	str	r0, [fp, #-8]
30053710:	e3a0144a 	mov	r1, #1241513984	; 0x4a000000
30053714:	e2811010 	add	r1, r1, #16	; 0x10
30053718:	e3a0344a 	mov	r3, #1241513984	; 0x4a000000
3005371c:	e2833010 	add	r3, r3, #16	; 0x10
30053720:	e5930000 	ldr	r0, [r3]
30053724:	e3a02001 	mov	r2, #1	; 0x1
30053728:	e51b3008 	ldr	r3, [fp, #-8]
3005372c:	e1a03312 	lsl	r3, r2, r3
30053730:	e1803003 	orr	r3, r0, r3
30053734:	e5813000 	str	r3, [r1]
30053738:	e28bd000 	add	sp, fp, #0	; 0x0
3005373c:	e8bd0800 	pop	{fp}
30053740:	e12fff1e 	bx	lr

30053744 <HandleIrq>:
30053744:	e92d4800 	push	{fp, lr}
30053748:	e28db004 	add	fp, sp, #4	; 0x4
3005374c:	e24dd018 	sub	sp, sp, #24	; 0x18
30053750:	e3a03000 	mov	r3, #0	; 0x0
30053754:	e50b300c 	str	r3, [fp, #-12]
30053758:	e3a03000 	mov	r3, #0	; 0x0
3005375c:	e50b3008 	str	r3, [fp, #-8]
30053760:	e3a0344a 	mov	r3, #1241513984	; 0x4a000000
30053764:	e2833008 	add	r3, r3, #8	; 0x8
30053768:	e5933000 	ldr	r3, [r3]
3005376c:	e50b3008 	str	r3, [fp, #-8]
30053770:	e3a0344a 	mov	r3, #1241513984	; 0x4a000000
30053774:	e2833008 	add	r3, r3, #8	; 0x8
30053778:	e3e02000 	mvn	r2, #0	; 0x0
3005377c:	e5832000 	str	r2, [r3]
30053780:	e3a0344a 	mov	r3, #1241513984	; 0x4a000000
30053784:	e2833014 	add	r3, r3, #20	; 0x14
30053788:	e5933000 	ldr	r3, [r3]
3005378c:	e50b300c 	str	r3, [fp, #-12]
30053790:	e51b300c 	ldr	r3, [fp, #-12]
30053794:	e353001f 	cmp	r3, #31	; 0x1f
30053798:	979ff103 	ldrls	pc, [pc, r3, lsl #2]
3005379c:	ea000028 	b	30053844 <HandleIrq+0x100>
300537a0:	30053844 	.word	0x30053844
300537a4:	30053844 	.word	0x30053844
300537a8:	30053844 	.word	0x30053844
300537ac:	30053844 	.word	0x30053844
300537b0:	30053820 	.word	0x30053820
300537b4:	30053828 	.word	0x30053828
300537b8:	30053844 	.word	0x30053844
300537bc:	30053844 	.word	0x30053844
300537c0:	30053844 	.word	0x30053844
300537c4:	30053844 	.word	0x30053844
300537c8:	30053830 	.word	0x30053830
300537cc:	30053844 	.word	0x30053844
300537d0:	30053844 	.word	0x30053844
300537d4:	30053844 	.word	0x30053844
300537d8:	30053838 	.word	0x30053838
300537dc:	30053844 	.word	0x30053844
300537e0:	30053844 	.word	0x30053844
300537e4:	30053844 	.word	0x30053844
300537e8:	30053844 	.word	0x30053844
300537ec:	30053844 	.word	0x30053844
300537f0:	30053844 	.word	0x30053844
300537f4:	30053844 	.word	0x30053844
300537f8:	30053844 	.word	0x30053844
300537fc:	30053844 	.word	0x30053844
30053800:	30053844 	.word	0x30053844
30053804:	30053844 	.word	0x30053844
30053808:	30053844 	.word	0x30053844
3005380c:	30053844 	.word	0x30053844
30053810:	30053844 	.word	0x30053844
30053814:	30053844 	.word	0x30053844
30053818:	30053844 	.word	0x30053844
3005381c:	30053840 	.word	0x30053840
30053820:	eb00151d 	bl	30058c9c <int_DM9000_process>
30053824:	ea000006 	b	30053844 <HandleIrq+0x100>
30053828:	eb0015cb 	bl	30058f5c <button_irq>
3005382c:	ea000004 	b	30053844 <HandleIrq+0x100>
30053830:	eb001b3b 	bl	3005a524 <Timer0Interrupt>
30053834:	ea000002 	b	30053844 <HandleIrq+0x100>
30053838:	eb001b5f 	bl	3005a5bc <Timer4Interrupt>
3005383c:	ea000000 	b	30053844 <HandleIrq+0x100>
30053840:	eb001176 	bl	30057e20 <touch_handler>
30053844:	e3a0344a 	mov	r3, #1241513984	; 0x4a000000
30053848:	e2833018 	add	r3, r3, #24	; 0x18
3005384c:	e5933000 	ldr	r3, [r3]
30053850:	e3a0344a 	mov	r3, #1241513984	; 0x4a000000
30053854:	e2833018 	add	r3, r3, #24	; 0x18
30053858:	e3e02000 	mvn	r2, #0	; 0x0
3005385c:	e5832000 	str	r2, [r3]
30053860:	e3a0344a 	mov	r3, #1241513984	; 0x4a000000
30053864:	e5933000 	ldr	r3, [r3]
30053868:	e3a0244a 	mov	r2, #1241513984	; 0x4a000000
3005386c:	e3e03000 	mvn	r3, #0	; 0x0
30053870:	e5823000 	str	r3, [r2]
30053874:	e3a0344a 	mov	r3, #1241513984	; 0x4a000000
30053878:	e2833010 	add	r3, r3, #16	; 0x10
3005387c:	e5933000 	ldr	r3, [r3]
30053880:	e3a0344a 	mov	r3, #1241513984	; 0x4a000000
30053884:	e2833010 	add	r3, r3, #16	; 0x10
30053888:	e3e02000 	mvn	r2, #0	; 0x0
3005388c:	e5832000 	str	r2, [r3]
30053890:	e3a03456 	mov	r3, #1442840576	; 0x56000000
30053894:	e28330a8 	add	r3, r3, #168	; 0xa8
30053898:	e5933000 	ldr	r3, [r3]
3005389c:	e3a03456 	mov	r3, #1442840576	; 0x56000000
300538a0:	e28330a8 	add	r3, r3, #168	; 0xa8
300538a4:	e3e02000 	mvn	r2, #0	; 0x0
300538a8:	e5832000 	str	r2, [r3]
300538ac:	e3a0344a 	mov	r3, #1241513984	; 0x4a000000
300538b0:	e2833008 	add	r3, r3, #8	; 0x8
300538b4:	e51b2008 	ldr	r2, [fp, #-8]
300538b8:	e5832000 	str	r2, [r3]
300538bc:	e24bd004 	sub	sp, fp, #4	; 0x4
300538c0:	e8bd4800 	pop	{fp, lr}
300538c4:	e12fff1e 	bx	lr

300538c8 <led_init>:
300538c8:	e52db004 	push	{fp}		; (str fp, [sp, #-4]!)
300538cc:	e28db000 	add	fp, sp, #0	; 0x0
300538d0:	e3a02456 	mov	r2, #1442840576	; 0x56000000
300538d4:	e2822010 	add	r2, r2, #16	; 0x10
300538d8:	e3a03456 	mov	r3, #1442840576	; 0x56000000
300538dc:	e2833010 	add	r3, r3, #16	; 0x10
300538e0:	e5933000 	ldr	r3, [r3]
300538e4:	e3c33bff 	bic	r3, r3, #261120	; 0x3fc00
300538e8:	e5823000 	str	r3, [r2]
300538ec:	e3a02456 	mov	r2, #1442840576	; 0x56000000
300538f0:	e2822010 	add	r2, r2, #16	; 0x10
300538f4:	e3a03456 	mov	r3, #1442840576	; 0x56000000
300538f8:	e2833010 	add	r3, r3, #16	; 0x10
300538fc:	e5933000 	ldr	r3, [r3]
30053900:	e3833b55 	orr	r3, r3, #87040	; 0x15400
30053904:	e5823000 	str	r3, [r2]
30053908:	e3a02456 	mov	r2, #1442840576	; 0x56000000
3005390c:	e2822014 	add	r2, r2, #20	; 0x14
30053910:	e3a03456 	mov	r3, #1442840576	; 0x56000000
30053914:	e2833014 	add	r3, r3, #20	; 0x14
30053918:	e5933000 	ldr	r3, [r3]
3005391c:	e3833e1e 	orr	r3, r3, #480	; 0x1e0
30053920:	e5823000 	str	r3, [r2]
30053924:	e28bd000 	add	sp, fp, #0	; 0x0
30053928:	e8bd0800 	pop	{fp}
3005392c:	e12fff1e 	bx	lr

30053930 <led_print_char>:
30053930:	e52db004 	push	{fp}		; (str fp, [sp, #-4]!)
30053934:	e28db000 	add	fp, sp, #0	; 0x0
30053938:	e24dd00c 	sub	sp, sp, #12	; 0xc
3005393c:	e1a03000 	mov	r3, r0
30053940:	e54b3005 	strb	r3, [fp, #-5]
30053944:	e3a02456 	mov	r2, #1442840576	; 0x56000000
30053948:	e2822014 	add	r2, r2, #20	; 0x14
3005394c:	e55b3005 	ldrb	r3, [fp, #-5]
30053950:	e203300f 	and	r3, r3, #15	; 0xf
30053954:	e1e03003 	mvn	r3, r3
30053958:	e1a03283 	lsl	r3, r3, #5
3005395c:	e5823000 	str	r3, [r2]
30053960:	e28bd000 	add	sp, fp, #0	; 0x0
30053964:	e8bd0800 	pop	{fp}
30053968:	e12fff1e 	bx	lr

3005396c <light_led>:
3005396c:	e52db004 	push	{fp}		; (str fp, [sp, #-4]!)
30053970:	e28db000 	add	fp, sp, #0	; 0x0
30053974:	e24dd014 	sub	sp, sp, #20	; 0x14
30053978:	e50b0010 	str	r0, [fp, #-16]
3005397c:	e3a03456 	mov	r3, #1442840576	; 0x56000000
30053980:	e2833010 	add	r3, r3, #16	; 0x10
30053984:	e5933000 	ldr	r3, [r3]
30053988:	e50b300c 	str	r3, [fp, #-12]
3005398c:	e3a03456 	mov	r3, #1442840576	; 0x56000000
30053990:	e2833014 	add	r3, r3, #20	; 0x14
30053994:	e5933000 	ldr	r3, [r3]
30053998:	e50b3008 	str	r3, [fp, #-8]
3005399c:	e51b3010 	ldr	r3, [fp, #-16]
300539a0:	e2833005 	add	r3, r3, #5	; 0x5
300539a4:	e1a02083 	lsl	r2, r3, #1
300539a8:	e3a03003 	mov	r3, #3	; 0x3
300539ac:	e1a03213 	lsl	r3, r3, r2
300539b0:	e1e03003 	mvn	r3, r3
300539b4:	e1a02003 	mov	r2, r3
300539b8:	e51b300c 	ldr	r3, [fp, #-12]
300539bc:	e0033002 	and	r3, r3, r2
300539c0:	e50b300c 	str	r3, [fp, #-12]
300539c4:	e51b3010 	ldr	r3, [fp, #-16]
300539c8:	e2833005 	add	r3, r3, #5	; 0x5
300539cc:	e1a02083 	lsl	r2, r3, #1
300539d0:	e3a03001 	mov	r3, #1	; 0x1
300539d4:	e1a03213 	lsl	r3, r3, r2
300539d8:	e1a02003 	mov	r2, r3
300539dc:	e51b300c 	ldr	r3, [fp, #-12]
300539e0:	e1833002 	orr	r3, r3, r2
300539e4:	e50b300c 	str	r3, [fp, #-12]
300539e8:	e51b3010 	ldr	r3, [fp, #-16]
300539ec:	e2832005 	add	r2, r3, #5	; 0x5
300539f0:	e3a03001 	mov	r3, #1	; 0x1
300539f4:	e1a03213 	lsl	r3, r3, r2
300539f8:	e1e03003 	mvn	r3, r3
300539fc:	e1a02003 	mov	r2, r3
30053a00:	e51b3008 	ldr	r3, [fp, #-8]
30053a04:	e0033002 	and	r3, r3, r2
30053a08:	e50b3008 	str	r3, [fp, #-8]
30053a0c:	e3a03456 	mov	r3, #1442840576	; 0x56000000
30053a10:	e2833010 	add	r3, r3, #16	; 0x10
30053a14:	e51b200c 	ldr	r2, [fp, #-12]
30053a18:	e5832000 	str	r2, [r3]
30053a1c:	e3a03456 	mov	r3, #1442840576	; 0x56000000
30053a20:	e2833014 	add	r3, r3, #20	; 0x14
30053a24:	e51b2008 	ldr	r2, [fp, #-8]
30053a28:	e5832000 	str	r2, [r3]
30053a2c:	e28bd000 	add	sp, fp, #0	; 0x0
30053a30:	e8bd0800 	pop	{fp}
30053a34:	e12fff1e 	bx	lr

30053a38 <put_out_led>:
30053a38:	e52db004 	push	{fp}		; (str fp, [sp, #-4]!)
30053a3c:	e28db000 	add	fp, sp, #0	; 0x0
30053a40:	e24dd014 	sub	sp, sp, #20	; 0x14
30053a44:	e50b0010 	str	r0, [fp, #-16]
30053a48:	e3a03456 	mov	r3, #1442840576	; 0x56000000
30053a4c:	e2833010 	add	r3, r3, #16	; 0x10
30053a50:	e5933000 	ldr	r3, [r3]
30053a54:	e50b300c 	str	r3, [fp, #-12]
30053a58:	e3a03456 	mov	r3, #1442840576	; 0x56000000
30053a5c:	e2833014 	add	r3, r3, #20	; 0x14
30053a60:	e5933000 	ldr	r3, [r3]
30053a64:	e50b3008 	str	r3, [fp, #-8]
30053a68:	e51b3010 	ldr	r3, [fp, #-16]
30053a6c:	e2833005 	add	r3, r3, #5	; 0x5
30053a70:	e1a02083 	lsl	r2, r3, #1
30053a74:	e3a03003 	mov	r3, #3	; 0x3
30053a78:	e1a03213 	lsl	r3, r3, r2
30053a7c:	e1e03003 	mvn	r3, r3
30053a80:	e1a02003 	mov	r2, r3
30053a84:	e51b300c 	ldr	r3, [fp, #-12]
30053a88:	e0033002 	and	r3, r3, r2
30053a8c:	e50b300c 	str	r3, [fp, #-12]
30053a90:	e51b3010 	ldr	r3, [fp, #-16]
30053a94:	e2833005 	add	r3, r3, #5	; 0x5
30053a98:	e1a02083 	lsl	r2, r3, #1
30053a9c:	e3a03001 	mov	r3, #1	; 0x1
30053aa0:	e1a03213 	lsl	r3, r3, r2
30053aa4:	e1a02003 	mov	r2, r3
30053aa8:	e51b300c 	ldr	r3, [fp, #-12]
30053aac:	e1833002 	orr	r3, r3, r2
30053ab0:	e50b300c 	str	r3, [fp, #-12]
30053ab4:	e51b3010 	ldr	r3, [fp, #-16]
30053ab8:	e2832005 	add	r2, r3, #5	; 0x5
30053abc:	e3a03001 	mov	r3, #1	; 0x1
30053ac0:	e1a03213 	lsl	r3, r3, r2
30053ac4:	e1a02003 	mov	r2, r3
30053ac8:	e51b3008 	ldr	r3, [fp, #-8]
30053acc:	e1833002 	orr	r3, r3, r2
30053ad0:	e50b3008 	str	r3, [fp, #-8]
30053ad4:	e3a03456 	mov	r3, #1442840576	; 0x56000000
30053ad8:	e2833010 	add	r3, r3, #16	; 0x10
30053adc:	e51b200c 	ldr	r2, [fp, #-12]
30053ae0:	e5832000 	str	r2, [r3]
30053ae4:	e3a03456 	mov	r3, #1442840576	; 0x56000000
30053ae8:	e2833014 	add	r3, r3, #20	; 0x14
30053aec:	e51b2008 	ldr	r2, [fp, #-8]
30053af0:	e5832000 	str	r2, [r3]
30053af4:	e28bd000 	add	sp, fp, #0	; 0x0
30053af8:	e8bd0800 	pop	{fp}
30053afc:	e12fff1e 	bx	lr

30053b00 <led_test>:
30053b00:	e92d4800 	push	{fp, lr}
30053b04:	e28db004 	add	fp, sp, #4	; 0x4
30053b08:	e24dd010 	sub	sp, sp, #16	; 0x10
30053b0c:	e50b0010 	str	r0, [fp, #-16]
30053b10:	e50b1014 	str	r1, [fp, #-20]
30053b14:	e59f006c 	ldr	r0, [pc, #108]	; 30053b88 <led_test+0x88>
30053b18:	eb000117 	bl	30053f7c <print_string>
30053b1c:	e3a03000 	mov	r3, #0	; 0x0
30053b20:	e50b300c 	str	r3, [fp, #-12]
30053b24:	e3a03000 	mov	r3, #0	; 0x0
30053b28:	e50b3008 	str	r3, [fp, #-8]
30053b2c:	e3a03000 	mov	r3, #0	; 0x0
30053b30:	e50b3008 	str	r3, [fp, #-8]
30053b34:	ea00000b 	b	30053b68 <led_test+0x68>
30053b38:	e59f004c 	ldr	r0, [pc, #76]	; 30053b8c <led_test+0x8c>
30053b3c:	eb00010e 	bl	30053f7c <print_string>
30053b40:	e51b0008 	ldr	r0, [fp, #-8]
30053b44:	ebffff88 	bl	3005396c <light_led>
30053b48:	e3a00a7a 	mov	r0, #499712	; 0x7a000
30053b4c:	e2800e12 	add	r0, r0, #288	; 0x120
30053b50:	ebfff4eb 	bl	30050f04 <delay>
30053b54:	e51b0008 	ldr	r0, [fp, #-8]
30053b58:	ebffffb6 	bl	30053a38 <put_out_led>
30053b5c:	e51b3008 	ldr	r3, [fp, #-8]
30053b60:	e2833001 	add	r3, r3, #1	; 0x1
30053b64:	e50b3008 	str	r3, [fp, #-8]
30053b68:	e51b3008 	ldr	r3, [fp, #-8]
30053b6c:	e3530003 	cmp	r3, #3	; 0x3
30053b70:	dafffff0 	ble	30053b38 <led_test+0x38>
30053b74:	e51b300c 	ldr	r3, [fp, #-12]
30053b78:	e1a00003 	mov	r0, r3
30053b7c:	e24bd004 	sub	sp, fp, #4	; 0x4
30053b80:	e8bd4800 	pop	{fp, lr}
30053b84:	e12fff1e 	bx	lr
30053b88:	3005c0a4 	.word	0x3005c0a4
30053b8c:	3005c0bc 	.word	0x3005c0bc

30053b90 <FindOutUart>:
30053b90:	e52db004 	push	{fp}		; (str fp, [sp, #-4]!)
30053b94:	e28db000 	add	fp, sp, #0	; 0x0
30053b98:	e24dd014 	sub	sp, sp, #20	; 0x14
30053b9c:	e50b0010 	str	r0, [fp, #-16]
30053ba0:	e3e03000 	mvn	r3, #0	; 0x0
30053ba4:	e50b300c 	str	r3, [fp, #-12]
30053ba8:	e3a03000 	mov	r3, #0	; 0x0
30053bac:	e50b3008 	str	r3, [fp, #-8]
30053bb0:	e3a03000 	mov	r3, #0	; 0x0
30053bb4:	e50b3008 	str	r3, [fp, #-8]
30053bb8:	ea00000f 	b	30053bfc <FindOutUart+0x6c>
30053bbc:	e51b3008 	ldr	r3, [fp, #-8]
30053bc0:	e59f1054 	ldr	r1, [pc, #84]	; 30053c1c <FindOutUart+0x8c>
30053bc4:	e1a02203 	lsl	r2, r3, #4
30053bc8:	e1a03102 	lsl	r3, r2, #2
30053bcc:	e0623003 	rsb	r3, r2, r3
30053bd0:	e0813003 	add	r3, r1, r3
30053bd4:	e5932000 	ldr	r2, [r3]
30053bd8:	e51b3010 	ldr	r3, [fp, #-16]
30053bdc:	e1520003 	cmp	r2, r3
30053be0:	1a000002 	bne	30053bf0 <FindOutUart+0x60>
30053be4:	e51b3008 	ldr	r3, [fp, #-8]
30053be8:	e50b300c 	str	r3, [fp, #-12]
30053bec:	ea000005 	b	30053c08 <FindOutUart+0x78>
30053bf0:	e51b3008 	ldr	r3, [fp, #-8]
30053bf4:	e2833001 	add	r3, r3, #1	; 0x1
30053bf8:	e50b3008 	str	r3, [fp, #-8]
30053bfc:	e51b3008 	ldr	r3, [fp, #-8]
30053c00:	e3530002 	cmp	r3, #2	; 0x2
30053c04:	daffffec 	ble	30053bbc <FindOutUart+0x2c>
30053c08:	e51b300c 	ldr	r3, [fp, #-12]
30053c0c:	e1a00003 	mov	r0, r3
30053c10:	e28bd000 	add	sp, fp, #0	; 0x0
30053c14:	e8bd0800 	pop	{fp}
30053c18:	e12fff1e 	bx	lr
30053c1c:	3005ea78 	.word	0x3005ea78

30053c20 <SetUlconReg>:
30053c20:	e92d4800 	push	{fp, lr}
30053c24:	e28db004 	add	fp, sp, #4	; 0x4
30053c28:	e24dd010 	sub	sp, sp, #16	; 0x10
30053c2c:	e50b0010 	str	r0, [fp, #-16]
30053c30:	e50b1014 	str	r1, [fp, #-20]
30053c34:	e3a03000 	mov	r3, #0	; 0x0
30053c38:	e50b3008 	str	r3, [fp, #-8]
30053c3c:	e51b0010 	ldr	r0, [fp, #-16]
30053c40:	ebffffd2 	bl	30053b90 <FindOutUart>
30053c44:	e1a03000 	mov	r3, r0
30053c48:	e50b3008 	str	r3, [fp, #-8]
30053c4c:	e51b3008 	ldr	r3, [fp, #-8]
30053c50:	e3530000 	cmp	r3, #0	; 0x0
30053c54:	ba00000a 	blt	30053c84 <SetUlconReg+0x64>
30053c58:	e51b3008 	ldr	r3, [fp, #-8]
30053c5c:	e59f102c 	ldr	r1, [pc, #44]	; 30053c90 <SetUlconReg+0x70>
30053c60:	e3a00004 	mov	r0, #4	; 0x4
30053c64:	e1a02203 	lsl	r2, r3, #4
30053c68:	e1a03102 	lsl	r3, r2, #2
30053c6c:	e0623003 	rsb	r3, r2, r3
30053c70:	e0813003 	add	r3, r1, r3
30053c74:	e0833000 	add	r3, r3, r0
30053c78:	e5932000 	ldr	r2, [r3]
30053c7c:	e51b3014 	ldr	r3, [fp, #-20]
30053c80:	e5823000 	str	r3, [r2]
30053c84:	e24bd004 	sub	sp, fp, #4	; 0x4
30053c88:	e8bd4800 	pop	{fp, lr}
30053c8c:	e12fff1e 	bx	lr
30053c90:	3005ea78 	.word	0x3005ea78

30053c94 <SetUconReg>:
30053c94:	e92d4800 	push	{fp, lr}
30053c98:	e28db004 	add	fp, sp, #4	; 0x4
30053c9c:	e24dd010 	sub	sp, sp, #16	; 0x10
30053ca0:	e50b0010 	str	r0, [fp, #-16]
30053ca4:	e50b1014 	str	r1, [fp, #-20]
30053ca8:	e3a03000 	mov	r3, #0	; 0x0
30053cac:	e50b3008 	str	r3, [fp, #-8]
30053cb0:	e51b0010 	ldr	r0, [fp, #-16]
30053cb4:	ebffffb5 	bl	30053b90 <FindOutUart>
30053cb8:	e1a03000 	mov	r3, r0
30053cbc:	e50b3008 	str	r3, [fp, #-8]
30053cc0:	e51b3008 	ldr	r3, [fp, #-8]
30053cc4:	e3530000 	cmp	r3, #0	; 0x0
30053cc8:	ba000008 	blt	30053cf0 <SetUconReg+0x5c>
30053ccc:	e51b3008 	ldr	r3, [fp, #-8]
30053cd0:	e59f1024 	ldr	r1, [pc, #36]	; 30053cfc <SetUconReg+0x68>
30053cd4:	e1a02083 	lsl	r2, r3, #1
30053cd8:	e1a03102 	lsl	r3, r2, #2
30053cdc:	e0623003 	rsb	r3, r2, r3
30053ce0:	e2833001 	add	r3, r3, #1	; 0x1
30053ce4:	e7912183 	ldr	r2, [r1, r3, lsl #3]
30053ce8:	e51b3014 	ldr	r3, [fp, #-20]
30053cec:	e5823000 	str	r3, [r2]
30053cf0:	e24bd004 	sub	sp, fp, #4	; 0x4
30053cf4:	e8bd4800 	pop	{fp, lr}
30053cf8:	e12fff1e 	bx	lr
30053cfc:	3005ea78 	.word	0x3005ea78

30053d00 <SetUbrdivReg>:
30053d00:	e92d4800 	push	{fp, lr}
30053d04:	e28db004 	add	fp, sp, #4	; 0x4
30053d08:	e24dd010 	sub	sp, sp, #16	; 0x10
30053d0c:	e50b0010 	str	r0, [fp, #-16]
30053d10:	e50b1014 	str	r1, [fp, #-20]
30053d14:	e3a03000 	mov	r3, #0	; 0x0
30053d18:	e50b3008 	str	r3, [fp, #-8]
30053d1c:	e51b0010 	ldr	r0, [fp, #-16]
30053d20:	ebffff9a 	bl	30053b90 <FindOutUart>
30053d24:	e1a03000 	mov	r3, r0
30053d28:	e50b3008 	str	r3, [fp, #-8]
30053d2c:	e51b3008 	ldr	r3, [fp, #-8]
30053d30:	e3530000 	cmp	r3, #0	; 0x0
30053d34:	ba00000a 	blt	30053d64 <SetUbrdivReg+0x64>
30053d38:	e51b3008 	ldr	r3, [fp, #-8]
30053d3c:	e59f102c 	ldr	r1, [pc, #44]	; 30053d70 <SetUbrdivReg+0x70>
30053d40:	e3a0002c 	mov	r0, #44	; 0x2c
30053d44:	e1a02203 	lsl	r2, r3, #4
30053d48:	e1a03102 	lsl	r3, r2, #2
30053d4c:	e0623003 	rsb	r3, r2, r3
30053d50:	e0813003 	add	r3, r1, r3
30053d54:	e0833000 	add	r3, r3, r0
30053d58:	e5932000 	ldr	r2, [r3]
30053d5c:	e51b3014 	ldr	r3, [fp, #-20]
30053d60:	e5823000 	str	r3, [r2]
30053d64:	e24bd004 	sub	sp, fp, #4	; 0x4
30053d68:	e8bd4800 	pop	{fp, lr}
30053d6c:	e12fff1e 	bx	lr
30053d70:	3005ea78 	.word	0x3005ea78

30053d74 <Uart0Init>:
30053d74:	e92d4800 	push	{fp, lr}
30053d78:	e28db004 	add	fp, sp, #4	; 0x4
30053d7c:	e24dd008 	sub	sp, sp, #8	; 0x8
30053d80:	e50b0008 	str	r0, [fp, #-8]
30053d84:	e3a02456 	mov	r2, #1442840576	; 0x56000000
30053d88:	e2822070 	add	r2, r2, #112	; 0x70
30053d8c:	e3a03456 	mov	r3, #1442840576	; 0x56000000
30053d90:	e2833070 	add	r3, r3, #112	; 0x70
30053d94:	e5933000 	ldr	r3, [r3]
30053d98:	e3c330f0 	bic	r3, r3, #240	; 0xf0
30053d9c:	e5823000 	str	r3, [r2]
30053da0:	e3a02456 	mov	r2, #1442840576	; 0x56000000
30053da4:	e2822070 	add	r2, r2, #112	; 0x70
30053da8:	e3a03456 	mov	r3, #1442840576	; 0x56000000
30053dac:	e2833070 	add	r3, r3, #112	; 0x70
30053db0:	e5933000 	ldr	r3, [r3]
30053db4:	e38330a0 	orr	r3, r3, #160	; 0xa0
30053db8:	e5823000 	str	r3, [r2]
30053dbc:	e3a00000 	mov	r0, #0	; 0x0
30053dc0:	e3a01003 	mov	r1, #3	; 0x3
30053dc4:	ebffff95 	bl	30053c20 <SetUlconReg>
30053dc8:	e3a00000 	mov	r0, #0	; 0x0
30053dcc:	e3a01005 	mov	r1, #5	; 0x5
30053dd0:	ebffffaf 	bl	30053c94 <SetUconReg>
30053dd4:	e3a00000 	mov	r0, #0	; 0x0
30053dd8:	e3a0101a 	mov	r1, #26	; 0x1a
30053ddc:	ebffffc7 	bl	30053d00 <SetUbrdivReg>
30053de0:	e24bd004 	sub	sp, fp, #4	; 0x4
30053de4:	e8bd4800 	pop	{fp, lr}
30053de8:	e12fff1e 	bx	lr

30053dec <Uart0Send>:
30053dec:	e52db004 	push	{fp}		; (str fp, [sp, #-4]!)
30053df0:	e28db000 	add	fp, sp, #0	; 0x0
30053df4:	e24dd00c 	sub	sp, sp, #12	; 0xc
30053df8:	e1a03000 	mov	r3, r0
30053dfc:	e54b3005 	strb	r3, [fp, #-5]
30053e00:	e59f302c 	ldr	r3, [pc, #44]	; 30053e34 <Uart0Send+0x48>
30053e04:	e5933014 	ldr	r3, [r3, #20]
30053e08:	e5933000 	ldr	r3, [r3]
30053e0c:	e2033002 	and	r3, r3, #2	; 0x2
30053e10:	e3530000 	cmp	r3, #0	; 0x0
30053e14:	0afffff9 	beq	30053e00 <Uart0Send+0x14>
30053e18:	e59f3014 	ldr	r3, [pc, #20]	; 30053e34 <Uart0Send+0x48>
30053e1c:	e5932024 	ldr	r2, [r3, #36]
30053e20:	e55b3005 	ldrb	r3, [fp, #-5]
30053e24:	e5823000 	str	r3, [r2]
30053e28:	e28bd000 	add	sp, fp, #0	; 0x0
30053e2c:	e8bd0800 	pop	{fp}
30053e30:	e12fff1e 	bx	lr
30053e34:	3005ea78 	.word	0x3005ea78

30053e38 <Uart0Recv>:
30053e38:	e52db004 	push	{fp}		; (str fp, [sp, #-4]!)
30053e3c:	e28db000 	add	fp, sp, #0	; 0x0
30053e40:	e24dd00c 	sub	sp, sp, #12	; 0xc
30053e44:	e50b0008 	str	r0, [fp, #-8]
30053e48:	e59f3034 	ldr	r3, [pc, #52]	; 30053e84 <Uart0Recv+0x4c>
30053e4c:	e5933014 	ldr	r3, [r3, #20]
30053e50:	e5933000 	ldr	r3, [r3]
30053e54:	e2033001 	and	r3, r3, #1	; 0x1
30053e58:	e3530000 	cmp	r3, #0	; 0x0
30053e5c:	0afffff9 	beq	30053e48 <Uart0Recv+0x10>
30053e60:	e59f301c 	ldr	r3, [pc, #28]	; 30053e84 <Uart0Recv+0x4c>
30053e64:	e5933028 	ldr	r3, [r3, #40]
30053e68:	e5933000 	ldr	r3, [r3]
30053e6c:	e20330ff 	and	r3, r3, #255	; 0xff
30053e70:	e51b2008 	ldr	r2, [fp, #-8]
30053e74:	e5c23000 	strb	r3, [r2]
30053e78:	e28bd000 	add	sp, fp, #0	; 0x0
30053e7c:	e8bd0800 	pop	{fp}
30053e80:	e12fff1e 	bx	lr
30053e84:	3005ea78 	.word	0x3005ea78

30053e88 <uart0_init>:
30053e88:	e52db004 	push	{fp}		; (str fp, [sp, #-4]!)
30053e8c:	e28db000 	add	fp, sp, #0	; 0x0
30053e90:	e3a02456 	mov	r2, #1442840576	; 0x56000000
30053e94:	e2822070 	add	r2, r2, #112	; 0x70
30053e98:	e3a03456 	mov	r3, #1442840576	; 0x56000000
30053e9c:	e2833070 	add	r3, r3, #112	; 0x70
30053ea0:	e5933000 	ldr	r3, [r3]
30053ea4:	e3c330f0 	bic	r3, r3, #240	; 0xf0
30053ea8:	e5823000 	str	r3, [r2]
30053eac:	e3a02456 	mov	r2, #1442840576	; 0x56000000
30053eb0:	e2822070 	add	r2, r2, #112	; 0x70
30053eb4:	e3a03456 	mov	r3, #1442840576	; 0x56000000
30053eb8:	e2833070 	add	r3, r3, #112	; 0x70
30053ebc:	e5933000 	ldr	r3, [r3]
30053ec0:	e38330a0 	orr	r3, r3, #160	; 0xa0
30053ec4:	e5823000 	str	r3, [r2]
30053ec8:	e3a02205 	mov	r2, #1342177280	; 0x50000000
30053ecc:	e3a03003 	mov	r3, #3	; 0x3
30053ed0:	e5823000 	str	r3, [r2]
30053ed4:	e3a02245 	mov	r2, #1342177284	; 0x50000004
30053ed8:	e3a03005 	mov	r3, #5	; 0x5
30053edc:	e5823000 	str	r3, [r2]
30053ee0:	e3a03205 	mov	r3, #1342177280	; 0x50000000
30053ee4:	e2833028 	add	r3, r3, #40	; 0x28
30053ee8:	e3a0201a 	mov	r2, #26	; 0x1a
30053eec:	e5832000 	str	r2, [r3]
30053ef0:	e28bd000 	add	sp, fp, #0	; 0x0
30053ef4:	e8bd0800 	pop	{fp}
30053ef8:	e12fff1e 	bx	lr

30053efc <uart1_init>:
30053efc:	e52db004 	push	{fp}		; (str fp, [sp, #-4]!)
30053f00:	e28db000 	add	fp, sp, #0	; 0x0
30053f04:	e3a02456 	mov	r2, #1442840576	; 0x56000000
30053f08:	e2822070 	add	r2, r2, #112	; 0x70
30053f0c:	e3a03456 	mov	r3, #1442840576	; 0x56000000
30053f10:	e2833070 	add	r3, r3, #112	; 0x70
30053f14:	e5933000 	ldr	r3, [r3]
30053f18:	e3c33c1e 	bic	r3, r3, #7680	; 0x1e00
30053f1c:	e5823000 	str	r3, [r2]
30053f20:	e3a02456 	mov	r2, #1442840576	; 0x56000000
30053f24:	e2822070 	add	r2, r2, #112	; 0x70
30053f28:	e3a03456 	mov	r3, #1442840576	; 0x56000000
30053f2c:	e2833070 	add	r3, r3, #112	; 0x70
30053f30:	e5933000 	ldr	r3, [r3]
30053f34:	e3833b05 	orr	r3, r3, #5120	; 0x1400
30053f38:	e5823000 	str	r3, [r2]
30053f3c:	e3a03205 	mov	r3, #1342177280	; 0x50000000
30053f40:	e2833901 	add	r3, r3, #16384	; 0x4000
30053f44:	e3a02003 	mov	r2, #3	; 0x3
30053f48:	e5832000 	str	r2, [r3]
30053f4c:	e3a03901 	mov	r3, #16384	; 0x4000
30053f50:	e2833245 	add	r3, r3, #1342177284	; 0x50000004
30053f54:	e3a02005 	mov	r2, #5	; 0x5
30053f58:	e5832000 	str	r2, [r3]
30053f5c:	e3a03205 	mov	r3, #1342177280	; 0x50000000
30053f60:	e2833901 	add	r3, r3, #16384	; 0x4000
30053f64:	e2833028 	add	r3, r3, #40	; 0x28
30053f68:	e3a0201a 	mov	r2, #26	; 0x1a
30053f6c:	e5832000 	str	r2, [r3]
30053f70:	e28bd000 	add	sp, fp, #0	; 0x0
30053f74:	e8bd0800 	pop	{fp}
30053f78:	e12fff1e 	bx	lr

30053f7c <print_string>:
30053f7c:	e92d4800 	push	{fp, lr}
30053f80:	e28db004 	add	fp, sp, #4	; 0x4
30053f84:	e24dd010 	sub	sp, sp, #16	; 0x10
30053f88:	e50b0010 	str	r0, [fp, #-16]
30053f8c:	e51b3010 	ldr	r3, [fp, #-16]
30053f90:	e50b3008 	str	r3, [fp, #-8]
30053f94:	e51b3008 	ldr	r3, [fp, #-8]
30053f98:	e3530000 	cmp	r3, #0	; 0x0
30053f9c:	0a00000b 	beq	30053fd0 <print_string+0x54>
30053fa0:	ea000006 	b	30053fc0 <print_string+0x44>
30053fa4:	e51b3008 	ldr	r3, [fp, #-8]
30053fa8:	e5d33000 	ldrb	r3, [r3]
30053fac:	e1a00003 	mov	r0, r3
30053fb0:	ebffff8d 	bl	30053dec <Uart0Send>
30053fb4:	e51b3008 	ldr	r3, [fp, #-8]
30053fb8:	e2833001 	add	r3, r3, #1	; 0x1
30053fbc:	e50b3008 	str	r3, [fp, #-8]
30053fc0:	e51b3008 	ldr	r3, [fp, #-8]
30053fc4:	e5d33000 	ldrb	r3, [r3]
30053fc8:	e3530000 	cmp	r3, #0	; 0x0
30053fcc:	1afffff4 	bne	30053fa4 <print_string+0x28>
30053fd0:	e24bd004 	sub	sp, fp, #4	; 0x4
30053fd4:	e8bd4800 	pop	{fp, lr}
30053fd8:	e12fff1e 	bx	lr

30053fdc <uart0_recv_string>:
30053fdc:	e92d4800 	push	{fp, lr}
30053fe0:	e28db004 	add	fp, sp, #4	; 0x4
30053fe4:	e24dd010 	sub	sp, sp, #16	; 0x10
30053fe8:	e50b0010 	str	r0, [fp, #-16]
30053fec:	e3a03000 	mov	r3, #0	; 0x0
30053ff0:	e50b3008 	str	r3, [fp, #-8]
30053ff4:	e51b3010 	ldr	r3, [fp, #-16]
30053ff8:	e3530000 	cmp	r3, #0	; 0x0
30053ffc:	0a000019 	beq	30054068 <uart0_recv_string+0x8c>
30054000:	e3a03000 	mov	r3, #0	; 0x0
30054004:	e50b3008 	str	r3, [fp, #-8]
30054008:	ea000013 	b	3005405c <uart0_recv_string+0x80>
3005400c:	e51b2008 	ldr	r2, [fp, #-8]
30054010:	e51b3010 	ldr	r3, [fp, #-16]
30054014:	e0833002 	add	r3, r3, r2
30054018:	e1a00003 	mov	r0, r3
3005401c:	ebffff85 	bl	30053e38 <Uart0Recv>
30054020:	e51b2008 	ldr	r2, [fp, #-8]
30054024:	e51b3010 	ldr	r3, [fp, #-16]
30054028:	e0833002 	add	r3, r3, r2
3005402c:	e5d33000 	ldrb	r3, [r3]
30054030:	e353000a 	cmp	r3, #10	; 0xa
30054034:	1a000005 	bne	30054050 <uart0_recv_string+0x74>
30054038:	e51b2008 	ldr	r2, [fp, #-8]
3005403c:	e51b3010 	ldr	r3, [fp, #-16]
30054040:	e0832002 	add	r2, r3, r2
30054044:	e3a03000 	mov	r3, #0	; 0x0
30054048:	e5c23000 	strb	r3, [r2]
3005404c:	ea000005 	b	30054068 <uart0_recv_string+0x8c>
30054050:	e51b3008 	ldr	r3, [fp, #-8]
30054054:	e2833001 	add	r3, r3, #1	; 0x1
30054058:	e50b3008 	str	r3, [fp, #-8]
3005405c:	e51b3008 	ldr	r3, [fp, #-8]
30054060:	e3530063 	cmp	r3, #99	; 0x63
30054064:	daffffe8 	ble	3005400c <uart0_recv_string+0x30>
30054068:	e24bd004 	sub	sp, fp, #4	; 0x4
3005406c:	e8bd4800 	pop	{fp, lr}
30054070:	e12fff1e 	bx	lr

30054074 <print_int_deci_data>:
30054074:	e92d4800 	push	{fp, lr}
30054078:	e28db004 	add	fp, sp, #4	; 0x4
3005407c:	e24dd048 	sub	sp, sp, #72	; 0x48
30054080:	e50b0020 	str	r0, [fp, #-32]
30054084:	e24b101b 	sub	r1, fp, #27	; 0x1b
30054088:	e50b1048 	str	r1, [fp, #-72]
3005408c:	e3a03000 	mov	r3, #0	; 0x0
30054090:	e51b2048 	ldr	r2, [fp, #-72]
30054094:	e5c23000 	strb	r3, [r2]
30054098:	e51b3048 	ldr	r3, [fp, #-72]
3005409c:	e2833001 	add	r3, r3, #1	; 0x1
300540a0:	e50b3048 	str	r3, [fp, #-72]
300540a4:	e3a03000 	mov	r3, #0	; 0x0
300540a8:	e51b1048 	ldr	r1, [fp, #-72]
300540ac:	e5c13000 	strb	r3, [r1]
300540b0:	e51b2048 	ldr	r2, [fp, #-72]
300540b4:	e2822001 	add	r2, r2, #1	; 0x1
300540b8:	e50b2048 	str	r2, [fp, #-72]
300540bc:	e3a03000 	mov	r3, #0	; 0x0
300540c0:	e51b1048 	ldr	r1, [fp, #-72]
300540c4:	e5c13000 	strb	r3, [r1]
300540c8:	e51b2048 	ldr	r2, [fp, #-72]
300540cc:	e2822001 	add	r2, r2, #1	; 0x1
300540d0:	e50b2048 	str	r2, [fp, #-72]
300540d4:	e3a03000 	mov	r3, #0	; 0x0
300540d8:	e51b1048 	ldr	r1, [fp, #-72]
300540dc:	e5c13000 	strb	r3, [r1]
300540e0:	e51b2048 	ldr	r2, [fp, #-72]
300540e4:	e2822001 	add	r2, r2, #1	; 0x1
300540e8:	e50b2048 	str	r2, [fp, #-72]
300540ec:	e3a03000 	mov	r3, #0	; 0x0
300540f0:	e51b1048 	ldr	r1, [fp, #-72]
300540f4:	e5c13000 	strb	r3, [r1]
300540f8:	e51b2048 	ldr	r2, [fp, #-72]
300540fc:	e2822001 	add	r2, r2, #1	; 0x1
30054100:	e50b2048 	str	r2, [fp, #-72]
30054104:	e3a03000 	mov	r3, #0	; 0x0
30054108:	e51b1048 	ldr	r1, [fp, #-72]
3005410c:	e5c13000 	strb	r3, [r1]
30054110:	e51b2048 	ldr	r2, [fp, #-72]
30054114:	e2822001 	add	r2, r2, #1	; 0x1
30054118:	e50b2048 	str	r2, [fp, #-72]
3005411c:	e3a03000 	mov	r3, #0	; 0x0
30054120:	e51b1048 	ldr	r1, [fp, #-72]
30054124:	e5c13000 	strb	r3, [r1]
30054128:	e51b2048 	ldr	r2, [fp, #-72]
3005412c:	e2822001 	add	r2, r2, #1	; 0x1
30054130:	e50b2048 	str	r2, [fp, #-72]
30054134:	e3a03000 	mov	r3, #0	; 0x0
30054138:	e51b1048 	ldr	r1, [fp, #-72]
3005413c:	e5c13000 	strb	r3, [r1]
30054140:	e51b2048 	ldr	r2, [fp, #-72]
30054144:	e2822001 	add	r2, r2, #1	; 0x1
30054148:	e50b2048 	str	r2, [fp, #-72]
3005414c:	e3a03000 	mov	r3, #0	; 0x0
30054150:	e51b1048 	ldr	r1, [fp, #-72]
30054154:	e5c13000 	strb	r3, [r1]
30054158:	e51b2048 	ldr	r2, [fp, #-72]
3005415c:	e2822001 	add	r2, r2, #1	; 0x1
30054160:	e50b2048 	str	r2, [fp, #-72]
30054164:	e3a03000 	mov	r3, #0	; 0x0
30054168:	e51b1048 	ldr	r1, [fp, #-72]
3005416c:	e5c13000 	strb	r3, [r1]
30054170:	e51b2048 	ldr	r2, [fp, #-72]
30054174:	e2822001 	add	r2, r2, #1	; 0x1
30054178:	e3a03000 	mov	r3, #0	; 0x0
3005417c:	e54b3011 	strb	r3, [fp, #-17]
30054180:	e3a0300a 	mov	r3, #10	; 0xa
30054184:	e50b3010 	str	r3, [fp, #-16]
30054188:	e3a03009 	mov	r3, #9	; 0x9
3005418c:	e50b300c 	str	r3, [fp, #-12]
30054190:	e3a0300a 	mov	r3, #10	; 0xa
30054194:	e50b3008 	str	r3, [fp, #-8]
30054198:	e51b1020 	ldr	r1, [fp, #-32]
3005419c:	e59f3494 	ldr	r3, [pc, #1172]	; 30054638 <print_int_deci_data+0x5c4>
300541a0:	e0c32391 	smull	r2, r3, r1, r3
300541a4:	e1a02143 	asr	r2, r3, #2
300541a8:	e1a03fc1 	asr	r3, r1, #31
300541ac:	e0633002 	rsb	r3, r3, r2
300541b0:	e50b3044 	str	r3, [fp, #-68]
300541b4:	e51b3044 	ldr	r3, [fp, #-68]
300541b8:	e1a03083 	lsl	r3, r3, #1
300541bc:	e1a02103 	lsl	r2, r3, #2
300541c0:	e0833002 	add	r3, r3, r2
300541c4:	e0633001 	rsb	r3, r3, r1
300541c8:	e50b3044 	str	r3, [fp, #-68]
300541cc:	e51b1044 	ldr	r1, [fp, #-68]
300541d0:	e20130ff 	and	r3, r1, #255	; 0xff
300541d4:	e54b3012 	strb	r3, [fp, #-18]
300541d8:	e51b1020 	ldr	r1, [fp, #-32]
300541dc:	e59f3458 	ldr	r3, [pc, #1112]	; 3005463c <print_int_deci_data+0x5c8>
300541e0:	e0c32391 	smull	r2, r3, r1, r3
300541e4:	e1a022c3 	asr	r2, r3, #5
300541e8:	e1a03fc1 	asr	r3, r1, #31
300541ec:	e0633002 	rsb	r3, r3, r2
300541f0:	e50b3040 	str	r3, [fp, #-64]
300541f4:	e51b3040 	ldr	r3, [fp, #-64]
300541f8:	e1a03103 	lsl	r3, r3, #2
300541fc:	e1a02103 	lsl	r2, r3, #2
30054200:	e0833002 	add	r3, r3, r2
30054204:	e1a02103 	lsl	r2, r3, #2
30054208:	e0833002 	add	r3, r3, r2
3005420c:	e0633001 	rsb	r3, r3, r1
30054210:	e50b3040 	str	r3, [fp, #-64]
30054214:	e59f341c 	ldr	r3, [pc, #1052]	; 30054638 <print_int_deci_data+0x5c4>
30054218:	e51b1040 	ldr	r1, [fp, #-64]
3005421c:	e0c32391 	smull	r2, r3, r1, r3
30054220:	e1a02143 	asr	r2, r3, #2
30054224:	e51b1040 	ldr	r1, [fp, #-64]
30054228:	e1a03fc1 	asr	r3, r1, #31
3005422c:	e0633002 	rsb	r3, r3, r2
30054230:	e20330ff 	and	r3, r3, #255	; 0xff
30054234:	e54b3013 	strb	r3, [fp, #-19]
30054238:	e51b1020 	ldr	r1, [fp, #-32]
3005423c:	e59f33fc 	ldr	r3, [pc, #1020]	; 30054640 <print_int_deci_data+0x5cc>
30054240:	e0c32391 	smull	r2, r3, r1, r3
30054244:	e1a02343 	asr	r2, r3, #6
30054248:	e1a03fc1 	asr	r3, r1, #31
3005424c:	e0633002 	rsb	r3, r3, r2
30054250:	e50b303c 	str	r3, [fp, #-60]
30054254:	e51b303c 	ldr	r3, [fp, #-60]
30054258:	e1a02103 	lsl	r2, r3, #2
3005425c:	e1a03282 	lsl	r3, r2, #5
30054260:	e0623003 	rsb	r3, r2, r3
30054264:	e51b203c 	ldr	r2, [fp, #-60]
30054268:	e0833002 	add	r3, r3, r2
3005426c:	e1a03183 	lsl	r3, r3, #3
30054270:	e0633001 	rsb	r3, r3, r1
30054274:	e50b303c 	str	r3, [fp, #-60]
30054278:	e59f33bc 	ldr	r3, [pc, #956]	; 3005463c <print_int_deci_data+0x5c8>
3005427c:	e51b103c 	ldr	r1, [fp, #-60]
30054280:	e0c32391 	smull	r2, r3, r1, r3
30054284:	e1a022c3 	asr	r2, r3, #5
30054288:	e51b103c 	ldr	r1, [fp, #-60]
3005428c:	e1a03fc1 	asr	r3, r1, #31
30054290:	e0633002 	rsb	r3, r3, r2
30054294:	e20330ff 	and	r3, r3, #255	; 0xff
30054298:	e54b3014 	strb	r3, [fp, #-20]
3005429c:	e51b1020 	ldr	r1, [fp, #-32]
300542a0:	e59f339c 	ldr	r3, [pc, #924]	; 30054644 <print_int_deci_data+0x5d0>
300542a4:	e0c32391 	smull	r2, r3, r1, r3
300542a8:	e1a02643 	asr	r2, r3, #12
300542ac:	e1a03fc1 	asr	r3, r1, #31
300542b0:	e0633002 	rsb	r3, r3, r2
300542b4:	e50b3038 	str	r3, [fp, #-56]
300542b8:	e51b3038 	ldr	r3, [fp, #-56]
300542bc:	e1a02103 	lsl	r2, r3, #2
300542c0:	e1a03282 	lsl	r3, r2, #5
300542c4:	e0623003 	rsb	r3, r2, r3
300542c8:	e51b2038 	ldr	r2, [fp, #-56]
300542cc:	e0833002 	add	r3, r3, r2
300542d0:	e1a02103 	lsl	r2, r3, #2
300542d4:	e0833002 	add	r3, r3, r2
300542d8:	e1a03203 	lsl	r3, r3, #4
300542dc:	e0633001 	rsb	r3, r3, r1
300542e0:	e50b3038 	str	r3, [fp, #-56]
300542e4:	e59f3354 	ldr	r3, [pc, #852]	; 30054640 <print_int_deci_data+0x5cc>
300542e8:	e51b1038 	ldr	r1, [fp, #-56]
300542ec:	e0c32391 	smull	r2, r3, r1, r3
300542f0:	e1a02343 	asr	r2, r3, #6
300542f4:	e51b1038 	ldr	r1, [fp, #-56]
300542f8:	e1a03fc1 	asr	r3, r1, #31
300542fc:	e0633002 	rsb	r3, r3, r2
30054300:	e20330ff 	and	r3, r3, #255	; 0xff
30054304:	e54b3015 	strb	r3, [fp, #-21]
30054308:	e51b1020 	ldr	r1, [fp, #-32]
3005430c:	e59f3334 	ldr	r3, [pc, #820]	; 30054648 <print_int_deci_data+0x5d4>
30054310:	e0c32391 	smull	r2, r3, r1, r3
30054314:	e1a026c3 	asr	r2, r3, #13
30054318:	e1a03fc1 	asr	r3, r1, #31
3005431c:	e0633002 	rsb	r3, r3, r2
30054320:	e50b3034 	str	r3, [fp, #-52]
30054324:	e51b3034 	ldr	r3, [fp, #-52]
30054328:	e1a02103 	lsl	r2, r3, #2
3005432c:	e1a03282 	lsl	r3, r2, #5
30054330:	e0623003 	rsb	r3, r2, r3
30054334:	e51b2034 	ldr	r2, [fp, #-52]
30054338:	e0833002 	add	r3, r3, r2
3005433c:	e1a02103 	lsl	r2, r3, #2
30054340:	e0833002 	add	r3, r3, r2
30054344:	e1a02103 	lsl	r2, r3, #2
30054348:	e0833002 	add	r3, r3, r2
3005434c:	e1a03283 	lsl	r3, r3, #5
30054350:	e0633001 	rsb	r3, r3, r1
30054354:	e50b3034 	str	r3, [fp, #-52]
30054358:	e59f32e4 	ldr	r3, [pc, #740]	; 30054644 <print_int_deci_data+0x5d0>
3005435c:	e51b1034 	ldr	r1, [fp, #-52]
30054360:	e0c32391 	smull	r2, r3, r1, r3
30054364:	e1a02643 	asr	r2, r3, #12
30054368:	e51b1034 	ldr	r1, [fp, #-52]
3005436c:	e1a03fc1 	asr	r3, r1, #31
30054370:	e0633002 	rsb	r3, r3, r2
30054374:	e20330ff 	and	r3, r3, #255	; 0xff
30054378:	e54b3016 	strb	r3, [fp, #-22]
3005437c:	e51b1020 	ldr	r1, [fp, #-32]
30054380:	e59f32c4 	ldr	r3, [pc, #708]	; 3005464c <print_int_deci_data+0x5d8>
30054384:	e0c32391 	smull	r2, r3, r1, r3
30054388:	e1a02943 	asr	r2, r3, #18
3005438c:	e1a03fc1 	asr	r3, r1, #31
30054390:	e0633002 	rsb	r3, r3, r2
30054394:	e50b3030 	str	r3, [fp, #-48]
30054398:	e51b3030 	ldr	r3, [fp, #-48]
3005439c:	e1a03183 	lsl	r3, r3, #3
300543a0:	e1a02283 	lsl	r2, r3, #5
300543a4:	e0632002 	rsb	r2, r3, r2
300543a8:	e1a03302 	lsl	r3, r2, #6
300543ac:	e0623003 	rsb	r3, r2, r3
300543b0:	e51b2030 	ldr	r2, [fp, #-48]
300543b4:	e0833002 	add	r3, r3, r2
300543b8:	e1a03303 	lsl	r3, r3, #6
300543bc:	e0633001 	rsb	r3, r3, r1
300543c0:	e50b3030 	str	r3, [fp, #-48]
300543c4:	e59f327c 	ldr	r3, [pc, #636]	; 30054648 <print_int_deci_data+0x5d4>
300543c8:	e51b1030 	ldr	r1, [fp, #-48]
300543cc:	e0c32391 	smull	r2, r3, r1, r3
300543d0:	e1a026c3 	asr	r2, r3, #13
300543d4:	e51b1030 	ldr	r1, [fp, #-48]
300543d8:	e1a03fc1 	asr	r3, r1, #31
300543dc:	e0633002 	rsb	r3, r3, r2
300543e0:	e20330ff 	and	r3, r3, #255	; 0xff
300543e4:	e54b3017 	strb	r3, [fp, #-23]
300543e8:	e51b1020 	ldr	r1, [fp, #-32]
300543ec:	e59f325c 	ldr	r3, [pc, #604]	; 30054650 <print_int_deci_data+0x5dc>
300543f0:	e0c32391 	smull	r2, r3, r1, r3
300543f4:	e1a02b43 	asr	r2, r3, #22
300543f8:	e1a03fc1 	asr	r3, r1, #31
300543fc:	e0633002 	rsb	r3, r3, r2
30054400:	e50b302c 	str	r3, [fp, #-44]
30054404:	e51b302c 	ldr	r3, [fp, #-44]
30054408:	e1a03183 	lsl	r3, r3, #3
3005440c:	e1a02283 	lsl	r2, r3, #5
30054410:	e0632002 	rsb	r2, r3, r2
30054414:	e1a03302 	lsl	r3, r2, #6
30054418:	e0623003 	rsb	r3, r2, r3
3005441c:	e51b202c 	ldr	r2, [fp, #-44]
30054420:	e0833002 	add	r3, r3, r2
30054424:	e1a02103 	lsl	r2, r3, #2
30054428:	e0833002 	add	r3, r3, r2
3005442c:	e1a03383 	lsl	r3, r3, #7
30054430:	e0633001 	rsb	r3, r3, r1
30054434:	e50b302c 	str	r3, [fp, #-44]
30054438:	e59f320c 	ldr	r3, [pc, #524]	; 3005464c <print_int_deci_data+0x5d8>
3005443c:	e51b102c 	ldr	r1, [fp, #-44]
30054440:	e0c32391 	smull	r2, r3, r1, r3
30054444:	e1a02943 	asr	r2, r3, #18
30054448:	e51b102c 	ldr	r1, [fp, #-44]
3005444c:	e1a03fc1 	asr	r3, r1, #31
30054450:	e0633002 	rsb	r3, r3, r2
30054454:	e20330ff 	and	r3, r3, #255	; 0xff
30054458:	e54b3018 	strb	r3, [fp, #-24]
3005445c:	e51b1020 	ldr	r1, [fp, #-32]
30054460:	e59f31ec 	ldr	r3, [pc, #492]	; 30054654 <print_int_deci_data+0x5e0>
30054464:	e0c32391 	smull	r2, r3, r1, r3
30054468:	e1a02cc3 	asr	r2, r3, #25
3005446c:	e1a03fc1 	asr	r3, r1, #31
30054470:	e0633002 	rsb	r3, r3, r2
30054474:	e50b3028 	str	r3, [fp, #-40]
30054478:	e51b3028 	ldr	r3, [fp, #-40]
3005447c:	e1a03183 	lsl	r3, r3, #3
30054480:	e1a02283 	lsl	r2, r3, #5
30054484:	e0632002 	rsb	r2, r3, r2
30054488:	e1a03302 	lsl	r3, r2, #6
3005448c:	e0623003 	rsb	r3, r2, r3
30054490:	e51b2028 	ldr	r2, [fp, #-40]
30054494:	e0833002 	add	r3, r3, r2
30054498:	e1a02103 	lsl	r2, r3, #2
3005449c:	e0833002 	add	r3, r3, r2
300544a0:	e1a02103 	lsl	r2, r3, #2
300544a4:	e0833002 	add	r3, r3, r2
300544a8:	e1a03403 	lsl	r3, r3, #8
300544ac:	e0633001 	rsb	r3, r3, r1
300544b0:	e50b3028 	str	r3, [fp, #-40]
300544b4:	e59f3194 	ldr	r3, [pc, #404]	; 30054650 <print_int_deci_data+0x5dc>
300544b8:	e51b1028 	ldr	r1, [fp, #-40]
300544bc:	e0c32391 	smull	r2, r3, r1, r3
300544c0:	e1a02b43 	asr	r2, r3, #22
300544c4:	e51b1028 	ldr	r1, [fp, #-40]
300544c8:	e1a03fc1 	asr	r3, r1, #31
300544cc:	e0633002 	rsb	r3, r3, r2
300544d0:	e20330ff 	and	r3, r3, #255	; 0xff
300544d4:	e54b3019 	strb	r3, [fp, #-25]
300544d8:	e51b1020 	ldr	r1, [fp, #-32]
300544dc:	e59f3174 	ldr	r3, [pc, #372]	; 30054658 <print_int_deci_data+0x5e4>
300544e0:	e0c32391 	smull	r2, r3, r1, r3
300544e4:	e1a02e43 	asr	r2, r3, #28
300544e8:	e1a03fc1 	asr	r3, r1, #31
300544ec:	e0633002 	rsb	r3, r3, r2
300544f0:	e50b3024 	str	r3, [fp, #-36]
300544f4:	e51b3024 	ldr	r3, [fp, #-36]
300544f8:	e1a03183 	lsl	r3, r3, #3
300544fc:	e1a02283 	lsl	r2, r3, #5
30054500:	e0632002 	rsb	r2, r3, r2
30054504:	e1a03302 	lsl	r3, r2, #6
30054508:	e0623003 	rsb	r3, r2, r3
3005450c:	e51b2024 	ldr	r2, [fp, #-36]
30054510:	e0833002 	add	r3, r3, r2
30054514:	e1a02103 	lsl	r2, r3, #2
30054518:	e0833002 	add	r3, r3, r2
3005451c:	e1a02103 	lsl	r2, r3, #2
30054520:	e0833002 	add	r3, r3, r2
30054524:	e1a02103 	lsl	r2, r3, #2
30054528:	e0833002 	add	r3, r3, r2
3005452c:	e1a03483 	lsl	r3, r3, #9
30054530:	e0633001 	rsb	r3, r3, r1
30054534:	e50b3024 	str	r3, [fp, #-36]
30054538:	e59f3114 	ldr	r3, [pc, #276]	; 30054654 <print_int_deci_data+0x5e0>
3005453c:	e51b1024 	ldr	r1, [fp, #-36]
30054540:	e0c32391 	smull	r2, r3, r1, r3
30054544:	e1a02cc3 	asr	r2, r3, #25
30054548:	e51b1024 	ldr	r1, [fp, #-36]
3005454c:	e1a03fc1 	asr	r3, r1, #31
30054550:	e0633002 	rsb	r3, r3, r2
30054554:	e20330ff 	and	r3, r3, #255	; 0xff
30054558:	e54b301a 	strb	r3, [fp, #-26]
3005455c:	e51b1020 	ldr	r1, [fp, #-32]
30054560:	e59f30f0 	ldr	r3, [pc, #240]	; 30054658 <print_int_deci_data+0x5e4>
30054564:	e0c32391 	smull	r2, r3, r1, r3
30054568:	e1a02e43 	asr	r2, r3, #28
3005456c:	e1a03fc1 	asr	r3, r1, #31
30054570:	e0633002 	rsb	r3, r3, r2
30054574:	e20330ff 	and	r3, r3, #255	; 0xff
30054578:	e54b301b 	strb	r3, [fp, #-27]
3005457c:	e3a03000 	mov	r3, #0	; 0x0
30054580:	e50b300c 	str	r3, [fp, #-12]
30054584:	ea00000d 	b	300545c0 <print_int_deci_data+0x54c>
30054588:	e51b300c 	ldr	r3, [fp, #-12]
3005458c:	e3e02016 	mvn	r2, #22	; 0x16
30054590:	e24b1004 	sub	r1, fp, #4	; 0x4
30054594:	e0813003 	add	r3, r1, r3
30054598:	e0833002 	add	r3, r3, r2
3005459c:	e5d33000 	ldrb	r3, [r3]
300545a0:	e3530000 	cmp	r3, #0	; 0x0
300545a4:	0a000002 	beq	300545b4 <print_int_deci_data+0x540>
300545a8:	e51b300c 	ldr	r3, [fp, #-12]
300545ac:	e50b3008 	str	r3, [fp, #-8]
300545b0:	ea000005 	b	300545cc <print_int_deci_data+0x558>
300545b4:	e51b300c 	ldr	r3, [fp, #-12]
300545b8:	e2833001 	add	r3, r3, #1	; 0x1
300545bc:	e50b300c 	str	r3, [fp, #-12]
300545c0:	e51b300c 	ldr	r3, [fp, #-12]
300545c4:	e3530009 	cmp	r3, #9	; 0x9
300545c8:	daffffee 	ble	30054588 <print_int_deci_data+0x514>
300545cc:	e51b3008 	ldr	r3, [fp, #-8]
300545d0:	e50b300c 	str	r3, [fp, #-12]
300545d4:	ea00000c 	b	3005460c <print_int_deci_data+0x598>
300545d8:	e51b300c 	ldr	r3, [fp, #-12]
300545dc:	e3e02016 	mvn	r2, #22	; 0x16
300545e0:	e24b1004 	sub	r1, fp, #4	; 0x4
300545e4:	e0813003 	add	r3, r1, r3
300545e8:	e0833002 	add	r3, r3, r2
300545ec:	e5d33000 	ldrb	r3, [r3]
300545f0:	e2833030 	add	r3, r3, #48	; 0x30
300545f4:	e20330ff 	and	r3, r3, #255	; 0xff
300545f8:	e1a00003 	mov	r0, r3
300545fc:	ebfffdfa 	bl	30053dec <Uart0Send>
30054600:	e51b300c 	ldr	r3, [fp, #-12]
30054604:	e2833001 	add	r3, r3, #1	; 0x1
30054608:	e50b300c 	str	r3, [fp, #-12]
3005460c:	e51b300c 	ldr	r3, [fp, #-12]
30054610:	e3530009 	cmp	r3, #9	; 0x9
30054614:	daffffef 	ble	300545d8 <print_int_deci_data+0x564>
30054618:	e51b3008 	ldr	r3, [fp, #-8]
3005461c:	e353000a 	cmp	r3, #10	; 0xa
30054620:	1a000001 	bne	3005462c <print_int_deci_data+0x5b8>
30054624:	e3a00030 	mov	r0, #48	; 0x30
30054628:	ebfffdef 	bl	30053dec <Uart0Send>
3005462c:	e24bd004 	sub	sp, fp, #4	; 0x4
30054630:	e8bd4800 	pop	{fp, lr}
30054634:	e12fff1e 	bx	lr
30054638:	66666667 	.word	0x66666667
3005463c:	51eb851f 	.word	0x51eb851f
30054640:	10624dd3 	.word	0x10624dd3
30054644:	68db8bad 	.word	0x68db8bad
30054648:	14f8b589 	.word	0x14f8b589
3005464c:	431bde83 	.word	0x431bde83
30054650:	6b5fca6b 	.word	0x6b5fca6b
30054654:	55e63b89 	.word	0x55e63b89
30054658:	44b82fa1 	.word	0x44b82fa1

3005465c <print_unsinged_data>:
3005465c:	e92d4830 	push	{r4, r5, fp, lr}
30054660:	e28db00c 	add	fp, sp, #12	; 0xc
30054664:	e24dd030 	sub	sp, sp, #48	; 0x30
30054668:	e50b0030 	str	r0, [fp, #-48]
3005466c:	e50b1034 	str	r1, [fp, #-52]
30054670:	e24b001e 	sub	r0, fp, #30	; 0x1e
30054674:	e50b0038 	str	r0, [fp, #-56]
30054678:	e3a03000 	mov	r3, #0	; 0x0
3005467c:	e51b2038 	ldr	r2, [fp, #-56]
30054680:	e1c230b0 	strh	r3, [r2]
30054684:	e51b3038 	ldr	r3, [fp, #-56]
30054688:	e2833002 	add	r3, r3, #2	; 0x2
3005468c:	e50b3038 	str	r3, [fp, #-56]
30054690:	e3a03000 	mov	r3, #0	; 0x0
30054694:	e51b0038 	ldr	r0, [fp, #-56]
30054698:	e1c030b0 	strh	r3, [r0]
3005469c:	e51b2038 	ldr	r2, [fp, #-56]
300546a0:	e2822002 	add	r2, r2, #2	; 0x2
300546a4:	e50b2038 	str	r2, [fp, #-56]
300546a8:	e3a03000 	mov	r3, #0	; 0x0
300546ac:	e51b0038 	ldr	r0, [fp, #-56]
300546b0:	e1c030b0 	strh	r3, [r0]
300546b4:	e51b2038 	ldr	r2, [fp, #-56]
300546b8:	e2822002 	add	r2, r2, #2	; 0x2
300546bc:	e50b2038 	str	r2, [fp, #-56]
300546c0:	e3a03000 	mov	r3, #0	; 0x0
300546c4:	e51b0038 	ldr	r0, [fp, #-56]
300546c8:	e1c030b0 	strh	r3, [r0]
300546cc:	e51b2038 	ldr	r2, [fp, #-56]
300546d0:	e2822002 	add	r2, r2, #2	; 0x2
300546d4:	e50b2038 	str	r2, [fp, #-56]
300546d8:	e3a03000 	mov	r3, #0	; 0x0
300546dc:	e51b0038 	ldr	r0, [fp, #-56]
300546e0:	e1c030b0 	strh	r3, [r0]
300546e4:	e51b2038 	ldr	r2, [fp, #-56]
300546e8:	e2822002 	add	r2, r2, #2	; 0x2
300546ec:	e3a03000 	mov	r3, #0	; 0x0
300546f0:	e50b3014 	str	r3, [fp, #-20]
300546f4:	e3a03000 	mov	r3, #0	; 0x0
300546f8:	e50b3010 	str	r3, [fp, #-16]
300546fc:	e24b302c 	sub	r3, fp, #44	; 0x2c
30054700:	e50b303c 	str	r3, [fp, #-60]
30054704:	e3a03000 	mov	r3, #0	; 0x0
30054708:	e51b003c 	ldr	r0, [fp, #-60]
3005470c:	e5803000 	str	r3, [r0]
30054710:	e51b203c 	ldr	r2, [fp, #-60]
30054714:	e2822004 	add	r2, r2, #4	; 0x4
30054718:	e50b203c 	str	r2, [fp, #-60]
3005471c:	e3a03000 	mov	r3, #0	; 0x0
30054720:	e51b003c 	ldr	r0, [fp, #-60]
30054724:	e5803000 	str	r3, [r0]
30054728:	e51b203c 	ldr	r2, [fp, #-60]
3005472c:	e2822004 	add	r2, r2, #4	; 0x4
30054730:	e50b203c 	str	r2, [fp, #-60]
30054734:	e3a03000 	mov	r3, #0	; 0x0
30054738:	e51b003c 	ldr	r0, [fp, #-60]
3005473c:	e5803000 	str	r3, [r0]
30054740:	e51b203c 	ldr	r2, [fp, #-60]
30054744:	e2822004 	add	r2, r2, #4	; 0x4
30054748:	e51b3034 	ldr	r3, [fp, #-52]
3005474c:	e3530000 	cmp	r3, #0	; 0x0
30054750:	1a000008 	bne	30054778 <print_unsinged_data+0x11c>
30054754:	e3a03000 	mov	r3, #0	; 0x0
30054758:	e50b302c 	str	r3, [fp, #-44]
3005475c:	e3a0300a 	mov	r3, #10	; 0xa
30054760:	e50b3028 	str	r3, [fp, #-40]
30054764:	e59f3178 	ldr	r3, [pc, #376]	; 300548e4 <print_unsinged_data+0x288>
30054768:	e50b3024 	str	r3, [fp, #-36]
3005476c:	e3a03009 	mov	r3, #9	; 0x9
30054770:	e50b3010 	str	r3, [fp, #-16]
30054774:	ea000007 	b	30054798 <print_unsinged_data+0x13c>
30054778:	e3a03001 	mov	r3, #1	; 0x1
3005477c:	e50b302c 	str	r3, [fp, #-44]
30054780:	e3a03010 	mov	r3, #16	; 0x10
30054784:	e50b3028 	str	r3, [fp, #-40]
30054788:	e59f3158 	ldr	r3, [pc, #344]	; 300548e8 <print_unsinged_data+0x28c>
3005478c:	e50b3024 	str	r3, [fp, #-36]
30054790:	e3a03007 	mov	r3, #7	; 0x7
30054794:	e50b3010 	str	r3, [fp, #-16]
30054798:	e51b4010 	ldr	r4, [fp, #-16]
3005479c:	e51b3028 	ldr	r3, [fp, #-40]
300547a0:	e1a00003 	mov	r0, r3
300547a4:	e51b1010 	ldr	r1, [fp, #-16]
300547a8:	ebfff1e6 	bl	30050f48 <caculate_power>
300547ac:	e1a03000 	mov	r3, r0
300547b0:	e1a02003 	mov	r2, r3
300547b4:	e51b3030 	ldr	r3, [fp, #-48]
300547b8:	e1a00003 	mov	r0, r3
300547bc:	e1a01002 	mov	r1, r2
300547c0:	eb001c21 	bl	3005b84c <__aeabi_uidiv>
300547c4:	e1a03000 	mov	r3, r0
300547c8:	e20310ff 	and	r1, r3, #255	; 0xff
300547cc:	e3e02011 	mvn	r2, #17	; 0x11
300547d0:	e24b000c 	sub	r0, fp, #12	; 0xc
300547d4:	e0803004 	add	r3, r0, r4
300547d8:	e0832002 	add	r2, r3, r2
300547dc:	e1a03001 	mov	r3, r1
300547e0:	e5c23000 	strb	r3, [r2]
300547e4:	e51b3010 	ldr	r3, [fp, #-16]
300547e8:	e2433001 	sub	r3, r3, #1	; 0x1
300547ec:	e50b3014 	str	r3, [fp, #-20]
300547f0:	ea000021 	b	3005487c <print_unsinged_data+0x220>
300547f4:	e51b5014 	ldr	r5, [fp, #-20]
300547f8:	e51b2028 	ldr	r2, [fp, #-40]
300547fc:	e51b3014 	ldr	r3, [fp, #-20]
30054800:	e2833001 	add	r3, r3, #1	; 0x1
30054804:	e1a00002 	mov	r0, r2
30054808:	e1a01003 	mov	r1, r3
3005480c:	ebfff1cd 	bl	30050f48 <caculate_power>
30054810:	e1a03000 	mov	r3, r0
30054814:	e1a02003 	mov	r2, r3
30054818:	e51b3030 	ldr	r3, [fp, #-48]
3005481c:	e1a00003 	mov	r0, r3
30054820:	e1a01002 	mov	r1, r2
30054824:	eb001c45 	bl	3005b940 <__aeabi_uidivmod>
30054828:	e1a03001 	mov	r3, r1
3005482c:	e1a04003 	mov	r4, r3
30054830:	e51b3028 	ldr	r3, [fp, #-40]
30054834:	e1a00003 	mov	r0, r3
30054838:	e51b1014 	ldr	r1, [fp, #-20]
3005483c:	ebfff1c1 	bl	30050f48 <caculate_power>
30054840:	e1a03000 	mov	r3, r0
30054844:	e1a00004 	mov	r0, r4
30054848:	e1a01003 	mov	r1, r3
3005484c:	eb001bfe 	bl	3005b84c <__aeabi_uidiv>
30054850:	e1a03000 	mov	r3, r0
30054854:	e20310ff 	and	r1, r3, #255	; 0xff
30054858:	e3e02011 	mvn	r2, #17	; 0x11
3005485c:	e24b000c 	sub	r0, fp, #12	; 0xc
30054860:	e0803005 	add	r3, r0, r5
30054864:	e0832002 	add	r2, r3, r2
30054868:	e1a03001 	mov	r3, r1
3005486c:	e5c23000 	strb	r3, [r2]
30054870:	e51b3014 	ldr	r3, [fp, #-20]
30054874:	e2433001 	sub	r3, r3, #1	; 0x1
30054878:	e50b3014 	str	r3, [fp, #-20]
3005487c:	e51b3014 	ldr	r3, [fp, #-20]
30054880:	e3530000 	cmp	r3, #0	; 0x0
30054884:	aaffffda 	bge	300547f4 <print_unsinged_data+0x198>
30054888:	e51b3010 	ldr	r3, [fp, #-16]
3005488c:	e50b3014 	str	r3, [fp, #-20]
30054890:	ea00000d 	b	300548cc <print_unsinged_data+0x270>
30054894:	e51b1024 	ldr	r1, [fp, #-36]
30054898:	e51b3014 	ldr	r3, [fp, #-20]
3005489c:	e3e02011 	mvn	r2, #17	; 0x11
300548a0:	e24b000c 	sub	r0, fp, #12	; 0xc
300548a4:	e0803003 	add	r3, r0, r3
300548a8:	e0833002 	add	r3, r3, r2
300548ac:	e5d33000 	ldrb	r3, [r3]
300548b0:	e0813003 	add	r3, r1, r3
300548b4:	e5d33000 	ldrb	r3, [r3]
300548b8:	e1a00003 	mov	r0, r3
300548bc:	ebfffd4a 	bl	30053dec <Uart0Send>
300548c0:	e51b3014 	ldr	r3, [fp, #-20]
300548c4:	e2433001 	sub	r3, r3, #1	; 0x1
300548c8:	e50b3014 	str	r3, [fp, #-20]
300548cc:	e51b3014 	ldr	r3, [fp, #-20]
300548d0:	e3530000 	cmp	r3, #0	; 0x0
300548d4:	aaffffee 	bge	30054894 <print_unsinged_data+0x238>
300548d8:	e24bd00c 	sub	sp, fp, #12	; 0xc
300548dc:	e8bd4830 	pop	{r4, r5, fp, lr}
300548e0:	e12fff1e 	bx	lr
300548e4:	3005ea5c 	.word	0x3005ea5c
300548e8:	3005ea66 	.word	0x3005ea66

300548ec <print_int_data>:
300548ec:	e92d4830 	push	{r4, r5, fp, lr}
300548f0:	e28db00c 	add	fp, sp, #12	; 0xc
300548f4:	e24dd040 	sub	sp, sp, #64	; 0x40
300548f8:	e50b0040 	str	r0, [fp, #-64]
300548fc:	e50b1044 	str	r1, [fp, #-68]
30054900:	e24b002a 	sub	r0, fp, #42	; 0x2a
30054904:	e50b0048 	str	r0, [fp, #-72]
30054908:	e3a03000 	mov	r3, #0	; 0x0
3005490c:	e51b1048 	ldr	r1, [fp, #-72]
30054910:	e1c130b0 	strh	r3, [r1]
30054914:	e51b2048 	ldr	r2, [fp, #-72]
30054918:	e2822002 	add	r2, r2, #2	; 0x2
3005491c:	e50b2048 	str	r2, [fp, #-72]
30054920:	e3a03000 	mov	r3, #0	; 0x0
30054924:	e51b0048 	ldr	r0, [fp, #-72]
30054928:	e1c030b0 	strh	r3, [r0]
3005492c:	e51b1048 	ldr	r1, [fp, #-72]
30054930:	e2811002 	add	r1, r1, #2	; 0x2
30054934:	e50b1048 	str	r1, [fp, #-72]
30054938:	e3a03000 	mov	r3, #0	; 0x0
3005493c:	e51b2048 	ldr	r2, [fp, #-72]
30054940:	e1c230b0 	strh	r3, [r2]
30054944:	e51b3048 	ldr	r3, [fp, #-72]
30054948:	e2833002 	add	r3, r3, #2	; 0x2
3005494c:	e50b3048 	str	r3, [fp, #-72]
30054950:	e3a03000 	mov	r3, #0	; 0x0
30054954:	e51b0048 	ldr	r0, [fp, #-72]
30054958:	e1c030b0 	strh	r3, [r0]
3005495c:	e51b1048 	ldr	r1, [fp, #-72]
30054960:	e2811002 	add	r1, r1, #2	; 0x2
30054964:	e50b1048 	str	r1, [fp, #-72]
30054968:	e3a03000 	mov	r3, #0	; 0x0
3005496c:	e51b2048 	ldr	r2, [fp, #-72]
30054970:	e1c230b0 	strh	r3, [r2]
30054974:	e51b3048 	ldr	r3, [fp, #-72]
30054978:	e2833002 	add	r3, r3, #2	; 0x2
3005497c:	e3a03000 	mov	r3, #0	; 0x0
30054980:	e50b3020 	str	r3, [fp, #-32]
30054984:	e3a03000 	mov	r3, #0	; 0x0
30054988:	e50b301c 	str	r3, [fp, #-28]
3005498c:	e3a03000 	mov	r3, #0	; 0x0
30054990:	e50b3018 	str	r3, [fp, #-24]
30054994:	e3a03000 	mov	r3, #0	; 0x0
30054998:	e50b3014 	str	r3, [fp, #-20]
3005499c:	e3a03000 	mov	r3, #0	; 0x0
300549a0:	e50b3010 	str	r3, [fp, #-16]
300549a4:	e24b0038 	sub	r0, fp, #56	; 0x38
300549a8:	e50b004c 	str	r0, [fp, #-76]
300549ac:	e3a03000 	mov	r3, #0	; 0x0
300549b0:	e51b104c 	ldr	r1, [fp, #-76]
300549b4:	e5813000 	str	r3, [r1]
300549b8:	e51b204c 	ldr	r2, [fp, #-76]
300549bc:	e2822004 	add	r2, r2, #4	; 0x4
300549c0:	e50b204c 	str	r2, [fp, #-76]
300549c4:	e3a03000 	mov	r3, #0	; 0x0
300549c8:	e51b004c 	ldr	r0, [fp, #-76]
300549cc:	e5803000 	str	r3, [r0]
300549d0:	e51b104c 	ldr	r1, [fp, #-76]
300549d4:	e2811004 	add	r1, r1, #4	; 0x4
300549d8:	e50b104c 	str	r1, [fp, #-76]
300549dc:	e3a03000 	mov	r3, #0	; 0x0
300549e0:	e51b204c 	ldr	r2, [fp, #-76]
300549e4:	e5823000 	str	r3, [r2]
300549e8:	e51b304c 	ldr	r3, [fp, #-76]
300549ec:	e2833004 	add	r3, r3, #4	; 0x4
300549f0:	e51b3040 	ldr	r3, [fp, #-64]
300549f4:	e3530000 	cmp	r3, #0	; 0x0
300549f8:	aa000005 	bge	30054a14 <print_int_data+0x128>
300549fc:	e51b3040 	ldr	r3, [fp, #-64]
30054a00:	e2633000 	rsb	r3, r3, #0	; 0x0
30054a04:	e50b3018 	str	r3, [fp, #-24]
30054a08:	e3a03001 	mov	r3, #1	; 0x1
30054a0c:	e50b3014 	str	r3, [fp, #-20]
30054a10:	ea000003 	b	30054a24 <print_int_data+0x138>
30054a14:	e51b3040 	ldr	r3, [fp, #-64]
30054a18:	e50b3018 	str	r3, [fp, #-24]
30054a1c:	e3a03000 	mov	r3, #0	; 0x0
30054a20:	e50b3014 	str	r3, [fp, #-20]
30054a24:	e51b3044 	ldr	r3, [fp, #-68]
30054a28:	e3530000 	cmp	r3, #0	; 0x0
30054a2c:	1a000008 	bne	30054a54 <print_int_data+0x168>
30054a30:	e3a03000 	mov	r3, #0	; 0x0
30054a34:	e50b3038 	str	r3, [fp, #-56]
30054a38:	e3a0300a 	mov	r3, #10	; 0xa
30054a3c:	e50b3034 	str	r3, [fp, #-52]
30054a40:	e59f31d4 	ldr	r3, [pc, #468]	; 30054c1c <print_int_data+0x330>
30054a44:	e50b3030 	str	r3, [fp, #-48]
30054a48:	e3a03009 	mov	r3, #9	; 0x9
30054a4c:	e50b301c 	str	r3, [fp, #-28]
30054a50:	ea000007 	b	30054a74 <print_int_data+0x188>
30054a54:	e3a03001 	mov	r3, #1	; 0x1
30054a58:	e50b3038 	str	r3, [fp, #-56]
30054a5c:	e3a03010 	mov	r3, #16	; 0x10
30054a60:	e50b3034 	str	r3, [fp, #-52]
30054a64:	e59f31b4 	ldr	r3, [pc, #436]	; 30054c20 <print_int_data+0x334>
30054a68:	e50b3030 	str	r3, [fp, #-48]
30054a6c:	e3a03007 	mov	r3, #7	; 0x7
30054a70:	e50b301c 	str	r3, [fp, #-28]
30054a74:	e51b401c 	ldr	r4, [fp, #-28]
30054a78:	e51b3034 	ldr	r3, [fp, #-52]
30054a7c:	e1a00003 	mov	r0, r3
30054a80:	e51b101c 	ldr	r1, [fp, #-28]
30054a84:	ebfff12f 	bl	30050f48 <caculate_power>
30054a88:	e1a02000 	mov	r2, r0
30054a8c:	e51b3018 	ldr	r3, [fp, #-24]
30054a90:	e1a00003 	mov	r0, r3
30054a94:	e1a01002 	mov	r1, r2
30054a98:	eb001bb0 	bl	3005b960 <__aeabi_idiv>
30054a9c:	e1a03000 	mov	r3, r0
30054aa0:	e20310ff 	and	r1, r3, #255	; 0xff
30054aa4:	e3e0201d 	mvn	r2, #29	; 0x1d
30054aa8:	e24b000c 	sub	r0, fp, #12	; 0xc
30054aac:	e0803004 	add	r3, r0, r4
30054ab0:	e0832002 	add	r2, r3, r2
30054ab4:	e1a03001 	mov	r3, r1
30054ab8:	e5c23000 	strb	r3, [r2]
30054abc:	e51b301c 	ldr	r3, [fp, #-28]
30054ac0:	e2433001 	sub	r3, r3, #1	; 0x1
30054ac4:	e50b3020 	str	r3, [fp, #-32]
30054ac8:	ea000020 	b	30054b50 <print_int_data+0x264>
30054acc:	e51b5020 	ldr	r5, [fp, #-32]
30054ad0:	e51b2034 	ldr	r2, [fp, #-52]
30054ad4:	e51b3020 	ldr	r3, [fp, #-32]
30054ad8:	e2833001 	add	r3, r3, #1	; 0x1
30054adc:	e1a00002 	mov	r0, r2
30054ae0:	e1a01003 	mov	r1, r3
30054ae4:	ebfff117 	bl	30050f48 <caculate_power>
30054ae8:	e1a02000 	mov	r2, r0
30054aec:	e51b3018 	ldr	r3, [fp, #-24]
30054af0:	e1a00003 	mov	r0, r3
30054af4:	e1a01002 	mov	r1, r2
30054af8:	eb001be2 	bl	3005ba88 <__aeabi_idivmod>
30054afc:	e1a03001 	mov	r3, r1
30054b00:	e1a04003 	mov	r4, r3
30054b04:	e51b3034 	ldr	r3, [fp, #-52]
30054b08:	e1a00003 	mov	r0, r3
30054b0c:	e51b1020 	ldr	r1, [fp, #-32]
30054b10:	ebfff10c 	bl	30050f48 <caculate_power>
30054b14:	e1a03000 	mov	r3, r0
30054b18:	e1a00004 	mov	r0, r4
30054b1c:	e1a01003 	mov	r1, r3
30054b20:	eb001b8e 	bl	3005b960 <__aeabi_idiv>
30054b24:	e1a03000 	mov	r3, r0
30054b28:	e20310ff 	and	r1, r3, #255	; 0xff
30054b2c:	e3e0201d 	mvn	r2, #29	; 0x1d
30054b30:	e24b000c 	sub	r0, fp, #12	; 0xc
30054b34:	e0803005 	add	r3, r0, r5
30054b38:	e0832002 	add	r2, r3, r2
30054b3c:	e1a03001 	mov	r3, r1
30054b40:	e5c23000 	strb	r3, [r2]
30054b44:	e51b3020 	ldr	r3, [fp, #-32]
30054b48:	e2433001 	sub	r3, r3, #1	; 0x1
30054b4c:	e50b3020 	str	r3, [fp, #-32]
30054b50:	e51b3020 	ldr	r3, [fp, #-32]
30054b54:	e3530000 	cmp	r3, #0	; 0x0
30054b58:	aaffffdb 	bge	30054acc <print_int_data+0x1e0>
30054b5c:	e51b301c 	ldr	r3, [fp, #-28]
30054b60:	e50b3020 	str	r3, [fp, #-32]
30054b64:	ea00000d 	b	30054ba0 <print_int_data+0x2b4>
30054b68:	e51b3020 	ldr	r3, [fp, #-32]
30054b6c:	e3e0201d 	mvn	r2, #29	; 0x1d
30054b70:	e24b100c 	sub	r1, fp, #12	; 0xc
30054b74:	e0813003 	add	r3, r1, r3
30054b78:	e0833002 	add	r3, r3, r2
30054b7c:	e5d33000 	ldrb	r3, [r3]
30054b80:	e3530000 	cmp	r3, #0	; 0x0
30054b84:	0a000002 	beq	30054b94 <print_int_data+0x2a8>
30054b88:	e51b3020 	ldr	r3, [fp, #-32]
30054b8c:	e50b3010 	str	r3, [fp, #-16]
30054b90:	ea000005 	b	30054bac <print_int_data+0x2c0>
30054b94:	e51b3020 	ldr	r3, [fp, #-32]
30054b98:	e2433001 	sub	r3, r3, #1	; 0x1
30054b9c:	e50b3020 	str	r3, [fp, #-32]
30054ba0:	e51b3020 	ldr	r3, [fp, #-32]
30054ba4:	e3530000 	cmp	r3, #0	; 0x0
30054ba8:	aaffffee 	bge	30054b68 <print_int_data+0x27c>
30054bac:	e51b3014 	ldr	r3, [fp, #-20]
30054bb0:	e3530001 	cmp	r3, #1	; 0x1
30054bb4:	1a000001 	bne	30054bc0 <print_int_data+0x2d4>
30054bb8:	e3a0002d 	mov	r0, #45	; 0x2d
30054bbc:	ebfffc8a 	bl	30053dec <Uart0Send>
30054bc0:	e51b3010 	ldr	r3, [fp, #-16]
30054bc4:	e50b3020 	str	r3, [fp, #-32]
30054bc8:	ea00000d 	b	30054c04 <print_int_data+0x318>
30054bcc:	e51b1030 	ldr	r1, [fp, #-48]
30054bd0:	e51b3020 	ldr	r3, [fp, #-32]
30054bd4:	e3e0201d 	mvn	r2, #29	; 0x1d
30054bd8:	e24b000c 	sub	r0, fp, #12	; 0xc
30054bdc:	e0803003 	add	r3, r0, r3
30054be0:	e0833002 	add	r3, r3, r2
30054be4:	e5d33000 	ldrb	r3, [r3]
30054be8:	e0813003 	add	r3, r1, r3
30054bec:	e5d33000 	ldrb	r3, [r3]
30054bf0:	e1a00003 	mov	r0, r3
30054bf4:	ebfffc7c 	bl	30053dec <Uart0Send>
30054bf8:	e51b3020 	ldr	r3, [fp, #-32]
30054bfc:	e2433001 	sub	r3, r3, #1	; 0x1
30054c00:	e50b3020 	str	r3, [fp, #-32]
30054c04:	e51b3020 	ldr	r3, [fp, #-32]
30054c08:	e3530000 	cmp	r3, #0	; 0x0
30054c0c:	aaffffee 	bge	30054bcc <print_int_data+0x2e0>
30054c10:	e24bd00c 	sub	sp, fp, #12	; 0xc
30054c14:	e8bd4830 	pop	{r4, r5, fp, lr}
30054c18:	e12fff1e 	bx	lr
30054c1c:	3005ea5c 	.word	0x3005ea5c
30054c20:	3005ea66 	.word	0x3005ea66

30054c24 <print_char_to_hex>:
30054c24:	e92d4800 	push	{fp, lr}
30054c28:	e28db004 	add	fp, sp, #4	; 0x4
30054c2c:	e24dd010 	sub	sp, sp, #16	; 0x10
30054c30:	e1a03000 	mov	r3, r0
30054c34:	e54b300d 	strb	r3, [fp, #-13]
30054c38:	e3a03000 	mov	r3, #0	; 0x0
30054c3c:	e50b3008 	str	r3, [fp, #-8]
30054c40:	e3a03000 	mov	r3, #0	; 0x0
30054c44:	e14b30ba 	strh	r3, [fp, #-10]
30054c48:	e55b300d 	ldrb	r3, [fp, #-13]
30054c4c:	e203300f 	and	r3, r3, #15	; 0xf
30054c50:	e54b300a 	strb	r3, [fp, #-10]
30054c54:	e55b300d 	ldrb	r3, [fp, #-13]
30054c58:	e1a03223 	lsr	r3, r3, #4
30054c5c:	e20330ff 	and	r3, r3, #255	; 0xff
30054c60:	e54b3009 	strb	r3, [fp, #-9]
30054c64:	e3a03001 	mov	r3, #1	; 0x1
30054c68:	e50b3008 	str	r3, [fp, #-8]
30054c6c:	ea00000d 	b	30054ca8 <print_char_to_hex+0x84>
30054c70:	e51b3008 	ldr	r3, [fp, #-8]
30054c74:	e3e02005 	mvn	r2, #5	; 0x5
30054c78:	e24b1004 	sub	r1, fp, #4	; 0x4
30054c7c:	e0813003 	add	r3, r1, r3
30054c80:	e0833002 	add	r3, r3, r2
30054c84:	e5d33000 	ldrb	r3, [r3]
30054c88:	e1a02003 	mov	r2, r3
30054c8c:	e59f302c 	ldr	r3, [pc, #44]	; 30054cc0 <print_char_to_hex+0x9c>
30054c90:	e7d33002 	ldrb	r3, [r3, r2]
30054c94:	e1a00003 	mov	r0, r3
30054c98:	ebfffc53 	bl	30053dec <Uart0Send>
30054c9c:	e51b3008 	ldr	r3, [fp, #-8]
30054ca0:	e2433001 	sub	r3, r3, #1	; 0x1
30054ca4:	e50b3008 	str	r3, [fp, #-8]
30054ca8:	e51b3008 	ldr	r3, [fp, #-8]
30054cac:	e3530000 	cmp	r3, #0	; 0x0
30054cb0:	aaffffee 	bge	30054c70 <print_char_to_hex+0x4c>
30054cb4:	e24bd004 	sub	sp, fp, #4	; 0x4
30054cb8:	e8bd4800 	pop	{fp, lr}
30054cbc:	e12fff1e 	bx	lr
30054cc0:	3005ea66 	.word	0x3005ea66

30054cc4 <printf_string>:
30054cc4:	e92d000f 	push	{r0, r1, r2, r3}
30054cc8:	e92d4800 	push	{fp, lr}
30054ccc:	e28db004 	add	fp, sp, #4	; 0x4
30054cd0:	e24dd020 	sub	sp, sp, #32	; 0x20
30054cd4:	e59b3004 	ldr	r3, [fp, #4]
30054cd8:	e50b3018 	str	r3, [fp, #-24]
30054cdc:	e28b3008 	add	r3, fp, #8	; 0x8
30054ce0:	e50b301c 	str	r3, [fp, #-28]
30054ce4:	e51b3018 	ldr	r3, [fp, #-24]
30054ce8:	e3530000 	cmp	r3, #0	; 0x0
30054cec:	0a00005b 	beq	30054e60 <printf_string+0x19c>
30054cf0:	ea000056 	b	30054e50 <printf_string+0x18c>
30054cf4:	e51b3018 	ldr	r3, [fp, #-24]
30054cf8:	e5d33000 	ldrb	r3, [r3]
30054cfc:	e3530025 	cmp	r3, #37	; 0x25
30054d00:	1a00004b 	bne	30054e34 <printf_string+0x170>
30054d04:	e51b3018 	ldr	r3, [fp, #-24]
30054d08:	e2833001 	add	r3, r3, #1	; 0x1
30054d0c:	e5d33000 	ldrb	r3, [r3]
30054d10:	e50b3020 	str	r3, [fp, #-32]
30054d14:	e51b3020 	ldr	r3, [fp, #-32]
30054d18:	e3530064 	cmp	r3, #100	; 0x64
30054d1c:	0a000010 	beq	30054d64 <printf_string+0xa0>
30054d20:	e51b3020 	ldr	r3, [fp, #-32]
30054d24:	e3530064 	cmp	r3, #100	; 0x64
30054d28:	ca000006 	bgt	30054d48 <printf_string+0x84>
30054d2c:	e51b3020 	ldr	r3, [fp, #-32]
30054d30:	e3530043 	cmp	r3, #67	; 0x43
30054d34:	0a00001e 	beq	30054db4 <printf_string+0xf0>
30054d38:	e51b3020 	ldr	r3, [fp, #-32]
30054d3c:	e3530063 	cmp	r3, #99	; 0x63
30054d40:	0a000011 	beq	30054d8c <printf_string+0xc8>
30054d44:	ea000036 	b	30054e24 <printf_string+0x160>
30054d48:	e51b3020 	ldr	r3, [fp, #-32]
30054d4c:	e3530073 	cmp	r3, #115	; 0x73
30054d50:	0a000021 	beq	30054ddc <printf_string+0x118>
30054d54:	e51b3020 	ldr	r3, [fp, #-32]
30054d58:	e3530078 	cmp	r3, #120	; 0x78
30054d5c:	0a000027 	beq	30054e00 <printf_string+0x13c>
30054d60:	ea00002f 	b	30054e24 <printf_string+0x160>
30054d64:	e51b201c 	ldr	r2, [fp, #-28]
30054d68:	e2823004 	add	r3, r2, #4	; 0x4
30054d6c:	e50b301c 	str	r3, [fp, #-28]
30054d70:	e1a03002 	mov	r3, r2
30054d74:	e5933000 	ldr	r3, [r3]
30054d78:	e50b3014 	str	r3, [fp, #-20]
30054d7c:	e51b0014 	ldr	r0, [fp, #-20]
30054d80:	e3a01000 	mov	r1, #0	; 0x0
30054d84:	ebfffed8 	bl	300548ec <print_int_data>
30054d88:	ea000025 	b	30054e24 <printf_string+0x160>
30054d8c:	e51b201c 	ldr	r2, [fp, #-28]
30054d90:	e2823004 	add	r3, r2, #4	; 0x4
30054d94:	e50b301c 	str	r3, [fp, #-28]
30054d98:	e1a03002 	mov	r3, r2
30054d9c:	e5933000 	ldr	r3, [r3]
30054da0:	e54b300e 	strb	r3, [fp, #-14]
30054da4:	e55b300e 	ldrb	r3, [fp, #-14]
30054da8:	e1a00003 	mov	r0, r3
30054dac:	ebfffc0e 	bl	30053dec <Uart0Send>
30054db0:	ea00001b 	b	30054e24 <printf_string+0x160>
30054db4:	e51b201c 	ldr	r2, [fp, #-28]
30054db8:	e2823004 	add	r3, r2, #4	; 0x4
30054dbc:	e50b301c 	str	r3, [fp, #-28]
30054dc0:	e1a03002 	mov	r3, r2
30054dc4:	e5933000 	ldr	r3, [r3]
30054dc8:	e54b300d 	strb	r3, [fp, #-13]
30054dcc:	e55b300d 	ldrb	r3, [fp, #-13]
30054dd0:	e1a00003 	mov	r0, r3
30054dd4:	ebffff92 	bl	30054c24 <print_char_to_hex>
30054dd8:	ea000011 	b	30054e24 <printf_string+0x160>
30054ddc:	e51b201c 	ldr	r2, [fp, #-28]
30054de0:	e2823004 	add	r3, r2, #4	; 0x4
30054de4:	e50b301c 	str	r3, [fp, #-28]
30054de8:	e1a03002 	mov	r3, r2
30054dec:	e5933000 	ldr	r3, [r3]
30054df0:	e50b300c 	str	r3, [fp, #-12]
30054df4:	e51b000c 	ldr	r0, [fp, #-12]
30054df8:	ebfffc5f 	bl	30053f7c <print_string>
30054dfc:	ea000008 	b	30054e24 <printf_string+0x160>
30054e00:	e51b201c 	ldr	r2, [fp, #-28]
30054e04:	e2823004 	add	r3, r2, #4	; 0x4
30054e08:	e50b301c 	str	r3, [fp, #-28]
30054e0c:	e1a03002 	mov	r3, r2
30054e10:	e5933000 	ldr	r3, [r3]
30054e14:	e50b3008 	str	r3, [fp, #-8]
30054e18:	e51b0008 	ldr	r0, [fp, #-8]
30054e1c:	e3a01001 	mov	r1, #1	; 0x1
30054e20:	ebfffe0d 	bl	3005465c <print_unsinged_data>
30054e24:	e51b3018 	ldr	r3, [fp, #-24]
30054e28:	e2833001 	add	r3, r3, #1	; 0x1
30054e2c:	e50b3018 	str	r3, [fp, #-24]
30054e30:	ea000003 	b	30054e44 <printf_string+0x180>
30054e34:	e51b3018 	ldr	r3, [fp, #-24]
30054e38:	e5d33000 	ldrb	r3, [r3]
30054e3c:	e1a00003 	mov	r0, r3
30054e40:	ebfffbe9 	bl	30053dec <Uart0Send>
30054e44:	e51b3018 	ldr	r3, [fp, #-24]
30054e48:	e2833001 	add	r3, r3, #1	; 0x1
30054e4c:	e50b3018 	str	r3, [fp, #-24]
30054e50:	e51b3018 	ldr	r3, [fp, #-24]
30054e54:	e5d33000 	ldrb	r3, [r3]
30054e58:	e3530000 	cmp	r3, #0	; 0x0
30054e5c:	1affffa4 	bne	30054cf4 <printf_string+0x30>
30054e60:	e24bd004 	sub	sp, fp, #4	; 0x4
30054e64:	e8bd4800 	pop	{fp, lr}
30054e68:	e28dd010 	add	sp, sp, #16	; 0x10
30054e6c:	e12fff1e 	bx	lr

30054e70 <SelectChip>:
30054e70:	e52db004 	push	{fp}		; (str fp, [sp, #-4]!)
30054e74:	e28db000 	add	fp, sp, #0	; 0x0
30054e78:	e3a0244e 	mov	r2, #1308622848	; 0x4e000000
30054e7c:	e2822004 	add	r2, r2, #4	; 0x4
30054e80:	e3a0344e 	mov	r3, #1308622848	; 0x4e000000
30054e84:	e2833004 	add	r3, r3, #4	; 0x4
30054e88:	e5933000 	ldr	r3, [r3]
30054e8c:	e3c33002 	bic	r3, r3, #2	; 0x2
30054e90:	e5823000 	str	r3, [r2]
30054e94:	e28bd000 	add	sp, fp, #0	; 0x0
30054e98:	e8bd0800 	pop	{fp}
30054e9c:	e12fff1e 	bx	lr

30054ea0 <DeselectChip>:
30054ea0:	e92d4800 	push	{fp, lr}
30054ea4:	e28db004 	add	fp, sp, #4	; 0x4
30054ea8:	e3a0000a 	mov	r0, #10	; 0xa
30054eac:	ebfff014 	bl	30050f04 <delay>
30054eb0:	e3a0244e 	mov	r2, #1308622848	; 0x4e000000
30054eb4:	e2822004 	add	r2, r2, #4	; 0x4
30054eb8:	e3a0344e 	mov	r3, #1308622848	; 0x4e000000
30054ebc:	e2833004 	add	r3, r3, #4	; 0x4
30054ec0:	e5933000 	ldr	r3, [r3]
30054ec4:	e3833002 	orr	r3, r3, #2	; 0x2
30054ec8:	e5823000 	str	r3, [r2]
30054ecc:	e24bd004 	sub	sp, fp, #4	; 0x4
30054ed0:	e8bd4800 	pop	{fp, lr}
30054ed4:	e12fff1e 	bx	lr

30054ed8 <ClearRB>:
30054ed8:	e92d4800 	push	{fp, lr}
30054edc:	e28db004 	add	fp, sp, #4	; 0x4
30054ee0:	e3a0000a 	mov	r0, #10	; 0xa
30054ee4:	ebfff006 	bl	30050f04 <delay>
30054ee8:	e3a0244e 	mov	r2, #1308622848	; 0x4e000000
30054eec:	e2822020 	add	r2, r2, #32	; 0x20
30054ef0:	e3a0344e 	mov	r3, #1308622848	; 0x4e000000
30054ef4:	e2833020 	add	r3, r3, #32	; 0x20
30054ef8:	e5933000 	ldr	r3, [r3]
30054efc:	e3833004 	orr	r3, r3, #4	; 0x4
30054f00:	e5823000 	str	r3, [r2]
30054f04:	e3a0344e 	mov	r3, #1308622848	; 0x4e000000
30054f08:	e2833004 	add	r3, r3, #4	; 0x4
30054f0c:	e5933000 	ldr	r3, [r3]
30054f10:	e59f0028 	ldr	r0, [pc, #40]	; 30054f40 <ClearRB+0x68>
30054f14:	e1a01003 	mov	r1, r3
30054f18:	ebffff69 	bl	30054cc4 <printf_string>
30054f1c:	e3a0344e 	mov	r3, #1308622848	; 0x4e000000
30054f20:	e2833020 	add	r3, r3, #32	; 0x20
30054f24:	e5933000 	ldr	r3, [r3]
30054f28:	e59f0014 	ldr	r0, [pc, #20]	; 30054f44 <ClearRB+0x6c>
30054f2c:	e1a01003 	mov	r1, r3
30054f30:	ebffff63 	bl	30054cc4 <printf_string>
30054f34:	e24bd004 	sub	sp, fp, #4	; 0x4
30054f38:	e8bd4800 	pop	{fp, lr}
30054f3c:	e12fff1e 	bx	lr
30054f40:	3005c0c4 	.word	0x3005c0c4
30054f44:	3005c0dc 	.word	0x3005c0dc

30054f48 <SendCommand>:
30054f48:	e52db004 	push	{fp}		; (str fp, [sp, #-4]!)
30054f4c:	e28db000 	add	fp, sp, #0	; 0x0
30054f50:	e24dd00c 	sub	sp, sp, #12	; 0xc
30054f54:	e50b0008 	str	r0, [fp, #-8]
30054f58:	e3a0344e 	mov	r3, #1308622848	; 0x4e000000
30054f5c:	e2833008 	add	r3, r3, #8	; 0x8
30054f60:	e51b2008 	ldr	r2, [fp, #-8]
30054f64:	e5832000 	str	r2, [r3]
30054f68:	e28bd000 	add	sp, fp, #0	; 0x0
30054f6c:	e8bd0800 	pop	{fp}
30054f70:	e12fff1e 	bx	lr

30054f74 <SendAddress>:
30054f74:	e52db004 	push	{fp}		; (str fp, [sp, #-4]!)
30054f78:	e28db000 	add	fp, sp, #0	; 0x0
30054f7c:	e24dd00c 	sub	sp, sp, #12	; 0xc
30054f80:	e50b0008 	str	r0, [fp, #-8]
30054f84:	e3a0344e 	mov	r3, #1308622848	; 0x4e000000
30054f88:	e283300c 	add	r3, r3, #12	; 0xc
30054f8c:	e51b2008 	ldr	r2, [fp, #-8]
30054f90:	e5832000 	str	r2, [r3]
30054f94:	e28bd000 	add	sp, fp, #0	; 0x0
30054f98:	e8bd0800 	pop	{fp}
30054f9c:	e12fff1e 	bx	lr

30054fa0 <WaitRB>:
30054fa0:	e52db004 	push	{fp}		; (str fp, [sp, #-4]!)
30054fa4:	e28db000 	add	fp, sp, #0	; 0x0
30054fa8:	e3a0344e 	mov	r3, #1308622848	; 0x4e000000
30054fac:	e2833020 	add	r3, r3, #32	; 0x20
30054fb0:	e5933000 	ldr	r3, [r3]
30054fb4:	e2033004 	and	r3, r3, #4	; 0x4
30054fb8:	e3530000 	cmp	r3, #0	; 0x0
30054fbc:	0afffff9 	beq	30054fa8 <WaitRB+0x8>
30054fc0:	e28bd000 	add	sp, fp, #0	; 0x0
30054fc4:	e8bd0800 	pop	{fp}
30054fc8:	e12fff1e 	bx	lr

30054fcc <InitEcc>:
30054fcc:	e52db004 	push	{fp}		; (str fp, [sp, #-4]!)
30054fd0:	e28db000 	add	fp, sp, #0	; 0x0
30054fd4:	e3a0244e 	mov	r2, #1308622848	; 0x4e000000
30054fd8:	e2822004 	add	r2, r2, #4	; 0x4
30054fdc:	e3a0344e 	mov	r3, #1308622848	; 0x4e000000
30054fe0:	e2833004 	add	r3, r3, #4	; 0x4
30054fe4:	e5933000 	ldr	r3, [r3]
30054fe8:	e3833010 	orr	r3, r3, #16	; 0x10
30054fec:	e5823000 	str	r3, [r2]
30054ff0:	e28bd000 	add	sp, fp, #0	; 0x0
30054ff4:	e8bd0800 	pop	{fp}
30054ff8:	e12fff1e 	bx	lr

30054ffc <LockMainEcc>:
30054ffc:	e52db004 	push	{fp}		; (str fp, [sp, #-4]!)
30055000:	e28db000 	add	fp, sp, #0	; 0x0
30055004:	e3a0244e 	mov	r2, #1308622848	; 0x4e000000
30055008:	e2822004 	add	r2, r2, #4	; 0x4
3005500c:	e3a0344e 	mov	r3, #1308622848	; 0x4e000000
30055010:	e2833004 	add	r3, r3, #4	; 0x4
30055014:	e5933000 	ldr	r3, [r3]
30055018:	e3833020 	orr	r3, r3, #32	; 0x20
3005501c:	e5823000 	str	r3, [r2]
30055020:	e28bd000 	add	sp, fp, #0	; 0x0
30055024:	e8bd0800 	pop	{fp}
30055028:	e12fff1e 	bx	lr

3005502c <UnlockMainEcc>:
3005502c:	e52db004 	push	{fp}		; (str fp, [sp, #-4]!)
30055030:	e28db000 	add	fp, sp, #0	; 0x0
30055034:	e3a0244e 	mov	r2, #1308622848	; 0x4e000000
30055038:	e2822004 	add	r2, r2, #4	; 0x4
3005503c:	e3a0344e 	mov	r3, #1308622848	; 0x4e000000
30055040:	e2833004 	add	r3, r3, #4	; 0x4
30055044:	e5933000 	ldr	r3, [r3]
30055048:	e3c33020 	bic	r3, r3, #32	; 0x20
3005504c:	e5823000 	str	r3, [r2]
30055050:	e28bd000 	add	sp, fp, #0	; 0x0
30055054:	e8bd0800 	pop	{fp}
30055058:	e12fff1e 	bx	lr

3005505c <LockSpareEcc>:
3005505c:	e52db004 	push	{fp}		; (str fp, [sp, #-4]!)
30055060:	e28db000 	add	fp, sp, #0	; 0x0
30055064:	e3a0244e 	mov	r2, #1308622848	; 0x4e000000
30055068:	e2822004 	add	r2, r2, #4	; 0x4
3005506c:	e3a0344e 	mov	r3, #1308622848	; 0x4e000000
30055070:	e2833004 	add	r3, r3, #4	; 0x4
30055074:	e5933000 	ldr	r3, [r3]
30055078:	e3833040 	orr	r3, r3, #64	; 0x40
3005507c:	e5823000 	str	r3, [r2]
30055080:	e28bd000 	add	sp, fp, #0	; 0x0
30055084:	e8bd0800 	pop	{fp}
30055088:	e12fff1e 	bx	lr

3005508c <UnlockSpareEcc>:
3005508c:	e52db004 	push	{fp}		; (str fp, [sp, #-4]!)
30055090:	e28db000 	add	fp, sp, #0	; 0x0
30055094:	e3a0244e 	mov	r2, #1308622848	; 0x4e000000
30055098:	e2822004 	add	r2, r2, #4	; 0x4
3005509c:	e3a0344e 	mov	r3, #1308622848	; 0x4e000000
300550a0:	e2833004 	add	r3, r3, #4	; 0x4
300550a4:	e5933000 	ldr	r3, [r3]
300550a8:	e3c33040 	bic	r3, r3, #64	; 0x40
300550ac:	e5823000 	str	r3, [r2]
300550b0:	e28bd000 	add	sp, fp, #0	; 0x0
300550b4:	e8bd0800 	pop	{fp}
300550b8:	e12fff1e 	bx	lr

300550bc <NandPageRead>:
300550bc:	e92d4800 	push	{fp, lr}
300550c0:	e28db004 	add	fp, sp, #4	; 0x4
300550c4:	e24dd010 	sub	sp, sp, #16	; 0x10
300550c8:	e50b0010 	str	r0, [fp, #-16]
300550cc:	e50b1014 	str	r1, [fp, #-20]
300550d0:	e3a03000 	mov	r3, #0	; 0x0
300550d4:	e50b3008 	str	r3, [fp, #-8]
300550d8:	ebffff64 	bl	30054e70 <SelectChip>
300550dc:	ebffff7d 	bl	30054ed8 <ClearRB>
300550e0:	e3a00000 	mov	r0, #0	; 0x0
300550e4:	ebffff97 	bl	30054f48 <SendCommand>
300550e8:	e3a00000 	mov	r0, #0	; 0x0
300550ec:	ebffffa0 	bl	30054f74 <SendAddress>
300550f0:	e3a00000 	mov	r0, #0	; 0x0
300550f4:	ebffff9e 	bl	30054f74 <SendAddress>
300550f8:	e51b3010 	ldr	r3, [fp, #-16]
300550fc:	e20330ff 	and	r3, r3, #255	; 0xff
30055100:	e1a00003 	mov	r0, r3
30055104:	ebffff9a 	bl	30054f74 <SendAddress>
30055108:	e51b3010 	ldr	r3, [fp, #-16]
3005510c:	e1a03423 	lsr	r3, r3, #8
30055110:	e20330ff 	and	r3, r3, #255	; 0xff
30055114:	e1a00003 	mov	r0, r3
30055118:	ebffff95 	bl	30054f74 <SendAddress>
3005511c:	e51b3010 	ldr	r3, [fp, #-16]
30055120:	e1a03823 	lsr	r3, r3, #16
30055124:	e20330ff 	and	r3, r3, #255	; 0xff
30055128:	e1a00003 	mov	r0, r3
3005512c:	ebffff90 	bl	30054f74 <SendAddress>
30055130:	e3a00030 	mov	r0, #48	; 0x30
30055134:	ebffff83 	bl	30054f48 <SendCommand>
30055138:	ebffff98 	bl	30054fa0 <WaitRB>
3005513c:	e3a03000 	mov	r3, #0	; 0x0
30055140:	e50b3008 	str	r3, [fp, #-8]
30055144:	ea000010 	b	3005518c <NandPageRead+0xd0>
30055148:	e51b3008 	ldr	r3, [fp, #-8]
3005514c:	e1a02103 	lsl	r2, r3, #2
30055150:	e51b3014 	ldr	r3, [fp, #-20]
30055154:	e0832002 	add	r2, r3, r2
30055158:	e3a0344e 	mov	r3, #1308622848	; 0x4e000000
3005515c:	e2833010 	add	r3, r3, #16	; 0x10
30055160:	e5933000 	ldr	r3, [r3]
30055164:	e5823000 	str	r3, [r2]
30055168:	e51b3008 	ldr	r3, [fp, #-8]
3005516c:	e1a02103 	lsl	r2, r3, #2
30055170:	e51b3014 	ldr	r3, [fp, #-20]
30055174:	e0833002 	add	r3, r3, r2
30055178:	e1a00003 	mov	r0, r3
3005517c:	ebffef8d 	bl	30050fb8 <data_adjustment>
30055180:	e51b3008 	ldr	r3, [fp, #-8]
30055184:	e2833001 	add	r3, r3, #1	; 0x1
30055188:	e50b3008 	str	r3, [fp, #-8]
3005518c:	e51b2008 	ldr	r2, [fp, #-8]
30055190:	e3a03f7f 	mov	r3, #508	; 0x1fc
30055194:	e2833003 	add	r3, r3, #3	; 0x3
30055198:	e1520003 	cmp	r2, r3
3005519c:	daffffe9 	ble	30055148 <NandPageRead+0x8c>
300551a0:	ebffff3e 	bl	30054ea0 <DeselectChip>
300551a4:	e24bd004 	sub	sp, fp, #4	; 0x4
300551a8:	e8bd4800 	pop	{fp, lr}
300551ac:	e12fff1e 	bx	lr

300551b0 <NandRandomPageRead>:
300551b0:	e92d4800 	push	{fp, lr}
300551b4:	e28db004 	add	fp, sp, #4	; 0x4
300551b8:	e24dd020 	sub	sp, sp, #32	; 0x20
300551bc:	e50b0010 	str	r0, [fp, #-16]
300551c0:	e50b1014 	str	r1, [fp, #-20]
300551c4:	e50b2018 	str	r2, [fp, #-24]
300551c8:	e50b301c 	str	r3, [fp, #-28]
300551cc:	e3a03000 	mov	r3, #0	; 0x0
300551d0:	e50b300c 	str	r3, [fp, #-12]
300551d4:	e51b301c 	ldr	r3, [fp, #-28]
300551d8:	e50b3008 	str	r3, [fp, #-8]
300551dc:	e51b3014 	ldr	r3, [fp, #-20]
300551e0:	e2632d21 	rsb	r2, r3, #2112	; 0x840
300551e4:	e51b3008 	ldr	r3, [fp, #-8]
300551e8:	e1520003 	cmp	r2, r3
300551ec:	2a000002 	bcs	300551fc <NandRandomPageRead+0x4c>
300551f0:	e51b3014 	ldr	r3, [fp, #-20]
300551f4:	e2633d21 	rsb	r3, r3, #2112	; 0x840
300551f8:	e50b3008 	str	r3, [fp, #-8]
300551fc:	e59f0170 	ldr	r0, [pc, #368]	; 30055374 <NandRandomPageRead+0x1c4>
30055200:	e51b1010 	ldr	r1, [fp, #-16]
30055204:	ebfffeae 	bl	30054cc4 <printf_string>
30055208:	e59f0168 	ldr	r0, [pc, #360]	; 30055378 <NandRandomPageRead+0x1c8>
3005520c:	e51b1014 	ldr	r1, [fp, #-20]
30055210:	ebfffeab 	bl	30054cc4 <printf_string>
30055214:	e59f0160 	ldr	r0, [pc, #352]	; 3005537c <NandRandomPageRead+0x1cc>
30055218:	e51b1008 	ldr	r1, [fp, #-8]
3005521c:	ebfffea8 	bl	30054cc4 <printf_string>
30055220:	ebffff12 	bl	30054e70 <SelectChip>
30055224:	ebffff2b 	bl	30054ed8 <ClearRB>
30055228:	e3a00000 	mov	r0, #0	; 0x0
3005522c:	ebffff45 	bl	30054f48 <SendCommand>
30055230:	e51b3014 	ldr	r3, [fp, #-20]
30055234:	e20330ff 	and	r3, r3, #255	; 0xff
30055238:	e1a00003 	mov	r0, r3
3005523c:	ebffff4c 	bl	30054f74 <SendAddress>
30055240:	e51b3014 	ldr	r3, [fp, #-20]
30055244:	e1a03423 	lsr	r3, r3, #8
30055248:	e20330ff 	and	r3, r3, #255	; 0xff
3005524c:	e1a00003 	mov	r0, r3
30055250:	ebffff47 	bl	30054f74 <SendAddress>
30055254:	e51b3010 	ldr	r3, [fp, #-16]
30055258:	e20330ff 	and	r3, r3, #255	; 0xff
3005525c:	e1a00003 	mov	r0, r3
30055260:	ebffff43 	bl	30054f74 <SendAddress>
30055264:	e51b3010 	ldr	r3, [fp, #-16]
30055268:	e1a03423 	lsr	r3, r3, #8
3005526c:	e20330ff 	and	r3, r3, #255	; 0xff
30055270:	e1a00003 	mov	r0, r3
30055274:	ebffff3e 	bl	30054f74 <SendAddress>
30055278:	e51b3010 	ldr	r3, [fp, #-16]
3005527c:	e1a03823 	lsr	r3, r3, #16
30055280:	e20330ff 	and	r3, r3, #255	; 0xff
30055284:	e1a00003 	mov	r0, r3
30055288:	ebffff39 	bl	30054f74 <SendAddress>
3005528c:	e3a00030 	mov	r0, #48	; 0x30
30055290:	ebffff2c 	bl	30054f48 <SendCommand>
30055294:	ebffff41 	bl	30054fa0 <WaitRB>
30055298:	e3a00005 	mov	r0, #5	; 0x5
3005529c:	ebffff29 	bl	30054f48 <SendCommand>
300552a0:	e51b3014 	ldr	r3, [fp, #-20]
300552a4:	e20330ff 	and	r3, r3, #255	; 0xff
300552a8:	e1a00003 	mov	r0, r3
300552ac:	ebffff30 	bl	30054f74 <SendAddress>
300552b0:	e51b3014 	ldr	r3, [fp, #-20]
300552b4:	e1a03423 	lsr	r3, r3, #8
300552b8:	e20330ff 	and	r3, r3, #255	; 0xff
300552bc:	e1a00003 	mov	r0, r3
300552c0:	ebffff2b 	bl	30054f74 <SendAddress>
300552c4:	e3a000e0 	mov	r0, #224	; 0xe0
300552c8:	ebffff1e 	bl	30054f48 <SendCommand>
300552cc:	e3a03000 	mov	r3, #0	; 0x0
300552d0:	e50b300c 	str	r3, [fp, #-12]
300552d4:	ea000010 	b	3005531c <NandRandomPageRead+0x16c>
300552d8:	e51b300c 	ldr	r3, [fp, #-12]
300552dc:	e1a02103 	lsl	r2, r3, #2
300552e0:	e51b3018 	ldr	r3, [fp, #-24]
300552e4:	e0832002 	add	r2, r3, r2
300552e8:	e3a0344e 	mov	r3, #1308622848	; 0x4e000000
300552ec:	e2833010 	add	r3, r3, #16	; 0x10
300552f0:	e5933000 	ldr	r3, [r3]
300552f4:	e5823000 	str	r3, [r2]
300552f8:	e51b300c 	ldr	r3, [fp, #-12]
300552fc:	e1a02103 	lsl	r2, r3, #2
30055300:	e51b3018 	ldr	r3, [fp, #-24]
30055304:	e0833002 	add	r3, r3, r2
30055308:	e1a00003 	mov	r0, r3
3005530c:	ebffef29 	bl	30050fb8 <data_adjustment>
30055310:	e51b300c 	ldr	r3, [fp, #-12]
30055314:	e2833001 	add	r3, r3, #1	; 0x1
30055318:	e50b300c 	str	r3, [fp, #-12]
3005531c:	e51b200c 	ldr	r2, [fp, #-12]
30055320:	e50b2024 	str	r2, [fp, #-36]
30055324:	e51b3008 	ldr	r3, [fp, #-8]
30055328:	e2033003 	and	r3, r3, #3	; 0x3
3005532c:	e3530000 	cmp	r3, #0	; 0x0
30055330:	1a000003 	bne	30055344 <NandRandomPageRead+0x194>
30055334:	e51b3008 	ldr	r3, [fp, #-8]
30055338:	e1a03123 	lsr	r3, r3, #2
3005533c:	e50b3020 	str	r3, [fp, #-32]
30055340:	ea000003 	b	30055354 <NandRandomPageRead+0x1a4>
30055344:	e51b3008 	ldr	r3, [fp, #-8]
30055348:	e1a03123 	lsr	r3, r3, #2
3005534c:	e2833001 	add	r3, r3, #1	; 0x1
30055350:	e50b3020 	str	r3, [fp, #-32]
30055354:	e51b3024 	ldr	r3, [fp, #-36]
30055358:	e51b2020 	ldr	r2, [fp, #-32]
3005535c:	e1530002 	cmp	r3, r2
30055360:	3affffdc 	bcc	300552d8 <NandRandomPageRead+0x128>
30055364:	ebfffecd 	bl	30054ea0 <DeselectChip>
30055368:	e24bd004 	sub	sp, fp, #4	; 0x4
3005536c:	e8bd4800 	pop	{fp, lr}
30055370:	e12fff1e 	bx	lr
30055374:	3005c0f4 	.word	0x3005c0f4
30055378:	3005c124 	.word	0x3005c124
3005537c:	3005c158 	.word	0x3005c158

30055380 <NandProgramPage>:
30055380:	e92d4800 	push	{fp, lr}
30055384:	e28db004 	add	fp, sp, #4	; 0x4
30055388:	e24dd010 	sub	sp, sp, #16	; 0x10
3005538c:	e50b0010 	str	r0, [fp, #-16]
30055390:	e50b1014 	str	r1, [fp, #-20]
30055394:	e3a03000 	mov	r3, #0	; 0x0
30055398:	e50b3008 	str	r3, [fp, #-8]
3005539c:	ebfffeb3 	bl	30054e70 <SelectChip>
300553a0:	ebfffecc 	bl	30054ed8 <ClearRB>
300553a4:	e3a00080 	mov	r0, #128	; 0x80
300553a8:	ebfffee6 	bl	30054f48 <SendCommand>
300553ac:	e3a00000 	mov	r0, #0	; 0x0
300553b0:	ebfffeef 	bl	30054f74 <SendAddress>
300553b4:	e3a00000 	mov	r0, #0	; 0x0
300553b8:	ebfffeed 	bl	30054f74 <SendAddress>
300553bc:	e51b3010 	ldr	r3, [fp, #-16]
300553c0:	e20330ff 	and	r3, r3, #255	; 0xff
300553c4:	e1a00003 	mov	r0, r3
300553c8:	ebfffee9 	bl	30054f74 <SendAddress>
300553cc:	e51b3010 	ldr	r3, [fp, #-16]
300553d0:	e1a03423 	lsr	r3, r3, #8
300553d4:	e20330ff 	and	r3, r3, #255	; 0xff
300553d8:	e1a00003 	mov	r0, r3
300553dc:	ebfffee4 	bl	30054f74 <SendAddress>
300553e0:	e51b3010 	ldr	r3, [fp, #-16]
300553e4:	e1a03823 	lsr	r3, r3, #16
300553e8:	e20330ff 	and	r3, r3, #255	; 0xff
300553ec:	e1a00003 	mov	r0, r3
300553f0:	ebfffedf 	bl	30054f74 <SendAddress>
300553f4:	e3a03000 	mov	r3, #0	; 0x0
300553f8:	e50b3008 	str	r3, [fp, #-8]
300553fc:	ea00000a 	b	3005542c <NandProgramPage+0xac>
30055400:	e3a0244e 	mov	r2, #1308622848	; 0x4e000000
30055404:	e2822010 	add	r2, r2, #16	; 0x10
30055408:	e51b3008 	ldr	r3, [fp, #-8]
3005540c:	e1a01103 	lsl	r1, r3, #2
30055410:	e51b3014 	ldr	r3, [fp, #-20]
30055414:	e0833001 	add	r3, r3, r1
30055418:	e5933000 	ldr	r3, [r3]
3005541c:	e5823000 	str	r3, [r2]
30055420:	e51b3008 	ldr	r3, [fp, #-8]
30055424:	e2833001 	add	r3, r3, #1	; 0x1
30055428:	e50b3008 	str	r3, [fp, #-8]
3005542c:	e51b2008 	ldr	r2, [fp, #-8]
30055430:	e3a03f7f 	mov	r3, #508	; 0x1fc
30055434:	e2833003 	add	r3, r3, #3	; 0x3
30055438:	e1520003 	cmp	r2, r3
3005543c:	daffffef 	ble	30055400 <NandProgramPage+0x80>
30055440:	e3a00010 	mov	r0, #16	; 0x10
30055444:	ebfffebf 	bl	30054f48 <SendCommand>
30055448:	ebfffed4 	bl	30054fa0 <WaitRB>
3005544c:	e3a00070 	mov	r0, #112	; 0x70
30055450:	ebfffebc 	bl	30054f48 <SendCommand>
30055454:	e3a0344e 	mov	r3, #1308622848	; 0x4e000000
30055458:	e2833010 	add	r3, r3, #16	; 0x10
3005545c:	e5933000 	ldr	r3, [r3]
30055460:	e50b300c 	str	r3, [fp, #-12]
30055464:	ebfffe8d 	bl	30054ea0 <DeselectChip>
30055468:	e51b300c 	ldr	r3, [fp, #-12]
3005546c:	e1a00003 	mov	r0, r3
30055470:	e24bd004 	sub	sp, fp, #4	; 0x4
30055474:	e8bd4800 	pop	{fp, lr}
30055478:	e12fff1e 	bx	lr

3005547c <NandRandomPageProgram>:
3005547c:	e92d4800 	push	{fp, lr}
30055480:	e28db004 	add	fp, sp, #4	; 0x4
30055484:	e24dd020 	sub	sp, sp, #32	; 0x20
30055488:	e50b0010 	str	r0, [fp, #-16]
3005548c:	e50b1014 	str	r1, [fp, #-20]
30055490:	e50b2018 	str	r2, [fp, #-24]
30055494:	e50b301c 	str	r3, [fp, #-28]
30055498:	e3a03000 	mov	r3, #0	; 0x0
3005549c:	e50b300c 	str	r3, [fp, #-12]
300554a0:	e51b301c 	ldr	r3, [fp, #-28]
300554a4:	e50b3008 	str	r3, [fp, #-8]
300554a8:	e51b3014 	ldr	r3, [fp, #-20]
300554ac:	e2632d21 	rsb	r2, r3, #2112	; 0x840
300554b0:	e51b3008 	ldr	r3, [fp, #-8]
300554b4:	e1520003 	cmp	r2, r3
300554b8:	2a000002 	bcs	300554c8 <NandRandomPageProgram+0x4c>
300554bc:	e51b3014 	ldr	r3, [fp, #-20]
300554c0:	e2633d21 	rsb	r3, r3, #2112	; 0x840
300554c4:	e50b3008 	str	r3, [fp, #-8]
300554c8:	e59f014c 	ldr	r0, [pc, #332]	; 3005561c <NandRandomPageProgram+0x1a0>
300554cc:	e51b1010 	ldr	r1, [fp, #-16]
300554d0:	ebfffdfb 	bl	30054cc4 <printf_string>
300554d4:	e59f0144 	ldr	r0, [pc, #324]	; 30055620 <NandRandomPageProgram+0x1a4>
300554d8:	e51b1014 	ldr	r1, [fp, #-20]
300554dc:	ebfffdf8 	bl	30054cc4 <printf_string>
300554e0:	e59f013c 	ldr	r0, [pc, #316]	; 30055624 <NandRandomPageProgram+0x1a8>
300554e4:	e51b1008 	ldr	r1, [fp, #-8]
300554e8:	ebfffdf5 	bl	30054cc4 <printf_string>
300554ec:	ebfffe5f 	bl	30054e70 <SelectChip>
300554f0:	ebfffe78 	bl	30054ed8 <ClearRB>
300554f4:	e3a00080 	mov	r0, #128	; 0x80
300554f8:	ebfffe92 	bl	30054f48 <SendCommand>
300554fc:	e51b3014 	ldr	r3, [fp, #-20]
30055500:	e20330ff 	and	r3, r3, #255	; 0xff
30055504:	e1a00003 	mov	r0, r3
30055508:	ebfffe99 	bl	30054f74 <SendAddress>
3005550c:	e51b3014 	ldr	r3, [fp, #-20]
30055510:	e1a03423 	lsr	r3, r3, #8
30055514:	e20330ff 	and	r3, r3, #255	; 0xff
30055518:	e1a00003 	mov	r0, r3
3005551c:	ebfffe94 	bl	30054f74 <SendAddress>
30055520:	e51b3010 	ldr	r3, [fp, #-16]
30055524:	e20330ff 	and	r3, r3, #255	; 0xff
30055528:	e1a00003 	mov	r0, r3
3005552c:	ebfffe90 	bl	30054f74 <SendAddress>
30055530:	e51b3010 	ldr	r3, [fp, #-16]
30055534:	e1a03423 	lsr	r3, r3, #8
30055538:	e20330ff 	and	r3, r3, #255	; 0xff
3005553c:	e1a00003 	mov	r0, r3
30055540:	ebfffe8b 	bl	30054f74 <SendAddress>
30055544:	e51b3010 	ldr	r3, [fp, #-16]
30055548:	e1a03823 	lsr	r3, r3, #16
3005554c:	e20330ff 	and	r3, r3, #255	; 0xff
30055550:	e1a00003 	mov	r0, r3
30055554:	ebfffe86 	bl	30054f74 <SendAddress>
30055558:	e3a00085 	mov	r0, #133	; 0x85
3005555c:	ebfffe79 	bl	30054f48 <SendCommand>
30055560:	e51b3014 	ldr	r3, [fp, #-20]
30055564:	e20330ff 	and	r3, r3, #255	; 0xff
30055568:	e1a00003 	mov	r0, r3
3005556c:	ebfffe80 	bl	30054f74 <SendAddress>
30055570:	e51b3014 	ldr	r3, [fp, #-20]
30055574:	e1a03423 	lsr	r3, r3, #8
30055578:	e20330ff 	and	r3, r3, #255	; 0xff
3005557c:	e1a00003 	mov	r0, r3
30055580:	ebfffe7b 	bl	30054f74 <SendAddress>
30055584:	e3a03000 	mov	r3, #0	; 0x0
30055588:	e50b300c 	str	r3, [fp, #-12]
3005558c:	ea00000a 	b	300555bc <NandRandomPageProgram+0x140>
30055590:	e3a0244e 	mov	r2, #1308622848	; 0x4e000000
30055594:	e2822010 	add	r2, r2, #16	; 0x10
30055598:	e51b300c 	ldr	r3, [fp, #-12]
3005559c:	e1a01103 	lsl	r1, r3, #2
300555a0:	e51b3018 	ldr	r3, [fp, #-24]
300555a4:	e0833001 	add	r3, r3, r1
300555a8:	e5933000 	ldr	r3, [r3]
300555ac:	e5823000 	str	r3, [r2]
300555b0:	e51b300c 	ldr	r3, [fp, #-12]
300555b4:	e2833001 	add	r3, r3, #1	; 0x1
300555b8:	e50b300c 	str	r3, [fp, #-12]
300555bc:	e51b200c 	ldr	r2, [fp, #-12]
300555c0:	e50b2024 	str	r2, [fp, #-36]
300555c4:	e51b3008 	ldr	r3, [fp, #-8]
300555c8:	e2033003 	and	r3, r3, #3	; 0x3
300555cc:	e3530000 	cmp	r3, #0	; 0x0
300555d0:	1a000003 	bne	300555e4 <NandRandomPageProgram+0x168>
300555d4:	e51b3008 	ldr	r3, [fp, #-8]
300555d8:	e1a03123 	lsr	r3, r3, #2
300555dc:	e50b3020 	str	r3, [fp, #-32]
300555e0:	ea000003 	b	300555f4 <NandRandomPageProgram+0x178>
300555e4:	e51b3008 	ldr	r3, [fp, #-8]
300555e8:	e1a03123 	lsr	r3, r3, #2
300555ec:	e2833001 	add	r3, r3, #1	; 0x1
300555f0:	e50b3020 	str	r3, [fp, #-32]
300555f4:	e51b3024 	ldr	r3, [fp, #-36]
300555f8:	e51b2020 	ldr	r2, [fp, #-32]
300555fc:	e1530002 	cmp	r3, r2
30055600:	3affffe2 	bcc	30055590 <NandRandomPageProgram+0x114>
30055604:	e3a00010 	mov	r0, #16	; 0x10
30055608:	ebfffe4e 	bl	30054f48 <SendCommand>
3005560c:	ebfffe23 	bl	30054ea0 <DeselectChip>
30055610:	e24bd004 	sub	sp, fp, #4	; 0x4
30055614:	e8bd4800 	pop	{fp, lr}
30055618:	e12fff1e 	bx	lr
3005561c:	3005c18c 	.word	0x3005c18c
30055620:	3005c1a4 	.word	0x3005c1a4
30055624:	3005c1c0 	.word	0x3005c1c0

30055628 <NandEraseBlock>:
30055628:	e92d4800 	push	{fp, lr}
3005562c:	e28db004 	add	fp, sp, #4	; 0x4
30055630:	e24dd010 	sub	sp, sp, #16	; 0x10
30055634:	e50b0010 	str	r0, [fp, #-16]
30055638:	ebfffe0c 	bl	30054e70 <SelectChip>
3005563c:	ebfffe25 	bl	30054ed8 <ClearRB>
30055640:	e3a00060 	mov	r0, #96	; 0x60
30055644:	ebfffe3f 	bl	30054f48 <SendCommand>
30055648:	e51b3010 	ldr	r3, [fp, #-16]
3005564c:	e20330ff 	and	r3, r3, #255	; 0xff
30055650:	e1a00003 	mov	r0, r3
30055654:	ebfffe46 	bl	30054f74 <SendAddress>
30055658:	e51b3010 	ldr	r3, [fp, #-16]
3005565c:	e1a03423 	lsr	r3, r3, #8
30055660:	e20330ff 	and	r3, r3, #255	; 0xff
30055664:	e1a00003 	mov	r0, r3
30055668:	ebfffe41 	bl	30054f74 <SendAddress>
3005566c:	e51b3010 	ldr	r3, [fp, #-16]
30055670:	e1a03823 	lsr	r3, r3, #16
30055674:	e20330ff 	and	r3, r3, #255	; 0xff
30055678:	e1a00003 	mov	r0, r3
3005567c:	ebfffe3c 	bl	30054f74 <SendAddress>
30055680:	e3a000d0 	mov	r0, #208	; 0xd0
30055684:	ebfffe2f 	bl	30054f48 <SendCommand>
30055688:	ebfffe44 	bl	30054fa0 <WaitRB>
3005568c:	e3a00070 	mov	r0, #112	; 0x70
30055690:	ebfffe2c 	bl	30054f48 <SendCommand>
30055694:	e3a0000a 	mov	r0, #10	; 0xa
30055698:	ebffee19 	bl	30050f04 <delay>
3005569c:	e3a0344e 	mov	r3, #1308622848	; 0x4e000000
300556a0:	e2833010 	add	r3, r3, #16	; 0x10
300556a4:	e5933000 	ldr	r3, [r3]
300556a8:	e50b3008 	str	r3, [fp, #-8]
300556ac:	ebfffdfb 	bl	30054ea0 <DeselectChip>
300556b0:	e51b3008 	ldr	r3, [fp, #-8]
300556b4:	e1a00003 	mov	r0, r3
300556b8:	e24bd004 	sub	sp, fp, #4	; 0x4
300556bc:	e8bd4800 	pop	{fp, lr}
300556c0:	e12fff1e 	bx	lr

300556c4 <ReadID>:
300556c4:	e92d4800 	push	{fp, lr}
300556c8:	e28db004 	add	fp, sp, #4	; 0x4
300556cc:	e24dd010 	sub	sp, sp, #16	; 0x10
300556d0:	e50b0010 	str	r0, [fp, #-16]
300556d4:	e3a03000 	mov	r3, #0	; 0x0
300556d8:	e50b3008 	str	r3, [fp, #-8]
300556dc:	ebfffde3 	bl	30054e70 <SelectChip>
300556e0:	e3a00090 	mov	r0, #144	; 0x90
300556e4:	ebfffe17 	bl	30054f48 <SendCommand>
300556e8:	e3a00000 	mov	r0, #0	; 0x0
300556ec:	ebfffe20 	bl	30054f74 <SendAddress>
300556f0:	e3a03000 	mov	r3, #0	; 0x0
300556f4:	e50b3008 	str	r3, [fp, #-8]
300556f8:	ea00000a 	b	30055728 <ReadID+0x64>
300556fc:	e51b3008 	ldr	r3, [fp, #-8]
30055700:	e1a02103 	lsl	r2, r3, #2
30055704:	e51b3010 	ldr	r3, [fp, #-16]
30055708:	e0832002 	add	r2, r3, r2
3005570c:	e3a0344e 	mov	r3, #1308622848	; 0x4e000000
30055710:	e2833010 	add	r3, r3, #16	; 0x10
30055714:	e5933000 	ldr	r3, [r3]
30055718:	e5823000 	str	r3, [r2]
3005571c:	e51b3008 	ldr	r3, [fp, #-8]
30055720:	e2833001 	add	r3, r3, #1	; 0x1
30055724:	e50b3008 	str	r3, [fp, #-8]
30055728:	e51b3008 	ldr	r3, [fp, #-8]
3005572c:	e3530001 	cmp	r3, #1	; 0x1
30055730:	dafffff1 	ble	300556fc <ReadID+0x38>
30055734:	ebfffdd9 	bl	30054ea0 <DeselectChip>
30055738:	e3a03000 	mov	r3, #0	; 0x0
3005573c:	e1a00003 	mov	r0, r3
30055740:	e24bd004 	sub	sp, fp, #4	; 0x4
30055744:	e8bd4800 	pop	{fp, lr}
30055748:	e12fff1e 	bx	lr

3005574c <NandReset>:
3005574c:	e92d4800 	push	{fp, lr}
30055750:	e28db004 	add	fp, sp, #4	; 0x4
30055754:	ebfffdc5 	bl	30054e70 <SelectChip>
30055758:	ebfffdde 	bl	30054ed8 <ClearRB>
3005575c:	e3a000ff 	mov	r0, #255	; 0xff
30055760:	ebfffdf8 	bl	30054f48 <SendCommand>
30055764:	ebfffe0d 	bl	30054fa0 <WaitRB>
30055768:	ebfffdcc 	bl	30054ea0 <DeselectChip>
3005576c:	e24bd004 	sub	sp, fp, #4	; 0x4
30055770:	e8bd4800 	pop	{fp, lr}
30055774:	e12fff1e 	bx	lr

30055778 <NandControllerInit>:
30055778:	e92d4800 	push	{fp, lr}
3005577c:	e28db004 	add	fp, sp, #4	; 0x4
30055780:	e3a0244e 	mov	r2, #1308622848	; 0x4e000000
30055784:	e3a03b0d 	mov	r3, #13312	; 0x3400
30055788:	e2833018 	add	r3, r3, #24	; 0x18
3005578c:	e5823000 	str	r3, [r2]
30055790:	e3a0244e 	mov	r2, #1308622848	; 0x4e000000
30055794:	e2822004 	add	r2, r2, #4	; 0x4
30055798:	e3a0344e 	mov	r3, #1308622848	; 0x4e000000
3005579c:	e2833004 	add	r3, r3, #4	; 0x4
300557a0:	e5933000 	ldr	r3, [r3]
300557a4:	e3833011 	orr	r3, r3, #17	; 0x11
300557a8:	e5823000 	str	r3, [r2]
300557ac:	e3a0244e 	mov	r2, #1308622848	; 0x4e000000
300557b0:	e2822004 	add	r2, r2, #4	; 0x4
300557b4:	e3a0344e 	mov	r3, #1308622848	; 0x4e000000
300557b8:	e2833004 	add	r3, r3, #4	; 0x4
300557bc:	e5933000 	ldr	r3, [r3]
300557c0:	e3c33a01 	bic	r3, r3, #4096	; 0x1000
300557c4:	e5823000 	str	r3, [r2]
300557c8:	ebffffdf 	bl	3005574c <NandReset>
300557cc:	e24bd004 	sub	sp, fp, #4	; 0x4
300557d0:	e8bd4800 	pop	{fp, lr}
300557d4:	e12fff1e 	bx	lr

300557d8 <valueDump>:
300557d8:	e92d4800 	push	{fp, lr}
300557dc:	e28db004 	add	fp, sp, #4	; 0x4
300557e0:	e24dd010 	sub	sp, sp, #16	; 0x10
300557e4:	e50b0010 	str	r0, [fp, #-16]
300557e8:	e50b1014 	str	r1, [fp, #-20]
300557ec:	e3a03000 	mov	r3, #0	; 0x0
300557f0:	e50b300c 	str	r3, [fp, #-12]
300557f4:	e3a03000 	mov	r3, #0	; 0x0
300557f8:	e50b3008 	str	r3, [fp, #-8]
300557fc:	e3a03000 	mov	r3, #0	; 0x0
30055800:	e50b300c 	str	r3, [fp, #-12]
30055804:	ea000013 	b	30055858 <valueDump+0x80>
30055808:	e51b300c 	ldr	r3, [fp, #-12]
3005580c:	e2033007 	and	r3, r3, #7	; 0x7
30055810:	e3530000 	cmp	r3, #0	; 0x0
30055814:	1a000005 	bne	30055830 <valueDump+0x58>
30055818:	e59f0054 	ldr	r0, [pc, #84]	; 30055874 <valueDump+0x9c>
3005581c:	e51b1008 	ldr	r1, [fp, #-8]
30055820:	ebfffd27 	bl	30054cc4 <printf_string>
30055824:	e51b3008 	ldr	r3, [fp, #-8]
30055828:	e2833001 	add	r3, r3, #1	; 0x1
3005582c:	e50b3008 	str	r3, [fp, #-8]
30055830:	e51b200c 	ldr	r2, [fp, #-12]
30055834:	e51b3010 	ldr	r3, [fp, #-16]
30055838:	e0833002 	add	r3, r3, r2
3005583c:	e5d33000 	ldrb	r3, [r3]
30055840:	e59f0030 	ldr	r0, [pc, #48]	; 30055878 <valueDump+0xa0>
30055844:	e1a01003 	mov	r1, r3
30055848:	ebfffd1d 	bl	30054cc4 <printf_string>
3005584c:	e51b300c 	ldr	r3, [fp, #-12]
30055850:	e2833001 	add	r3, r3, #1	; 0x1
30055854:	e50b300c 	str	r3, [fp, #-12]
30055858:	e51b200c 	ldr	r2, [fp, #-12]
3005585c:	e51b3014 	ldr	r3, [fp, #-20]
30055860:	e1520003 	cmp	r2, r3
30055864:	baffffe7 	blt	30055808 <valueDump+0x30>
30055868:	e24bd004 	sub	sp, fp, #4	; 0x4
3005586c:	e8bd4800 	pop	{fp, lr}
30055870:	e12fff1e 	bx	lr
30055874:	3005c1dc 	.word	0x3005c1dc
30055878:	3005c1e8 	.word	0x3005c1e8

3005587c <AddrConvert>:
3005587c:	e92d4800 	push	{fp, lr}
30055880:	e28db004 	add	fp, sp, #4	; 0x4
30055884:	e24dd018 	sub	sp, sp, #24	; 0x18
30055888:	e50b0010 	str	r0, [fp, #-16]
3005588c:	e50b1014 	str	r1, [fp, #-20]
30055890:	e50b2018 	str	r2, [fp, #-24]
30055894:	e50b301c 	str	r3, [fp, #-28]
30055898:	e3a03b02 	mov	r3, #2048	; 0x800
3005589c:	e50b3008 	str	r3, [fp, #-8]
300558a0:	e51b3014 	ldr	r3, [fp, #-20]
300558a4:	e3530000 	cmp	r3, #0	; 0x0
300558a8:	0a000023 	beq	3005593c <AddrConvert+0xc0>
300558ac:	e51b3018 	ldr	r3, [fp, #-24]
300558b0:	e3530000 	cmp	r3, #0	; 0x0
300558b4:	0a000020 	beq	3005593c <AddrConvert+0xc0>
300558b8:	e51b301c 	ldr	r3, [fp, #-28]
300558bc:	e3530000 	cmp	r3, #0	; 0x0
300558c0:	0a000002 	beq	300558d0 <AddrConvert+0x54>
300558c4:	e51b3008 	ldr	r3, [fp, #-8]
300558c8:	e2833040 	add	r3, r3, #64	; 0x40
300558cc:	e50b3008 	str	r3, [fp, #-8]
300558d0:	e51b3010 	ldr	r3, [fp, #-16]
300558d4:	e51b2008 	ldr	r2, [fp, #-8]
300558d8:	e1a00003 	mov	r0, r3
300558dc:	e1a01002 	mov	r1, r2
300558e0:	eb0017d9 	bl	3005b84c <__aeabi_uidiv>
300558e4:	e1a03000 	mov	r3, r0
300558e8:	e1a02003 	mov	r2, r3
300558ec:	e51b3014 	ldr	r3, [fp, #-20]
300558f0:	e5832000 	str	r2, [r3]
300558f4:	e51b3010 	ldr	r3, [fp, #-16]
300558f8:	e1a00003 	mov	r0, r3
300558fc:	e51b1008 	ldr	r1, [fp, #-8]
30055900:	eb00180e 	bl	3005b940 <__aeabi_uidivmod>
30055904:	e1a03001 	mov	r3, r1
30055908:	e1a02003 	mov	r2, r3
3005590c:	e51b3018 	ldr	r3, [fp, #-24]
30055910:	e5832000 	str	r2, [r3]
30055914:	e51b3014 	ldr	r3, [fp, #-20]
30055918:	e5933000 	ldr	r3, [r3]
3005591c:	e59f0024 	ldr	r0, [pc, #36]	; 30055948 <AddrConvert+0xcc>
30055920:	e1a01003 	mov	r1, r3
30055924:	ebfffce6 	bl	30054cc4 <printf_string>
30055928:	e51b3018 	ldr	r3, [fp, #-24]
3005592c:	e5933000 	ldr	r3, [r3]
30055930:	e59f0014 	ldr	r0, [pc, #20]	; 3005594c <AddrConvert+0xd0>
30055934:	e1a01003 	mov	r1, r3
30055938:	ebfffce1 	bl	30054cc4 <printf_string>
3005593c:	e24bd004 	sub	sp, fp, #4	; 0x4
30055940:	e8bd4800 	pop	{fp, lr}
30055944:	e12fff1e 	bx	lr
30055948:	3005c1f0 	.word	0x3005c1f0
3005594c:	3005c218 	.word	0x3005c218

30055950 <NandReadChipId>:
30055950:	e92d4800 	push	{fp, lr}
30055954:	e28db004 	add	fp, sp, #4	; 0x4
30055958:	e24dd010 	sub	sp, sp, #16	; 0x10
3005595c:	e59f0088 	ldr	r0, [pc, #136]	; 300559ec <NandReadChipId+0x9c>
30055960:	ebfff985 	bl	30053f7c <print_string>
30055964:	e3a03000 	mov	r3, #0	; 0x0
30055968:	e50b3008 	str	r3, [fp, #-8]
3005596c:	e3a03000 	mov	r3, #0	; 0x0
30055970:	e50b3010 	str	r3, [fp, #-16]
30055974:	e3a03000 	mov	r3, #0	; 0x0
30055978:	e50b300c 	str	r3, [fp, #-12]
3005597c:	e24b3010 	sub	r3, fp, #16	; 0x10
30055980:	e1a00003 	mov	r0, r3
30055984:	ebffff4e 	bl	300556c4 <ReadID>
30055988:	e59f0060 	ldr	r0, [pc, #96]	; 300559f0 <NandReadChipId+0xa0>
3005598c:	ebfff97a 	bl	30053f7c <print_string>
30055990:	e3a03000 	mov	r3, #0	; 0x0
30055994:	e50b3008 	str	r3, [fp, #-8]
30055998:	ea000009 	b	300559c4 <NandReadChipId+0x74>
3005599c:	e24b2010 	sub	r2, fp, #16	; 0x10
300559a0:	e51b3008 	ldr	r3, [fp, #-8]
300559a4:	e0823003 	add	r3, r2, r3
300559a8:	e5d33000 	ldrb	r3, [r3]
300559ac:	e59f0040 	ldr	r0, [pc, #64]	; 300559f4 <NandReadChipId+0xa4>
300559b0:	e1a01003 	mov	r1, r3
300559b4:	ebfffcc2 	bl	30054cc4 <printf_string>
300559b8:	e51b3008 	ldr	r3, [fp, #-8]
300559bc:	e2833001 	add	r3, r3, #1	; 0x1
300559c0:	e50b3008 	str	r3, [fp, #-8]
300559c4:	e51b3008 	ldr	r3, [fp, #-8]
300559c8:	e3530004 	cmp	r3, #4	; 0x4
300559cc:	dafffff2 	ble	3005599c <NandReadChipId+0x4c>
300559d0:	e59f0020 	ldr	r0, [pc, #32]	; 300559f8 <NandReadChipId+0xa8>
300559d4:	ebfff968 	bl	30053f7c <print_string>
300559d8:	e59f001c 	ldr	r0, [pc, #28]	; 300559fc <NandReadChipId+0xac>
300559dc:	ebfff966 	bl	30053f7c <print_string>
300559e0:	e24bd004 	sub	sp, fp, #4	; 0x4
300559e4:	e8bd4800 	pop	{fp, lr}
300559e8:	e12fff1e 	bx	lr
300559ec:	3005c244 	.word	0x3005c244
300559f0:	3005c258 	.word	0x3005c258
300559f4:	3005c1e8 	.word	0x3005c1e8
300559f8:	3005c264 	.word	0x3005c264
300559fc:	3005c268 	.word	0x3005c268

30055a00 <NandBlockEraseTest>:
30055a00:	e92d4800 	push	{fp, lr}
30055a04:	e28db004 	add	fp, sp, #4	; 0x4
30055a08:	e24dd010 	sub	sp, sp, #16	; 0x10
30055a0c:	e50b0010 	str	r0, [fp, #-16]
30055a10:	e59f0054 	ldr	r0, [pc, #84]	; 30055a6c <NandBlockEraseTest+0x6c>
30055a14:	e51b1010 	ldr	r1, [fp, #-16]
30055a18:	ebfffca9 	bl	30054cc4 <printf_string>
30055a1c:	e3a03000 	mov	r3, #0	; 0x0
30055a20:	e50b3008 	str	r3, [fp, #-8]
30055a24:	e3a03000 	mov	r3, #0	; 0x0
30055a28:	e50b300c 	str	r3, [fp, #-12]
30055a2c:	e51b3010 	ldr	r3, [fp, #-16]
30055a30:	e24b2008 	sub	r2, fp, #8	; 0x8
30055a34:	e24bc00c 	sub	ip, fp, #12	; 0xc
30055a38:	e1a00003 	mov	r0, r3
30055a3c:	e1a01002 	mov	r1, r2
30055a40:	e1a0200c 	mov	r2, ip
30055a44:	e3a03000 	mov	r3, #0	; 0x0
30055a48:	ebffff8b 	bl	3005587c <AddrConvert>
30055a4c:	e51b3008 	ldr	r3, [fp, #-8]
30055a50:	e1a00003 	mov	r0, r3
30055a54:	ebfffef3 	bl	30055628 <NandEraseBlock>
30055a58:	e59f0010 	ldr	r0, [pc, #16]	; 30055a70 <NandBlockEraseTest+0x70>
30055a5c:	ebfff946 	bl	30053f7c <print_string>
30055a60:	e24bd004 	sub	sp, fp, #4	; 0x4
30055a64:	e8bd4800 	pop	{fp, lr}
30055a68:	e12fff1e 	bx	lr
30055a6c:	3005c280 	.word	0x3005c280
30055a70:	3005c2ac 	.word	0x3005c2ac

30055a74 <NandPageWriteTest>:
30055a74:	e92d4800 	push	{fp, lr}
30055a78:	e28db004 	add	fp, sp, #4	; 0x4
30055a7c:	e24dde81 	sub	sp, sp, #2064	; 0x810
30055a80:	e24dd008 	sub	sp, sp, #8	; 0x8
30055a84:	e50b0818 	str	r0, [fp, #-2072]
30055a88:	e50b181c 	str	r1, [fp, #-2076]
30055a8c:	e59f00f4 	ldr	r0, [pc, #244]	; 30055b88 <NandPageWriteTest+0x114>
30055a90:	e51b1818 	ldr	r1, [fp, #-2072]
30055a94:	ebfffc8a 	bl	30054cc4 <printf_string>
30055a98:	e59f00ec 	ldr	r0, [pc, #236]	; 30055b8c <NandPageWriteTest+0x118>
30055a9c:	e51b181c 	ldr	r1, [fp, #-2076]
30055aa0:	ebfffc87 	bl	30054cc4 <printf_string>
30055aa4:	e24b3b02 	sub	r3, fp, #2048	; 0x800
30055aa8:	e2433004 	sub	r3, r3, #4	; 0x4
30055aac:	e2433004 	sub	r3, r3, #4	; 0x4
30055ab0:	e3a02b02 	mov	r2, #2048	; 0x800
30055ab4:	e1a00003 	mov	r0, r3
30055ab8:	e3a01000 	mov	r1, #0	; 0x0
30055abc:	ebffee22 	bl	3005134c <memset>
30055ac0:	e3a03000 	mov	r3, #0	; 0x0
30055ac4:	e50b380c 	str	r3, [fp, #-2060]
30055ac8:	e3a03000 	mov	r3, #0	; 0x0
30055acc:	e50b3810 	str	r3, [fp, #-2064]
30055ad0:	e3a03000 	mov	r3, #0	; 0x0
30055ad4:	e50b3008 	str	r3, [fp, #-8]
30055ad8:	e3a03000 	mov	r3, #0	; 0x0
30055adc:	e50b3008 	str	r3, [fp, #-8]
30055ae0:	ea00000b 	b	30055b14 <NandPageWriteTest+0xa0>
30055ae4:	e51b2008 	ldr	r2, [fp, #-8]
30055ae8:	e3e03b02 	mvn	r3, #2048	; 0x800
30055aec:	e2433003 	sub	r3, r3, #3	; 0x3
30055af0:	e1a02102 	lsl	r2, r2, #2
30055af4:	e24b1004 	sub	r1, fp, #4	; 0x4
30055af8:	e0812002 	add	r2, r1, r2
30055afc:	e0822003 	add	r2, r2, r3
30055b00:	e51b381c 	ldr	r3, [fp, #-2076]
30055b04:	e5823000 	str	r3, [r2]
30055b08:	e51b3008 	ldr	r3, [fp, #-8]
30055b0c:	e2833001 	add	r3, r3, #1	; 0x1
30055b10:	e50b3008 	str	r3, [fp, #-8]
30055b14:	e51b2008 	ldr	r2, [fp, #-8]
30055b18:	e3a03f7f 	mov	r3, #508	; 0x1fc
30055b1c:	e2833003 	add	r3, r3, #3	; 0x3
30055b20:	e1520003 	cmp	r2, r3
30055b24:	daffffee 	ble	30055ae4 <NandPageWriteTest+0x70>
30055b28:	e51b1818 	ldr	r1, [fp, #-2072]
30055b2c:	e24b2b02 	sub	r2, fp, #2048	; 0x800
30055b30:	e2422004 	sub	r2, r2, #4	; 0x4
30055b34:	e2422008 	sub	r2, r2, #8	; 0x8
30055b38:	e24b3b02 	sub	r3, fp, #2048	; 0x800
30055b3c:	e2433004 	sub	r3, r3, #4	; 0x4
30055b40:	e243300c 	sub	r3, r3, #12	; 0xc
30055b44:	e1a00001 	mov	r0, r1
30055b48:	e1a01002 	mov	r1, r2
30055b4c:	e1a02003 	mov	r2, r3
30055b50:	e3a03000 	mov	r3, #0	; 0x0
30055b54:	ebffff48 	bl	3005587c <AddrConvert>
30055b58:	e51b280c 	ldr	r2, [fp, #-2060]
30055b5c:	e24b3b02 	sub	r3, fp, #2048	; 0x800
30055b60:	e2433004 	sub	r3, r3, #4	; 0x4
30055b64:	e2433004 	sub	r3, r3, #4	; 0x4
30055b68:	e1a00002 	mov	r0, r2
30055b6c:	e1a01003 	mov	r1, r3
30055b70:	ebfffe02 	bl	30055380 <NandProgramPage>
30055b74:	e59f0014 	ldr	r0, [pc, #20]	; 30055b90 <NandPageWriteTest+0x11c>
30055b78:	ebfff8ff 	bl	30053f7c <print_string>
30055b7c:	e24bd004 	sub	sp, fp, #4	; 0x4
30055b80:	e8bd4800 	pop	{fp, lr}
30055b84:	e12fff1e 	bx	lr
30055b88:	3005c2c8 	.word	0x3005c2c8
30055b8c:	3005c2f4 	.word	0x3005c2f4
30055b90:	3005c314 	.word	0x3005c314

30055b94 <NandPageReadTest>:
30055b94:	e92d4800 	push	{fp, lr}
30055b98:	e28db004 	add	fp, sp, #4	; 0x4
30055b9c:	e24dde81 	sub	sp, sp, #2064	; 0x810
30055ba0:	e50b0810 	str	r0, [fp, #-2064]
30055ba4:	e59f00c4 	ldr	r0, [pc, #196]	; 30055c70 <NandPageReadTest+0xdc>
30055ba8:	e51b1810 	ldr	r1, [fp, #-2064]
30055bac:	ebfffc44 	bl	30054cc4 <printf_string>
30055bb0:	e24b3b02 	sub	r3, fp, #2048	; 0x800
30055bb4:	e2433004 	sub	r3, r3, #4	; 0x4
30055bb8:	e3a02b02 	mov	r2, #2048	; 0x800
30055bbc:	e1a00003 	mov	r0, r3
30055bc0:	e3a01000 	mov	r1, #0	; 0x0
30055bc4:	ebffede0 	bl	3005134c <memset>
30055bc8:	e3a03000 	mov	r3, #0	; 0x0
30055bcc:	e50b3808 	str	r3, [fp, #-2056]
30055bd0:	e3a03000 	mov	r3, #0	; 0x0
30055bd4:	e50b380c 	str	r3, [fp, #-2060]
30055bd8:	e24b3b02 	sub	r3, fp, #2048	; 0x800
30055bdc:	e2433004 	sub	r3, r3, #4	; 0x4
30055be0:	e1a00003 	mov	r0, r3
30055be4:	e3a01000 	mov	r1, #0	; 0x0
30055be8:	e3a02c02 	mov	r2, #512	; 0x200
30055bec:	ebffedd6 	bl	3005134c <memset>
30055bf0:	e51b1810 	ldr	r1, [fp, #-2064]
30055bf4:	e24b2b02 	sub	r2, fp, #2048	; 0x800
30055bf8:	e2422004 	sub	r2, r2, #4	; 0x4
30055bfc:	e2422004 	sub	r2, r2, #4	; 0x4
30055c00:	e24b3b02 	sub	r3, fp, #2048	; 0x800
30055c04:	e2433004 	sub	r3, r3, #4	; 0x4
30055c08:	e2433008 	sub	r3, r3, #8	; 0x8
30055c0c:	e1a00001 	mov	r0, r1
30055c10:	e1a01002 	mov	r1, r2
30055c14:	e1a02003 	mov	r2, r3
30055c18:	e3a03000 	mov	r3, #0	; 0x0
30055c1c:	ebffff16 	bl	3005587c <AddrConvert>
30055c20:	e51b3808 	ldr	r3, [fp, #-2056]
30055c24:	e24b2b02 	sub	r2, fp, #2048	; 0x800
30055c28:	e2422004 	sub	r2, r2, #4	; 0x4
30055c2c:	e1a00003 	mov	r0, r3
30055c30:	e1a01002 	mov	r1, r2
30055c34:	ebfffd20 	bl	300550bc <NandPageRead>
30055c38:	e51b3808 	ldr	r3, [fp, #-2056]
30055c3c:	e59f0030 	ldr	r0, [pc, #48]	; 30055c74 <NandPageReadTest+0xe0>
30055c40:	e1a01003 	mov	r1, r3
30055c44:	ebfffc1e 	bl	30054cc4 <printf_string>
30055c48:	e24b3b02 	sub	r3, fp, #2048	; 0x800
30055c4c:	e2433004 	sub	r3, r3, #4	; 0x4
30055c50:	e1a00003 	mov	r0, r3
30055c54:	e3a01b02 	mov	r1, #2048	; 0x800
30055c58:	ebfffede 	bl	300557d8 <valueDump>
30055c5c:	e59f0014 	ldr	r0, [pc, #20]	; 30055c78 <NandPageReadTest+0xe4>
30055c60:	ebfff8c5 	bl	30053f7c <print_string>
30055c64:	e24bd004 	sub	sp, fp, #4	; 0x4
30055c68:	e8bd4800 	pop	{fp, lr}
30055c6c:	e12fff1e 	bx	lr
30055c70:	3005c330 	.word	0x3005c330
30055c74:	3005c358 	.word	0x3005c358
30055c78:	3005c378 	.word	0x3005c378

30055c7c <NandRandomPageReadTest>:
30055c7c:	e92d4800 	push	{fp, lr}
30055c80:	e28db004 	add	fp, sp, #4	; 0x4
30055c84:	e24dde85 	sub	sp, sp, #2128	; 0x850
30055c88:	e50b0850 	str	r0, [fp, #-2128]
30055c8c:	e50b1854 	str	r1, [fp, #-2132]
30055c90:	e59f00d0 	ldr	r0, [pc, #208]	; 30055d68 <NandRandomPageReadTest+0xec>
30055c94:	e51b1850 	ldr	r1, [fp, #-2128]
30055c98:	ebfffc09 	bl	30054cc4 <printf_string>
30055c9c:	e24b3d21 	sub	r3, fp, #2112	; 0x840
30055ca0:	e2433004 	sub	r3, r3, #4	; 0x4
30055ca4:	e3a02d21 	mov	r2, #2112	; 0x840
30055ca8:	e1a00003 	mov	r0, r3
30055cac:	e3a01000 	mov	r1, #0	; 0x0
30055cb0:	ebffeda5 	bl	3005134c <memset>
30055cb4:	e3a03000 	mov	r3, #0	; 0x0
30055cb8:	e50b3848 	str	r3, [fp, #-2120]
30055cbc:	e3a03000 	mov	r3, #0	; 0x0
30055cc0:	e50b384c 	str	r3, [fp, #-2124]
30055cc4:	e24b3d21 	sub	r3, fp, #2112	; 0x840
30055cc8:	e2433004 	sub	r3, r3, #4	; 0x4
30055ccc:	e1a00003 	mov	r0, r3
30055cd0:	e3a01000 	mov	r1, #0	; 0x0
30055cd4:	e3a02e21 	mov	r2, #528	; 0x210
30055cd8:	ebffed9b 	bl	3005134c <memset>
30055cdc:	e51b1850 	ldr	r1, [fp, #-2128]
30055ce0:	e24b2d21 	sub	r2, fp, #2112	; 0x840
30055ce4:	e2422004 	sub	r2, r2, #4	; 0x4
30055ce8:	e2422004 	sub	r2, r2, #4	; 0x4
30055cec:	e24b3d21 	sub	r3, fp, #2112	; 0x840
30055cf0:	e2433004 	sub	r3, r3, #4	; 0x4
30055cf4:	e2433008 	sub	r3, r3, #8	; 0x8
30055cf8:	e1a00001 	mov	r0, r1
30055cfc:	e1a01002 	mov	r1, r2
30055d00:	e1a02003 	mov	r2, r3
30055d04:	e3a03001 	mov	r3, #1	; 0x1
30055d08:	ebfffedb 	bl	3005587c <AddrConvert>
30055d0c:	e51b2848 	ldr	r2, [fp, #-2120]
30055d10:	e51b184c 	ldr	r1, [fp, #-2124]
30055d14:	e51bc854 	ldr	ip, [fp, #-2132]
30055d18:	e24b3d21 	sub	r3, fp, #2112	; 0x840
30055d1c:	e2433004 	sub	r3, r3, #4	; 0x4
30055d20:	e1a00002 	mov	r0, r2
30055d24:	e1a02003 	mov	r2, r3
30055d28:	e1a0300c 	mov	r3, ip
30055d2c:	ebfffd1f 	bl	300551b0 <NandRandomPageRead>
30055d30:	e51b3848 	ldr	r3, [fp, #-2120]
30055d34:	e59f0030 	ldr	r0, [pc, #48]	; 30055d6c <NandRandomPageReadTest+0xf0>
30055d38:	e1a01003 	mov	r1, r3
30055d3c:	ebfffbe0 	bl	30054cc4 <printf_string>
30055d40:	e24b3d21 	sub	r3, fp, #2112	; 0x840
30055d44:	e2433004 	sub	r3, r3, #4	; 0x4
30055d48:	e1a00003 	mov	r0, r3
30055d4c:	e51b1854 	ldr	r1, [fp, #-2132]
30055d50:	ebfffea0 	bl	300557d8 <valueDump>
30055d54:	e59f0014 	ldr	r0, [pc, #20]	; 30055d70 <NandRandomPageReadTest+0xf4>
30055d58:	ebfff887 	bl	30053f7c <print_string>
30055d5c:	e24bd004 	sub	sp, fp, #4	; 0x4
30055d60:	e8bd4800 	pop	{fp, lr}
30055d64:	e12fff1e 	bx	lr
30055d68:	3005c390 	.word	0x3005c390
30055d6c:	3005c3c0 	.word	0x3005c3c0
30055d70:	3005c3e0 	.word	0x3005c3e0

30055d74 <NandRandomPageProgramTest>:
30055d74:	e92d4800 	push	{fp, lr}
30055d78:	e28db004 	add	fp, sp, #4	; 0x4
30055d7c:	e24dd010 	sub	sp, sp, #16	; 0x10
30055d80:	e50b0010 	str	r0, [fp, #-16]
30055d84:	e50b1014 	str	r1, [fp, #-20]
30055d88:	e59f0068 	ldr	r0, [pc, #104]	; 30055df8 <NandRandomPageProgramTest+0x84>
30055d8c:	e51b1010 	ldr	r1, [fp, #-16]
30055d90:	ebfffbcb 	bl	30054cc4 <printf_string>
30055d94:	e3a03000 	mov	r3, #0	; 0x0
30055d98:	e50b3008 	str	r3, [fp, #-8]
30055d9c:	e3a03000 	mov	r3, #0	; 0x0
30055da0:	e50b300c 	str	r3, [fp, #-12]
30055da4:	e51b3010 	ldr	r3, [fp, #-16]
30055da8:	e24b2008 	sub	r2, fp, #8	; 0x8
30055dac:	e24bc00c 	sub	ip, fp, #12	; 0xc
30055db0:	e1a00003 	mov	r0, r3
30055db4:	e1a01002 	mov	r1, r2
30055db8:	e1a0200c 	mov	r2, ip
30055dbc:	e3a03001 	mov	r3, #1	; 0x1
30055dc0:	ebfffead 	bl	3005587c <AddrConvert>
30055dc4:	e51b3008 	ldr	r3, [fp, #-8]
30055dc8:	e51b200c 	ldr	r2, [fp, #-12]
30055dcc:	e24bc014 	sub	ip, fp, #20	; 0x14
30055dd0:	e1a00003 	mov	r0, r3
30055dd4:	e1a01002 	mov	r1, r2
30055dd8:	e1a0200c 	mov	r2, ip
30055ddc:	e3a03001 	mov	r3, #1	; 0x1
30055de0:	ebfffda5 	bl	3005547c <NandRandomPageProgram>
30055de4:	e59f0010 	ldr	r0, [pc, #16]	; 30055dfc <NandRandomPageProgramTest+0x88>
30055de8:	ebfff863 	bl	30053f7c <print_string>
30055dec:	e24bd004 	sub	sp, fp, #4	; 0x4
30055df0:	e8bd4800 	pop	{fp, lr}
30055df4:	e12fff1e 	bx	lr
30055df8:	3005c400 	.word	0x3005c400
30055dfc:	3005c434 	.word	0x3005c434

30055e00 <BadBlockCheck>:
30055e00:	e92d4800 	push	{fp, lr}
30055e04:	e28db004 	add	fp, sp, #4	; 0x4
30055e08:	e24ddf6a 	sub	sp, sp, #424	; 0x1a8
30055e0c:	e3a03000 	mov	r3, #0	; 0x0
30055e10:	e50b3010 	str	r3, [fp, #-16]
30055e14:	e3a03000 	mov	r3, #0	; 0x0
30055e18:	e50b300c 	str	r3, [fp, #-12]
30055e1c:	e3a03000 	mov	r3, #0	; 0x0
30055e20:	e50b3014 	str	r3, [fp, #-20]
30055e24:	e3a03000 	mov	r3, #0	; 0x0
30055e28:	e50b3018 	str	r3, [fp, #-24]
30055e2c:	e24b3f6a 	sub	r3, fp, #424	; 0x1a8
30055e30:	e3a02e19 	mov	r2, #400	; 0x190
30055e34:	e1a00003 	mov	r0, r3
30055e38:	e3a01000 	mov	r1, #0	; 0x0
30055e3c:	ebffed42 	bl	3005134c <memset>
30055e40:	e3a03000 	mov	r3, #0	; 0x0
30055e44:	e50b3008 	str	r3, [fp, #-8]
30055e48:	e3a03000 	mov	r3, #0	; 0x0
30055e4c:	e50b3010 	str	r3, [fp, #-16]
30055e50:	ea000037 	b	30055f34 <BadBlockCheck+0x134>
30055e54:	e51b3010 	ldr	r3, [fp, #-16]
30055e58:	e1a03303 	lsl	r3, r3, #6
30055e5c:	e1a00003 	mov	r0, r3
30055e60:	ebfffdf0 	bl	30055628 <NandEraseBlock>
30055e64:	e51b3010 	ldr	r3, [fp, #-16]
30055e68:	e1a03303 	lsl	r3, r3, #6
30055e6c:	e24b2014 	sub	r2, fp, #20	; 0x14
30055e70:	e1a00003 	mov	r0, r3
30055e74:	e3a01b02 	mov	r1, #2048	; 0x800
30055e78:	e3a03001 	mov	r3, #1	; 0x1
30055e7c:	ebfffccb 	bl	300551b0 <NandRandomPageRead>
30055e80:	e51b3010 	ldr	r3, [fp, #-16]
30055e84:	e1a03303 	lsl	r3, r3, #6
30055e88:	e24b2018 	sub	r2, fp, #24	; 0x18
30055e8c:	e1a00003 	mov	r0, r3
30055e90:	e3a01b02 	mov	r1, #2048	; 0x800
30055e94:	e2811001 	add	r1, r1, #1	; 0x1
30055e98:	e3a03001 	mov	r3, #1	; 0x1
30055e9c:	ebfffcc3 	bl	300551b0 <NandRandomPageRead>
30055ea0:	e59f0110 	ldr	r0, [pc, #272]	; 30055fb8 <BadBlockCheck+0x1b8>
30055ea4:	e51b1010 	ldr	r1, [fp, #-16]
30055ea8:	ebfffb85 	bl	30054cc4 <printf_string>
30055eac:	e51b3014 	ldr	r3, [fp, #-20]
30055eb0:	e59f0104 	ldr	r0, [pc, #260]	; 30055fbc <BadBlockCheck+0x1bc>
30055eb4:	e1a01003 	mov	r1, r3
30055eb8:	ebfffb81 	bl	30054cc4 <printf_string>
30055ebc:	e51b3018 	ldr	r3, [fp, #-24]
30055ec0:	e59f00f8 	ldr	r0, [pc, #248]	; 30055fc0 <BadBlockCheck+0x1c0>
30055ec4:	e1a01003 	mov	r1, r3
30055ec8:	ebfffb7d 	bl	30054cc4 <printf_string>
30055ecc:	e51b3014 	ldr	r3, [fp, #-20]
30055ed0:	e20330ff 	and	r3, r3, #255	; 0xff
30055ed4:	e35300ff 	cmp	r3, #255	; 0xff
30055ed8:	1a000003 	bne	30055eec <BadBlockCheck+0xec>
30055edc:	e51b3018 	ldr	r3, [fp, #-24]
30055ee0:	e20330ff 	and	r3, r3, #255	; 0xff
30055ee4:	e35300ff 	cmp	r3, #255	; 0xff
30055ee8:	0a00000b 	beq	30055f1c <BadBlockCheck+0x11c>
30055eec:	e51b2008 	ldr	r2, [fp, #-8]
30055ef0:	e3a03497 	mov	r3, #-1761607680	; 0x97000000
30055ef4:	e1a03b43 	asr	r3, r3, #22
30055ef8:	e1a02102 	lsl	r2, r2, #2
30055efc:	e24b1004 	sub	r1, fp, #4	; 0x4
30055f00:	e0812002 	add	r2, r1, r2
30055f04:	e0822003 	add	r2, r2, r3
30055f08:	e51b3010 	ldr	r3, [fp, #-16]
30055f0c:	e5823000 	str	r3, [r2]
30055f10:	e51b3008 	ldr	r3, [fp, #-8]
30055f14:	e2833001 	add	r3, r3, #1	; 0x1
30055f18:	e50b3008 	str	r3, [fp, #-8]
30055f1c:	e51b3008 	ldr	r3, [fp, #-8]
30055f20:	e3530063 	cmp	r3, #99	; 0x63
30055f24:	8a000007 	bhi	30055f48 <BadBlockCheck+0x148>
30055f28:	e51b3010 	ldr	r3, [fp, #-16]
30055f2c:	e2833001 	add	r3, r3, #1	; 0x1
30055f30:	e50b3010 	str	r3, [fp, #-16]
30055f34:	e51b2010 	ldr	r2, [fp, #-16]
30055f38:	e3a03e7f 	mov	r3, #2032	; 0x7f0
30055f3c:	e283300f 	add	r3, r3, #15	; 0xf
30055f40:	e1520003 	cmp	r2, r3
30055f44:	9affffc2 	bls	30055e54 <BadBlockCheck+0x54>
30055f48:	e59f0074 	ldr	r0, [pc, #116]	; 30055fc4 <BadBlockCheck+0x1c4>
30055f4c:	ebfff80a 	bl	30053f7c <print_string>
30055f50:	e3a03000 	mov	r3, #0	; 0x0
30055f54:	e50b3010 	str	r3, [fp, #-16]
30055f58:	ea00000d 	b	30055f94 <BadBlockCheck+0x194>
30055f5c:	e51b2010 	ldr	r2, [fp, #-16]
30055f60:	e3a03497 	mov	r3, #-1761607680	; 0x97000000
30055f64:	e1a03b43 	asr	r3, r3, #22
30055f68:	e1a02102 	lsl	r2, r2, #2
30055f6c:	e24b1004 	sub	r1, fp, #4	; 0x4
30055f70:	e0812002 	add	r2, r1, r2
30055f74:	e0823003 	add	r3, r2, r3
30055f78:	e5933000 	ldr	r3, [r3]
30055f7c:	e59f0044 	ldr	r0, [pc, #68]	; 30055fc8 <BadBlockCheck+0x1c8>
30055f80:	e1a01003 	mov	r1, r3
30055f84:	ebfffb4e 	bl	30054cc4 <printf_string>
30055f88:	e51b3010 	ldr	r3, [fp, #-16]
30055f8c:	e2833001 	add	r3, r3, #1	; 0x1
30055f90:	e50b3010 	str	r3, [fp, #-16]
30055f94:	e51b2010 	ldr	r2, [fp, #-16]
30055f98:	e51b3008 	ldr	r3, [fp, #-8]
30055f9c:	e1520003 	cmp	r2, r3
30055fa0:	3affffed 	bcc	30055f5c <BadBlockCheck+0x15c>
30055fa4:	e59f0020 	ldr	r0, [pc, #32]	; 30055fcc <BadBlockCheck+0x1cc>
30055fa8:	ebfff7f3 	bl	30053f7c <print_string>
30055fac:	e24bd004 	sub	sp, fp, #4	; 0x4
30055fb0:	e8bd4800 	pop	{fp, lr}
30055fb4:	e12fff1e 	bx	lr
30055fb8:	3005c458 	.word	0x3005c458
30055fbc:	3005c46c 	.word	0x3005c46c
30055fc0:	3005c480 	.word	0x3005c480
30055fc4:	3005c494 	.word	0x3005c494
30055fc8:	3005c4a0 	.word	0x3005c4a0
30055fcc:	3005c264 	.word	0x3005c264

30055fd0 <CopyNandToRam>:
30055fd0:	e92d4800 	push	{fp, lr}
30055fd4:	e28db004 	add	fp, sp, #4	; 0x4
30055fd8:	e24dd020 	sub	sp, sp, #32	; 0x20
30055fdc:	e50b0018 	str	r0, [fp, #-24]
30055fe0:	e50b101c 	str	r1, [fp, #-28]
30055fe4:	e50b2020 	str	r2, [fp, #-32]
30055fe8:	e3a03000 	mov	r3, #0	; 0x0
30055fec:	e50b3010 	str	r3, [fp, #-16]
30055ff0:	e3a03000 	mov	r3, #0	; 0x0
30055ff4:	e50b3014 	str	r3, [fp, #-20]
30055ff8:	e3a03000 	mov	r3, #0	; 0x0
30055ffc:	e50b300c 	str	r3, [fp, #-12]
30056000:	e51b3020 	ldr	r3, [fp, #-32]
30056004:	e1a02003 	mov	r2, r3
30056008:	e2823e7f 	add	r3, r2, #2032	; 0x7f0
3005600c:	e283300f 	add	r3, r3, #15	; 0xf
30056010:	e3520000 	cmp	r2, #0	; 0x0
30056014:	b1a02003 	movlt	r2, r3
30056018:	e1a035c2 	asr	r3, r2, #11
3005601c:	e2833001 	add	r3, r3, #1	; 0x1
30056020:	e50b3008 	str	r3, [fp, #-8]
30056024:	e51b3018 	ldr	r3, [fp, #-24]
30056028:	e24b2010 	sub	r2, fp, #16	; 0x10
3005602c:	e24bc014 	sub	ip, fp, #20	; 0x14
30056030:	e1a00003 	mov	r0, r3
30056034:	e1a01002 	mov	r1, r2
30056038:	e1a0200c 	mov	r2, ip
3005603c:	e3a03000 	mov	r3, #0	; 0x0
30056040:	ebfffe0d 	bl	3005587c <AddrConvert>
30056044:	e3a03000 	mov	r3, #0	; 0x0
30056048:	e50b300c 	str	r3, [fp, #-12]
3005604c:	ea00000c 	b	30056084 <CopyNandToRam+0xb4>
30056050:	e51b2010 	ldr	r2, [fp, #-16]
30056054:	e51b300c 	ldr	r3, [fp, #-12]
30056058:	e0821003 	add	r1, r2, r3
3005605c:	e51b201c 	ldr	r2, [fp, #-28]
30056060:	e51b300c 	ldr	r3, [fp, #-12]
30056064:	e1a03583 	lsl	r3, r3, #11
30056068:	e0823003 	add	r3, r2, r3
3005606c:	e1a00001 	mov	r0, r1
30056070:	e1a01003 	mov	r1, r3
30056074:	ebfffc10 	bl	300550bc <NandPageRead>
30056078:	e51b300c 	ldr	r3, [fp, #-12]
3005607c:	e2833001 	add	r3, r3, #1	; 0x1
30056080:	e50b300c 	str	r3, [fp, #-12]
30056084:	e51b200c 	ldr	r2, [fp, #-12]
30056088:	e51b3008 	ldr	r3, [fp, #-8]
3005608c:	e1520003 	cmp	r2, r3
30056090:	3affffee 	bcc	30056050 <CopyNandToRam+0x80>
30056094:	e24bd004 	sub	sp, fp, #4	; 0x4
30056098:	e8bd4800 	pop	{fp, lr}
3005609c:	e12fff1e 	bx	lr

300560a0 <NandTest>:
300560a0:	e92d4800 	push	{fp, lr}
300560a4:	e28db004 	add	fp, sp, #4	; 0x4
300560a8:	e24dd020 	sub	sp, sp, #32	; 0x20
300560ac:	e50b0020 	str	r0, [fp, #-32]
300560b0:	e50b1024 	str	r1, [fp, #-36]
300560b4:	e3a03000 	mov	r3, #0	; 0x0
300560b8:	e50b301c 	str	r3, [fp, #-28]
300560bc:	e3a03000 	mov	r3, #0	; 0x0
300560c0:	e54b3015 	strb	r3, [fp, #-21]
300560c4:	e3a03000 	mov	r3, #0	; 0x0
300560c8:	e50b3014 	str	r3, [fp, #-20]
300560cc:	e3a03000 	mov	r3, #0	; 0x0
300560d0:	e50b3010 	str	r3, [fp, #-16]
300560d4:	e3a03000 	mov	r3, #0	; 0x0
300560d8:	e50b300c 	str	r3, [fp, #-12]
300560dc:	e3a03000 	mov	r3, #0	; 0x0
300560e0:	e50b3008 	str	r3, [fp, #-8]
300560e4:	e59f03c0 	ldr	r0, [pc, #960]	; 300564ac <NandTest+0x40c>
300560e8:	e51b1020 	ldr	r1, [fp, #-32]
300560ec:	ebfffaf4 	bl	30054cc4 <printf_string>
300560f0:	e3a03000 	mov	r3, #0	; 0x0
300560f4:	e50b3014 	str	r3, [fp, #-20]
300560f8:	ea00000c 	b	30056130 <NandTest+0x90>
300560fc:	e51b1024 	ldr	r1, [fp, #-36]
30056100:	e51b3014 	ldr	r3, [fp, #-20]
30056104:	e1a02083 	lsl	r2, r3, #1
30056108:	e1a03102 	lsl	r3, r2, #2
3005610c:	e0823003 	add	r3, r2, r3
30056110:	e0813003 	add	r3, r1, r3
30056114:	e59f0394 	ldr	r0, [pc, #916]	; 300564b0 <NandTest+0x410>
30056118:	e51b1014 	ldr	r1, [fp, #-20]
3005611c:	e1a02003 	mov	r2, r3
30056120:	ebfffae7 	bl	30054cc4 <printf_string>
30056124:	e51b3014 	ldr	r3, [fp, #-20]
30056128:	e2833001 	add	r3, r3, #1	; 0x1
3005612c:	e50b3014 	str	r3, [fp, #-20]
30056130:	e51b2014 	ldr	r2, [fp, #-20]
30056134:	e51b3020 	ldr	r3, [fp, #-32]
30056138:	e1520003 	cmp	r2, r3
3005613c:	baffffee 	blt	300560fc <NandTest+0x5c>
30056140:	ebfffd8c 	bl	30055778 <NandControllerInit>
30056144:	ebffeddc 	bl	300518bc <GetoptInit>
30056148:	ea0000c7 	b	3005646c <NandTest+0x3cc>
3005614c:	e55b3015 	ldrb	r3, [fp, #-21]
30056150:	e2433061 	sub	r3, r3, #97	; 0x61
30056154:	e3530013 	cmp	r3, #19	; 0x13
30056158:	979ff103 	ldrls	pc, [pc, r3, lsl #2]
3005615c:	ea0000c0 	b	30056464 <NandTest+0x3c4>
30056160:	300563a4 	.word	0x300563a4
30056164:	30056464 	.word	0x30056464
30056168:	3005639c 	.word	0x3005639c
3005616c:	30056464 	.word	0x30056464
30056170:	300561b0 	.word	0x300561b0
30056174:	30056464 	.word	0x30056464
30056178:	30056464 	.word	0x30056464
3005617c:	30056464 	.word	0x30056464
30056180:	300562f8 	.word	0x300562f8
30056184:	30056464 	.word	0x30056464
30056188:	30056464 	.word	0x30056464
3005618c:	30056464 	.word	0x30056464
30056190:	30056464 	.word	0x30056464
30056194:	30056464 	.word	0x30056464
30056198:	30056464 	.word	0x30056464
3005619c:	300561e8 	.word	0x300561e8
300561a0:	30056464 	.word	0x30056464
300561a4:	300562a8 	.word	0x300562a8
300561a8:	30056464 	.word	0x30056464
300561ac:	30056300 	.word	0x30056300
300561b0:	e51b1024 	ldr	r1, [fp, #-36]
300561b4:	e59f32f8 	ldr	r3, [pc, #760]	; 300564b4 <NandTest+0x414>
300561b8:	e5933000 	ldr	r3, [r3]
300561bc:	e1a02083 	lsl	r2, r3, #1
300561c0:	e1a03102 	lsl	r3, r2, #2
300561c4:	e0823003 	add	r3, r2, r3
300561c8:	e0813003 	add	r3, r1, r3
300561cc:	e1a00003 	mov	r0, r3
300561d0:	ebffed09 	bl	300515fc <hex_string_to_int>
300561d4:	e1a03000 	mov	r3, r0
300561d8:	e50b3010 	str	r3, [fp, #-16]
300561dc:	e51b0010 	ldr	r0, [fp, #-16]
300561e0:	ebfffe06 	bl	30055a00 <NandBlockEraseTest>
300561e4:	ea0000a0 	b	3005646c <NandTest+0x3cc>
300561e8:	e59f32c4 	ldr	r3, [pc, #708]	; 300564b4 <NandTest+0x414>
300561ec:	e5932000 	ldr	r2, [r3]
300561f0:	e51b3020 	ldr	r3, [fp, #-32]
300561f4:	e0623003 	rsb	r3, r2, r3
300561f8:	e3530000 	cmp	r3, #0	; 0x0
300561fc:	da00009a 	ble	3005646c <NandTest+0x3cc>
30056200:	e51b1024 	ldr	r1, [fp, #-36]
30056204:	e59f32a8 	ldr	r3, [pc, #680]	; 300564b4 <NandTest+0x414>
30056208:	e5933000 	ldr	r3, [r3]
3005620c:	e1a02083 	lsl	r2, r3, #1
30056210:	e1a03102 	lsl	r3, r2, #2
30056214:	e0823003 	add	r3, r2, r3
30056218:	e0813003 	add	r3, r1, r3
3005621c:	e1a00003 	mov	r0, r3
30056220:	ebffecf5 	bl	300515fc <hex_string_to_int>
30056224:	e1a03000 	mov	r3, r0
30056228:	e50b3010 	str	r3, [fp, #-16]
3005622c:	e59f3280 	ldr	r3, [pc, #640]	; 300564b4 <NandTest+0x414>
30056230:	e5933000 	ldr	r3, [r3]
30056234:	e2833001 	add	r3, r3, #1	; 0x1
30056238:	e1a02083 	lsl	r2, r3, #1
3005623c:	e1a03102 	lsl	r3, r2, #2
30056240:	e0822003 	add	r2, r2, r3
30056244:	e51b3024 	ldr	r3, [fp, #-36]
30056248:	e0833002 	add	r3, r3, r2
3005624c:	e59f0264 	ldr	r0, [pc, #612]	; 300564b8 <NandTest+0x418>
30056250:	e1a01003 	mov	r1, r3
30056254:	ebfffa9a 	bl	30054cc4 <printf_string>
30056258:	e59f3254 	ldr	r3, [pc, #596]	; 300564b4 <NandTest+0x414>
3005625c:	e5933000 	ldr	r3, [r3]
30056260:	e2833001 	add	r3, r3, #1	; 0x1
30056264:	e1a02083 	lsl	r2, r3, #1
30056268:	e1a03102 	lsl	r3, r2, #2
3005626c:	e0822003 	add	r2, r2, r3
30056270:	e51b3024 	ldr	r3, [fp, #-36]
30056274:	e0833002 	add	r3, r3, r2
30056278:	e1a00003 	mov	r0, r3
3005627c:	ebffecde 	bl	300515fc <hex_string_to_int>
30056280:	e1a03000 	mov	r3, r0
30056284:	e50b3008 	str	r3, [fp, #-8]
30056288:	e59f022c 	ldr	r0, [pc, #556]	; 300564bc <NandTest+0x41c>
3005628c:	e51b1008 	ldr	r1, [fp, #-8]
30056290:	ebfffa8b 	bl	30054cc4 <printf_string>
30056294:	e51b3008 	ldr	r3, [fp, #-8]
30056298:	e51b0010 	ldr	r0, [fp, #-16]
3005629c:	e1a01003 	mov	r1, r3
300562a0:	ebfffdf3 	bl	30055a74 <NandPageWriteTest>
300562a4:	ea000070 	b	3005646c <NandTest+0x3cc>
300562a8:	e59f3204 	ldr	r3, [pc, #516]	; 300564b4 <NandTest+0x414>
300562ac:	e5932000 	ldr	r2, [r3]
300562b0:	e51b3020 	ldr	r3, [fp, #-32]
300562b4:	e0623003 	rsb	r3, r2, r3
300562b8:	e3530000 	cmp	r3, #0	; 0x0
300562bc:	ba00006a 	blt	3005646c <NandTest+0x3cc>
300562c0:	e51b1024 	ldr	r1, [fp, #-36]
300562c4:	e59f31e8 	ldr	r3, [pc, #488]	; 300564b4 <NandTest+0x414>
300562c8:	e5933000 	ldr	r3, [r3]
300562cc:	e1a02083 	lsl	r2, r3, #1
300562d0:	e1a03102 	lsl	r3, r2, #2
300562d4:	e0823003 	add	r3, r2, r3
300562d8:	e0813003 	add	r3, r1, r3
300562dc:	e1a00003 	mov	r0, r3
300562e0:	ebffecc5 	bl	300515fc <hex_string_to_int>
300562e4:	e1a03000 	mov	r3, r0
300562e8:	e50b3010 	str	r3, [fp, #-16]
300562ec:	e51b0010 	ldr	r0, [fp, #-16]
300562f0:	ebfffe27 	bl	30055b94 <NandPageReadTest>
300562f4:	ea00005c 	b	3005646c <NandTest+0x3cc>
300562f8:	ebfffd94 	bl	30055950 <NandReadChipId>
300562fc:	ea00005a 	b	3005646c <NandTest+0x3cc>
30056300:	e59f31ac 	ldr	r3, [pc, #428]	; 300564b4 <NandTest+0x414>
30056304:	e5932000 	ldr	r2, [r3]
30056308:	e51b3020 	ldr	r3, [fp, #-32]
3005630c:	e0623003 	rsb	r3, r2, r3
30056310:	e3530000 	cmp	r3, #0	; 0x0
30056314:	da000054 	ble	3005646c <NandTest+0x3cc>
30056318:	e51b1024 	ldr	r1, [fp, #-36]
3005631c:	e59f3190 	ldr	r3, [pc, #400]	; 300564b4 <NandTest+0x414>
30056320:	e5933000 	ldr	r3, [r3]
30056324:	e1a02083 	lsl	r2, r3, #1
30056328:	e1a03102 	lsl	r3, r2, #2
3005632c:	e0823003 	add	r3, r2, r3
30056330:	e0813003 	add	r3, r1, r3
30056334:	e1a00003 	mov	r0, r3
30056338:	ebffecaf 	bl	300515fc <hex_string_to_int>
3005633c:	e1a03000 	mov	r3, r0
30056340:	e50b3010 	str	r3, [fp, #-16]
30056344:	e59f0174 	ldr	r0, [pc, #372]	; 300564c0 <NandTest+0x420>
30056348:	e51b1010 	ldr	r1, [fp, #-16]
3005634c:	ebfffa5c 	bl	30054cc4 <printf_string>
30056350:	e59f315c 	ldr	r3, [pc, #348]	; 300564b4 <NandTest+0x414>
30056354:	e5933000 	ldr	r3, [r3]
30056358:	e2833001 	add	r3, r3, #1	; 0x1
3005635c:	e1a02083 	lsl	r2, r3, #1
30056360:	e1a03102 	lsl	r3, r2, #2
30056364:	e0822003 	add	r2, r2, r3
30056368:	e51b3024 	ldr	r3, [fp, #-36]
3005636c:	e0833002 	add	r3, r3, r2
30056370:	e1a00003 	mov	r0, r3
30056374:	ebffeca0 	bl	300515fc <hex_string_to_int>
30056378:	e1a03000 	mov	r3, r0
3005637c:	e50b300c 	str	r3, [fp, #-12]
30056380:	e59f013c 	ldr	r0, [pc, #316]	; 300564c4 <NandTest+0x424>
30056384:	e51b100c 	ldr	r1, [fp, #-12]
30056388:	ebfffa4d 	bl	30054cc4 <printf_string>
3005638c:	e51b0010 	ldr	r0, [fp, #-16]
30056390:	e51b100c 	ldr	r1, [fp, #-12]
30056394:	ebfffe38 	bl	30055c7c <NandRandomPageReadTest>
30056398:	ea000033 	b	3005646c <NandTest+0x3cc>
3005639c:	ebfffe97 	bl	30055e00 <BadBlockCheck>
300563a0:	ea000031 	b	3005646c <NandTest+0x3cc>
300563a4:	e59f3108 	ldr	r3, [pc, #264]	; 300564b4 <NandTest+0x414>
300563a8:	e5932000 	ldr	r2, [r3]
300563ac:	e51b3020 	ldr	r3, [fp, #-32]
300563b0:	e0623003 	rsb	r3, r2, r3
300563b4:	e3530000 	cmp	r3, #0	; 0x0
300563b8:	da00002b 	ble	3005646c <NandTest+0x3cc>
300563bc:	e51b1024 	ldr	r1, [fp, #-36]
300563c0:	e59f30ec 	ldr	r3, [pc, #236]	; 300564b4 <NandTest+0x414>
300563c4:	e5933000 	ldr	r3, [r3]
300563c8:	e1a02083 	lsl	r2, r3, #1
300563cc:	e1a03102 	lsl	r3, r2, #2
300563d0:	e0823003 	add	r3, r2, r3
300563d4:	e0813003 	add	r3, r1, r3
300563d8:	e1a00003 	mov	r0, r3
300563dc:	ebffec86 	bl	300515fc <hex_string_to_int>
300563e0:	e1a03000 	mov	r3, r0
300563e4:	e50b3010 	str	r3, [fp, #-16]
300563e8:	e59f30c4 	ldr	r3, [pc, #196]	; 300564b4 <NandTest+0x414>
300563ec:	e5933000 	ldr	r3, [r3]
300563f0:	e2833001 	add	r3, r3, #1	; 0x1
300563f4:	e1a02083 	lsl	r2, r3, #1
300563f8:	e1a03102 	lsl	r3, r2, #2
300563fc:	e0822003 	add	r2, r2, r3
30056400:	e51b3024 	ldr	r3, [fp, #-36]
30056404:	e0833002 	add	r3, r3, r2
30056408:	e59f00a8 	ldr	r0, [pc, #168]	; 300564b8 <NandTest+0x418>
3005640c:	e1a01003 	mov	r1, r3
30056410:	ebfffa2b 	bl	30054cc4 <printf_string>
30056414:	e59f3098 	ldr	r3, [pc, #152]	; 300564b4 <NandTest+0x414>
30056418:	e5933000 	ldr	r3, [r3]
3005641c:	e2833001 	add	r3, r3, #1	; 0x1
30056420:	e1a02083 	lsl	r2, r3, #1
30056424:	e1a03102 	lsl	r3, r2, #2
30056428:	e0822003 	add	r2, r2, r3
3005642c:	e51b3024 	ldr	r3, [fp, #-36]
30056430:	e0833002 	add	r3, r3, r2
30056434:	e1a00003 	mov	r0, r3
30056438:	ebffec6f 	bl	300515fc <hex_string_to_int>
3005643c:	e1a03000 	mov	r3, r0
30056440:	e50b3008 	str	r3, [fp, #-8]
30056444:	e59f007c 	ldr	r0, [pc, #124]	; 300564c8 <NandTest+0x428>
30056448:	e51b1008 	ldr	r1, [fp, #-8]
3005644c:	ebfffa1c 	bl	30054cc4 <printf_string>
30056450:	e51b3008 	ldr	r3, [fp, #-8]
30056454:	e51b0010 	ldr	r0, [fp, #-16]
30056458:	e1a01003 	mov	r1, r3
3005645c:	ebfffe44 	bl	30055d74 <NandRandomPageProgramTest>
30056460:	ea000001 	b	3005646c <NandTest+0x3cc>
30056464:	e59f0060 	ldr	r0, [pc, #96]	; 300564cc <NandTest+0x42c>
30056468:	ebfffa15 	bl	30054cc4 <printf_string>
3005646c:	e51b0020 	ldr	r0, [fp, #-32]
30056470:	e51b1024 	ldr	r1, [fp, #-36]
30056474:	e59f2054 	ldr	r2, [pc, #84]	; 300564d0 <NandTest+0x430>
30056478:	ebffed18 	bl	300518e0 <Getopt>
3005647c:	e1a03000 	mov	r3, r0
30056480:	e54b3015 	strb	r3, [fp, #-21]
30056484:	e55b3015 	ldrb	r3, [fp, #-21]
30056488:	e3530000 	cmp	r3, #0	; 0x0
3005648c:	1affff2e 	bne	3005614c <NandTest+0xac>
30056490:	e59f003c 	ldr	r0, [pc, #60]	; 300564d4 <NandTest+0x434>
30056494:	ebfff6b8 	bl	30053f7c <print_string>
30056498:	e51b301c 	ldr	r3, [fp, #-28]
3005649c:	e1a00003 	mov	r0, r3
300564a0:	e24bd004 	sub	sp, fp, #4	; 0x4
300564a4:	e8bd4800 	pop	{fp, lr}
300564a8:	e12fff1e 	bx	lr
300564ac:	3005c4a8 	.word	0x3005c4a8
300564b0:	3005c4b8 	.word	0x3005c4b8
300564b4:	3006466c 	.word	0x3006466c
300564b8:	3005c4c8 	.word	0x3005c4c8
300564bc:	3005c4e4 	.word	0x3005c4e4
300564c0:	3005c500 	.word	0x3005c500
300564c4:	3005c518 	.word	0x3005c518
300564c8:	3005c52c 	.word	0x3005c52c
300564cc:	3005c548 	.word	0x3005c548
300564d0:	3005c55c 	.word	0x3005c55c
300564d4:	3005c564 	.word	0x3005c564

300564d8 <lcd_port_init>:
300564d8:	e52db004 	push	{fp}		; (str fp, [sp, #-4]!)
300564dc:	e28db000 	add	fp, sp, #0	; 0x0
300564e0:	e3a03456 	mov	r3, #1442840576	; 0x56000000
300564e4:	e2833028 	add	r3, r3, #40	; 0x28
300564e8:	e3e02000 	mvn	r2, #0	; 0x0
300564ec:	e5832000 	str	r2, [r3]
300564f0:	e3a02456 	mov	r2, #1442840576	; 0x56000000
300564f4:	e2822020 	add	r2, r2, #32	; 0x20
300564f8:	e3a034aa 	mov	r3, #-1442840576	; 0xaa000000
300564fc:	e28338aa 	add	r3, r3, #11141120	; 0xaa0000
30056500:	e2833faa 	add	r3, r3, #680	; 0x2a8
30056504:	e5823000 	str	r3, [r2]
30056508:	e3a03456 	mov	r3, #1442840576	; 0x56000000
3005650c:	e2833038 	add	r3, r3, #56	; 0x38
30056510:	e3e02000 	mvn	r2, #0	; 0x0
30056514:	e5832000 	str	r2, [r3]
30056518:	e3a02456 	mov	r2, #1442840576	; 0x56000000
3005651c:	e2822030 	add	r2, r2, #48	; 0x30
30056520:	e3a03caa 	mov	r3, #43520	; 0xaa00
30056524:	e28330aa 	add	r3, r3, #170	; 0xaa
30056528:	e1833803 	orr	r3, r3, r3, lsl #16
3005652c:	e5823000 	str	r3, [r2]
30056530:	e28bd000 	add	sp, fp, #0	; 0x0
30056534:	e8bd0800 	pop	{fp}
30056538:	e12fff1e 	bx	lr

3005653c <lcd_init>:
3005653c:	e52db004 	push	{fp}		; (str fp, [sp, #-4]!)
30056540:	e28db000 	add	fp, sp, #0	; 0x0
30056544:	e3a0244d 	mov	r2, #1291845632	; 0x4d000000
30056548:	e3a03e47 	mov	r3, #1136	; 0x470
3005654c:	e2833008 	add	r3, r3, #8	; 0x8
30056550:	e5823000 	str	r3, [r2]
30056554:	e3a0344d 	mov	r3, #1291845632	; 0x4d000000
30056558:	e2833004 	add	r3, r3, #4	; 0x4
3005655c:	e59f2108 	ldr	r2, [pc, #264]	; 3005666c <lcd_init+0x130>
30056560:	e5832000 	str	r2, [r3]
30056564:	e3a0244d 	mov	r2, #1291845632	; 0x4d000000
30056568:	e2822008 	add	r2, r2, #8	; 0x8
3005656c:	e3a03612 	mov	r3, #18874368	; 0x1200000
30056570:	e2833cef 	add	r3, r3, #61184	; 0xef00
30056574:	e2833013 	add	r3, r3, #19	; 0x13
30056578:	e5823000 	str	r3, [r2]
3005657c:	e3a0244d 	mov	r2, #1291845632	; 0x4d000000
30056580:	e282200c 	add	r2, r2, #12	; 0xc
30056584:	e3a03c0d 	mov	r3, #3328	; 0xd00
30056588:	e2833005 	add	r3, r3, #5	; 0x5
3005658c:	e5823000 	str	r3, [r2]
30056590:	e3a0244d 	mov	r2, #1291845632	; 0x4d000000
30056594:	e2822010 	add	r2, r2, #16	; 0x10
30056598:	e3a03c0b 	mov	r3, #2816	; 0xb00
3005659c:	e2833009 	add	r3, r3, #9	; 0x9
300565a0:	e5823000 	str	r3, [r2]
300565a4:	e3a0244d 	mov	r2, #1291845632	; 0x4d000000
300565a8:	e2822014 	add	r2, r2, #20	; 0x14
300565ac:	e59f30bc 	ldr	r3, [pc, #188]	; 30056670 <lcd_init+0x134>
300565b0:	e1a03b23 	lsr	r3, r3, #22
300565b4:	e1a01a83 	lsl	r1, r3, #21
300565b8:	e59f30b0 	ldr	r3, [pc, #176]	; 30056670 <lcd_init+0x134>
300565bc:	e1a030a3 	lsr	r3, r3, #1
300565c0:	e3c334ff 	bic	r3, r3, #-16777216	; 0xff000000
300565c4:	e3c3360e 	bic	r3, r3, #14680064	; 0xe00000
300565c8:	e1813003 	orr	r3, r1, r3
300565cc:	e5823000 	str	r3, [r2]
300565d0:	e3a0244d 	mov	r2, #1291845632	; 0x4d000000
300565d4:	e2822018 	add	r2, r2, #24	; 0x18
300565d8:	e59f3094 	ldr	r3, [pc, #148]	; 30056674 <lcd_init+0x138>
300565dc:	e3c334ff 	bic	r3, r3, #-16777216	; 0xff000000
300565e0:	e3c3360e 	bic	r3, r3, #14680064	; 0xe00000
300565e4:	e1a030a3 	lsr	r3, r3, #1
300565e8:	e5823000 	str	r3, [r2]
300565ec:	e3a0344d 	mov	r3, #1291845632	; 0x4d000000
300565f0:	e283301c 	add	r3, r3, #28	; 0x1c
300565f4:	e3a020f0 	mov	r2, #240	; 0xf0
300565f8:	e5832000 	str	r2, [r3]
300565fc:	e3a0244d 	mov	r2, #1291845632	; 0x4d000000
30056600:	e282205c 	add	r2, r2, #92	; 0x5c
30056604:	e3a0344d 	mov	r3, #1291845632	; 0x4d000000
30056608:	e283305c 	add	r3, r3, #92	; 0x5c
3005660c:	e5933000 	ldr	r3, [r3]
30056610:	e3833003 	orr	r3, r3, #3	; 0x3
30056614:	e5823000 	str	r3, [r2]
30056618:	e3a0244d 	mov	r2, #1291845632	; 0x4d000000
3005661c:	e2822060 	add	r2, r2, #96	; 0x60
30056620:	e3a0344d 	mov	r3, #1291845632	; 0x4d000000
30056624:	e2833060 	add	r3, r3, #96	; 0x60
30056628:	e5933000 	ldr	r3, [r3]
3005662c:	e3c33007 	bic	r3, r3, #7	; 0x7
30056630:	e5823000 	str	r3, [r2]
30056634:	e3a0344d 	mov	r3, #1291845632	; 0x4d000000
30056638:	e2833050 	add	r3, r3, #80	; 0x50
3005663c:	e3a02000 	mov	r2, #0	; 0x0
30056640:	e5832000 	str	r2, [r3]
30056644:	e3a0244d 	mov	r2, #1291845632	; 0x4d000000
30056648:	e2822060 	add	r2, r2, #96	; 0x60
3005664c:	e3a0344d 	mov	r3, #1291845632	; 0x4d000000
30056650:	e2833060 	add	r3, r3, #96	; 0x60
30056654:	e5933000 	ldr	r3, [r3]
30056658:	e3c33011 	bic	r3, r3, #17	; 0x11
3005665c:	e5823000 	str	r3, [r2]
30056660:	e28bd000 	add	sp, fp, #0	; 0x0
30056664:	e8bd0800 	pop	{fp}
30056668:	e12fff1e 	bx	lr
3005666c:	014fc141 	.word	0x014fc141
30056670:	30064670 	.word	0x30064670
30056674:	30089e70 	.word	0x30089e70

30056678 <lcd_output_enable>:
30056678:	e52db004 	push	{fp}		; (str fp, [sp, #-4]!)
3005667c:	e28db000 	add	fp, sp, #0	; 0x0
30056680:	e24dd00c 	sub	sp, sp, #12	; 0xc
30056684:	e50b0008 	str	r0, [fp, #-8]
30056688:	e51b3008 	ldr	r3, [fp, #-8]
3005668c:	e3530001 	cmp	r3, #1	; 0x1
30056690:	1a000005 	bne	300566ac <lcd_output_enable+0x34>
30056694:	e3a0244d 	mov	r2, #1291845632	; 0x4d000000
30056698:	e3a0344d 	mov	r3, #1291845632	; 0x4d000000
3005669c:	e5933000 	ldr	r3, [r3]
300566a0:	e3833001 	orr	r3, r3, #1	; 0x1
300566a4:	e5823000 	str	r3, [r2]
300566a8:	ea000004 	b	300566c0 <lcd_output_enable+0x48>
300566ac:	e3a0244d 	mov	r2, #1291845632	; 0x4d000000
300566b0:	e3a0344d 	mov	r3, #1291845632	; 0x4d000000
300566b4:	e5933000 	ldr	r3, [r3]
300566b8:	e3c33001 	bic	r3, r3, #1	; 0x1
300566bc:	e5823000 	str	r3, [r2]
300566c0:	e28bd000 	add	sp, fp, #0	; 0x0
300566c4:	e8bd0800 	pop	{fp}
300566c8:	e12fff1e 	bx	lr

300566cc <lcd_power_enable>:
300566cc:	e52db004 	push	{fp}		; (str fp, [sp, #-4]!)
300566d0:	e28db000 	add	fp, sp, #0	; 0x0
300566d4:	e24dd00c 	sub	sp, sp, #12	; 0xc
300566d8:	e50b0008 	str	r0, [fp, #-8]
300566dc:	e50b100c 	str	r1, [fp, #-12]
300566e0:	e3a02456 	mov	r2, #1442840576	; 0x56000000
300566e4:	e2822068 	add	r2, r2, #104	; 0x68
300566e8:	e3a03456 	mov	r3, #1442840576	; 0x56000000
300566ec:	e2833068 	add	r3, r3, #104	; 0x68
300566f0:	e5933000 	ldr	r3, [r3]
300566f4:	e3833010 	orr	r3, r3, #16	; 0x10
300566f8:	e5823000 	str	r3, [r2]
300566fc:	e3a02456 	mov	r2, #1442840576	; 0x56000000
30056700:	e2822060 	add	r2, r2, #96	; 0x60
30056704:	e3a03456 	mov	r3, #1442840576	; 0x56000000
30056708:	e2833060 	add	r3, r3, #96	; 0x60
3005670c:	e5933000 	ldr	r3, [r3]
30056710:	e3833c03 	orr	r3, r3, #768	; 0x300
30056714:	e5823000 	str	r3, [r2]
30056718:	e3a0244d 	mov	r2, #1291845632	; 0x4d000000
3005671c:	e2822010 	add	r2, r2, #16	; 0x10
30056720:	e3a0344d 	mov	r3, #1291845632	; 0x4d000000
30056724:	e2833010 	add	r3, r3, #16	; 0x10
30056728:	e5933000 	ldr	r3, [r3]
3005672c:	e3c31008 	bic	r1, r3, #8	; 0x8
30056730:	e51b300c 	ldr	r3, [fp, #-12]
30056734:	e1a03183 	lsl	r3, r3, #3
30056738:	e1813003 	orr	r3, r1, r3
3005673c:	e5823000 	str	r3, [r2]
30056740:	e3a0244d 	mov	r2, #1291845632	; 0x4d000000
30056744:	e2822010 	add	r2, r2, #16	; 0x10
30056748:	e3a0344d 	mov	r3, #1291845632	; 0x4d000000
3005674c:	e2833010 	add	r3, r3, #16	; 0x10
30056750:	e5933000 	ldr	r3, [r3]
30056754:	e3c31020 	bic	r1, r3, #32	; 0x20
30056758:	e51b3008 	ldr	r3, [fp, #-8]
3005675c:	e1a03283 	lsl	r3, r3, #5
30056760:	e1813003 	orr	r3, r1, r3
30056764:	e5823000 	str	r3, [r2]
30056768:	e28bd000 	add	sp, fp, #0	; 0x0
3005676c:	e8bd0800 	pop	{fp}
30056770:	e12fff1e 	bx	lr

30056774 <lcd_fill_pixel>:
30056774:	e52db004 	push	{fp}		; (str fp, [sp, #-4]!)
30056778:	e28db000 	add	fp, sp, #0	; 0x0
3005677c:	e24dd014 	sub	sp, sp, #20	; 0x14
30056780:	e50b0008 	str	r0, [fp, #-8]
30056784:	e50b100c 	str	r1, [fp, #-12]
30056788:	e1a03002 	mov	r3, r2
3005678c:	e14b30be 	strh	r3, [fp, #-14]
30056790:	e51b2008 	ldr	r2, [fp, #-8]
30056794:	e3a03f4f 	mov	r3, #316	; 0x13c
30056798:	e2833003 	add	r3, r3, #3	; 0x3
3005679c:	e1520003 	cmp	r2, r3
300567a0:	ca00000d 	bgt	300567dc <lcd_fill_pixel+0x68>
300567a4:	e51b300c 	ldr	r3, [fp, #-12]
300567a8:	e35300ef 	cmp	r3, #239	; 0xef
300567ac:	ca00000a 	bgt	300567dc <lcd_fill_pixel+0x68>
300567b0:	e51b3008 	ldr	r3, [fp, #-8]
300567b4:	e51b100c 	ldr	r1, [fp, #-12]
300567b8:	e59f0028 	ldr	r0, [pc, #40]	; 300567e8 <lcd_fill_pixel+0x74>
300567bc:	e1a02203 	lsl	r2, r3, #4
300567c0:	e1a03202 	lsl	r3, r2, #4
300567c4:	e0623003 	rsb	r3, r2, r3
300567c8:	e0833001 	add	r3, r3, r1
300567cc:	e1a03083 	lsl	r3, r3, #1
300567d0:	e0802003 	add	r2, r0, r3
300567d4:	e15b30be 	ldrh	r3, [fp, #-14]
300567d8:	e1c230b0 	strh	r3, [r2]
300567dc:	e28bd000 	add	sp, fp, #0	; 0x0
300567e0:	e8bd0800 	pop	{fp}
300567e4:	e12fff1e 	bx	lr
300567e8:	30064670 	.word	0x30064670

300567ec <lcd_fill_line>:
300567ec:	e52db004 	push	{fp}		; (str fp, [sp, #-4]!)
300567f0:	e28db000 	add	fp, sp, #0	; 0x0
300567f4:	e24dd014 	sub	sp, sp, #20	; 0x14
300567f8:	e50b0010 	str	r0, [fp, #-16]
300567fc:	e1a03001 	mov	r3, r1
30056800:	e14b31b2 	strh	r3, [fp, #-18]
30056804:	e3a03000 	mov	r3, #0	; 0x0
30056808:	e50b3008 	str	r3, [fp, #-8]
3005680c:	e51b2010 	ldr	r2, [fp, #-16]
30056810:	e3a03f4f 	mov	r3, #316	; 0x13c
30056814:	e2833003 	add	r3, r3, #3	; 0x3
30056818:	e1520003 	cmp	r2, r3
3005681c:	ca000013 	bgt	30056870 <lcd_fill_line+0x84>
30056820:	e3a03000 	mov	r3, #0	; 0x0
30056824:	e50b3008 	str	r3, [fp, #-8]
30056828:	ea00000d 	b	30056864 <lcd_fill_line+0x78>
3005682c:	e51b3010 	ldr	r3, [fp, #-16]
30056830:	e51b1008 	ldr	r1, [fp, #-8]
30056834:	e59f0040 	ldr	r0, [pc, #64]	; 3005687c <lcd_fill_line+0x90>
30056838:	e1a02203 	lsl	r2, r3, #4
3005683c:	e1a03202 	lsl	r3, r2, #4
30056840:	e0623003 	rsb	r3, r2, r3
30056844:	e0833001 	add	r3, r3, r1
30056848:	e1a03083 	lsl	r3, r3, #1
3005684c:	e0802003 	add	r2, r0, r3
30056850:	e15b31b2 	ldrh	r3, [fp, #-18]
30056854:	e1c230b0 	strh	r3, [r2]
30056858:	e51b3008 	ldr	r3, [fp, #-8]
3005685c:	e2833001 	add	r3, r3, #1	; 0x1
30056860:	e50b3008 	str	r3, [fp, #-8]
30056864:	e51b3008 	ldr	r3, [fp, #-8]
30056868:	e35300ef 	cmp	r3, #239	; 0xef
3005686c:	daffffee 	ble	3005682c <lcd_fill_line+0x40>
30056870:	e28bd000 	add	sp, fp, #0	; 0x0
30056874:	e8bd0800 	pop	{fp}
30056878:	e12fff1e 	bx	lr
3005687c:	30064670 	.word	0x30064670

30056880 <lcd_fill_column>:
30056880:	e52db004 	push	{fp}		; (str fp, [sp, #-4]!)
30056884:	e28db000 	add	fp, sp, #0	; 0x0
30056888:	e24dd014 	sub	sp, sp, #20	; 0x14
3005688c:	e50b0010 	str	r0, [fp, #-16]
30056890:	e1a03001 	mov	r3, r1
30056894:	e14b31b2 	strh	r3, [fp, #-18]
30056898:	e3a03000 	mov	r3, #0	; 0x0
3005689c:	e50b3008 	str	r3, [fp, #-8]
300568a0:	e51b3010 	ldr	r3, [fp, #-16]
300568a4:	e35300ef 	cmp	r3, #239	; 0xef
300568a8:	ca000015 	bgt	30056904 <lcd_fill_column+0x84>
300568ac:	e3a03000 	mov	r3, #0	; 0x0
300568b0:	e50b3008 	str	r3, [fp, #-8]
300568b4:	ea00000d 	b	300568f0 <lcd_fill_column+0x70>
300568b8:	e51b3008 	ldr	r3, [fp, #-8]
300568bc:	e51b1010 	ldr	r1, [fp, #-16]
300568c0:	e59f0048 	ldr	r0, [pc, #72]	; 30056910 <lcd_fill_column+0x90>
300568c4:	e1a02203 	lsl	r2, r3, #4
300568c8:	e1a03202 	lsl	r3, r2, #4
300568cc:	e0623003 	rsb	r3, r2, r3
300568d0:	e0833001 	add	r3, r3, r1
300568d4:	e1a03083 	lsl	r3, r3, #1
300568d8:	e0802003 	add	r2, r0, r3
300568dc:	e15b31b2 	ldrh	r3, [fp, #-18]
300568e0:	e1c230b0 	strh	r3, [r2]
300568e4:	e51b3008 	ldr	r3, [fp, #-8]
300568e8:	e2833001 	add	r3, r3, #1	; 0x1
300568ec:	e50b3008 	str	r3, [fp, #-8]
300568f0:	e51b2008 	ldr	r2, [fp, #-8]
300568f4:	e3a03f4f 	mov	r3, #316	; 0x13c
300568f8:	e2833003 	add	r3, r3, #3	; 0x3
300568fc:	e1520003 	cmp	r2, r3
30056900:	daffffec 	ble	300568b8 <lcd_fill_column+0x38>
30056904:	e28bd000 	add	sp, fp, #0	; 0x0
30056908:	e8bd0800 	pop	{fp}
3005690c:	e12fff1e 	bx	lr
30056910:	30064670 	.word	0x30064670

30056914 <lcd_clear_screen>:
30056914:	e52db004 	push	{fp}		; (str fp, [sp, #-4]!)
30056918:	e28db000 	add	fp, sp, #0	; 0x0
3005691c:	e24dd014 	sub	sp, sp, #20	; 0x14
30056920:	e1a03000 	mov	r3, r0
30056924:	e14b30be 	strh	r3, [fp, #-14]
30056928:	e3a03000 	mov	r3, #0	; 0x0
3005692c:	e50b3008 	str	r3, [fp, #-8]
30056930:	ea000016 	b	30056990 <lcd_clear_screen+0x7c>
30056934:	e3a03000 	mov	r3, #0	; 0x0
30056938:	e50b300c 	str	r3, [fp, #-12]
3005693c:	ea00000d 	b	30056978 <lcd_clear_screen+0x64>
30056940:	e51b3008 	ldr	r3, [fp, #-8]
30056944:	e51b100c 	ldr	r1, [fp, #-12]
30056948:	e59f0060 	ldr	r0, [pc, #96]	; 300569b0 <lcd_clear_screen+0x9c>
3005694c:	e1a02203 	lsl	r2, r3, #4
30056950:	e1a03202 	lsl	r3, r2, #4
30056954:	e0623003 	rsb	r3, r2, r3
30056958:	e0833001 	add	r3, r3, r1
3005695c:	e1a03083 	lsl	r3, r3, #1
30056960:	e0802003 	add	r2, r0, r3
30056964:	e15b30be 	ldrh	r3, [fp, #-14]
30056968:	e1c230b0 	strh	r3, [r2]
3005696c:	e51b300c 	ldr	r3, [fp, #-12]
30056970:	e2833001 	add	r3, r3, #1	; 0x1
30056974:	e50b300c 	str	r3, [fp, #-12]
30056978:	e51b300c 	ldr	r3, [fp, #-12]
3005697c:	e35300ef 	cmp	r3, #239	; 0xef
30056980:	9affffee 	bls	30056940 <lcd_clear_screen+0x2c>
30056984:	e51b3008 	ldr	r3, [fp, #-8]
30056988:	e2833001 	add	r3, r3, #1	; 0x1
3005698c:	e50b3008 	str	r3, [fp, #-8]
30056990:	e51b2008 	ldr	r2, [fp, #-8]
30056994:	e3a03f4f 	mov	r3, #316	; 0x13c
30056998:	e2833003 	add	r3, r3, #3	; 0x3
3005699c:	e1520003 	cmp	r2, r3
300569a0:	9affffe3 	bls	30056934 <lcd_clear_screen+0x20>
300569a4:	e28bd000 	add	sp, fp, #0	; 0x0
300569a8:	e8bd0800 	pop	{fp}
300569ac:	e12fff1e 	bx	lr
300569b0:	30064670 	.word	0x30064670

300569b4 <dump_register>:
300569b4:	e92d4800 	push	{fp, lr}
300569b8:	e28db004 	add	fp, sp, #4	; 0x4
300569bc:	e59f0110 	ldr	r0, [pc, #272]	; 30056ad4 <dump_register+0x120>
300569c0:	ebfff56d 	bl	30053f7c <print_string>
300569c4:	e3a0344d 	mov	r3, #1291845632	; 0x4d000000
300569c8:	e5933000 	ldr	r3, [r3]
300569cc:	e59f0104 	ldr	r0, [pc, #260]	; 30056ad8 <dump_register+0x124>
300569d0:	e1a01003 	mov	r1, r3
300569d4:	ebfff8ba 	bl	30054cc4 <printf_string>
300569d8:	e3a0344d 	mov	r3, #1291845632	; 0x4d000000
300569dc:	e2833004 	add	r3, r3, #4	; 0x4
300569e0:	e5933000 	ldr	r3, [r3]
300569e4:	e59f00f0 	ldr	r0, [pc, #240]	; 30056adc <dump_register+0x128>
300569e8:	e1a01003 	mov	r1, r3
300569ec:	ebfff8b4 	bl	30054cc4 <printf_string>
300569f0:	e3a0344d 	mov	r3, #1291845632	; 0x4d000000
300569f4:	e2833008 	add	r3, r3, #8	; 0x8
300569f8:	e5933000 	ldr	r3, [r3]
300569fc:	e59f00dc 	ldr	r0, [pc, #220]	; 30056ae0 <dump_register+0x12c>
30056a00:	e1a01003 	mov	r1, r3
30056a04:	ebfff8ae 	bl	30054cc4 <printf_string>
30056a08:	e3a0344d 	mov	r3, #1291845632	; 0x4d000000
30056a0c:	e283300c 	add	r3, r3, #12	; 0xc
30056a10:	e5933000 	ldr	r3, [r3]
30056a14:	e59f00c8 	ldr	r0, [pc, #200]	; 30056ae4 <dump_register+0x130>
30056a18:	e1a01003 	mov	r1, r3
30056a1c:	ebfff8a8 	bl	30054cc4 <printf_string>
30056a20:	e3a0344d 	mov	r3, #1291845632	; 0x4d000000
30056a24:	e2833010 	add	r3, r3, #16	; 0x10
30056a28:	e5933000 	ldr	r3, [r3]
30056a2c:	e59f00b4 	ldr	r0, [pc, #180]	; 30056ae8 <dump_register+0x134>
30056a30:	e1a01003 	mov	r1, r3
30056a34:	ebfff8a2 	bl	30054cc4 <printf_string>
30056a38:	e3a0344d 	mov	r3, #1291845632	; 0x4d000000
30056a3c:	e2833014 	add	r3, r3, #20	; 0x14
30056a40:	e5933000 	ldr	r3, [r3]
30056a44:	e59f00a0 	ldr	r0, [pc, #160]	; 30056aec <dump_register+0x138>
30056a48:	e1a01003 	mov	r1, r3
30056a4c:	ebfff89c 	bl	30054cc4 <printf_string>
30056a50:	e3a0344d 	mov	r3, #1291845632	; 0x4d000000
30056a54:	e2833018 	add	r3, r3, #24	; 0x18
30056a58:	e5933000 	ldr	r3, [r3]
30056a5c:	e59f008c 	ldr	r0, [pc, #140]	; 30056af0 <dump_register+0x13c>
30056a60:	e1a01003 	mov	r1, r3
30056a64:	ebfff896 	bl	30054cc4 <printf_string>
30056a68:	e3a0344d 	mov	r3, #1291845632	; 0x4d000000
30056a6c:	e283301c 	add	r3, r3, #28	; 0x1c
30056a70:	e5933000 	ldr	r3, [r3]
30056a74:	e59f0078 	ldr	r0, [pc, #120]	; 30056af4 <dump_register+0x140>
30056a78:	e1a01003 	mov	r1, r3
30056a7c:	ebfff890 	bl	30054cc4 <printf_string>
30056a80:	e3a0344d 	mov	r3, #1291845632	; 0x4d000000
30056a84:	e283305c 	add	r3, r3, #92	; 0x5c
30056a88:	e5933000 	ldr	r3, [r3]
30056a8c:	e59f0064 	ldr	r0, [pc, #100]	; 30056af8 <dump_register+0x144>
30056a90:	e1a01003 	mov	r1, r3
30056a94:	ebfff88a 	bl	30054cc4 <printf_string>
30056a98:	e3a0344d 	mov	r3, #1291845632	; 0x4d000000
30056a9c:	e2833060 	add	r3, r3, #96	; 0x60
30056aa0:	e5933000 	ldr	r3, [r3]
30056aa4:	e59f0050 	ldr	r0, [pc, #80]	; 30056afc <dump_register+0x148>
30056aa8:	e1a01003 	mov	r1, r3
30056aac:	ebfff884 	bl	30054cc4 <printf_string>
30056ab0:	e3a0344d 	mov	r3, #1291845632	; 0x4d000000
30056ab4:	e2833050 	add	r3, r3, #80	; 0x50
30056ab8:	e5933000 	ldr	r3, [r3]
30056abc:	e59f003c 	ldr	r0, [pc, #60]	; 30056b00 <dump_register+0x14c>
30056ac0:	e1a01003 	mov	r1, r3
30056ac4:	ebfff87e 	bl	30054cc4 <printf_string>
30056ac8:	e24bd004 	sub	sp, fp, #4	; 0x4
30056acc:	e8bd4800 	pop	{fp, lr}
30056ad0:	e12fff1e 	bx	lr
30056ad4:	3005c574 	.word	0x3005c574
30056ad8:	3005c584 	.word	0x3005c584
30056adc:	3005c594 	.word	0x3005c594
30056ae0:	3005c5a4 	.word	0x3005c5a4
30056ae4:	3005c5b4 	.word	0x3005c5b4
30056ae8:	3005c5c4 	.word	0x3005c5c4
30056aec:	3005c5d4 	.word	0x3005c5d4
30056af0:	3005c5e8 	.word	0x3005c5e8
30056af4:	3005c5fc 	.word	0x3005c5fc
30056af8:	3005c610 	.word	0x3005c610
30056afc:	3005c624 	.word	0x3005c624
30056b00:	3005c634 	.word	0x3005c634

30056b04 <lcd_line_test>:
30056b04:	e92d4800 	push	{fp, lr}
30056b08:	e28db004 	add	fp, sp, #4	; 0x4
30056b0c:	e24dd020 	sub	sp, sp, #32	; 0x20
30056b10:	e50b0018 	str	r0, [fp, #-24]
30056b14:	e50b101c 	str	r1, [fp, #-28]
30056b18:	e1a03002 	mov	r3, r2
30056b1c:	e14b31be 	strh	r3, [fp, #-30]
30056b20:	e3a03000 	mov	r3, #0	; 0x0
30056b24:	e50b3010 	str	r3, [fp, #-16]
30056b28:	e3a03000 	mov	r3, #0	; 0x0
30056b2c:	e50b300c 	str	r3, [fp, #-12]
30056b30:	e3a03000 	mov	r3, #0	; 0x0
30056b34:	e50b3008 	str	r3, [fp, #-8]
30056b38:	e59f0080 	ldr	r0, [pc, #128]	; 30056bc0 <lcd_line_test+0xbc>
30056b3c:	e51b1018 	ldr	r1, [fp, #-24]
30056b40:	e51b201c 	ldr	r2, [fp, #-28]
30056b44:	ebfff85e 	bl	30054cc4 <printf_string>
30056b48:	e15b31be 	ldrh	r3, [fp, #-30]
30056b4c:	e59f0070 	ldr	r0, [pc, #112]	; 30056bc4 <lcd_line_test+0xc0>
30056b50:	e1a01003 	mov	r1, r3
30056b54:	ebfff85a 	bl	30054cc4 <printf_string>
30056b58:	e51b3018 	ldr	r3, [fp, #-24]
30056b5c:	e50b3010 	str	r3, [fp, #-16]
30056b60:	ea00000b 	b	30056b94 <lcd_line_test+0x90>
30056b64:	e59f005c 	ldr	r0, [pc, #92]	; 30056bc8 <lcd_line_test+0xc4>
30056b68:	e51b1010 	ldr	r1, [fp, #-16]
30056b6c:	ebfff854 	bl	30054cc4 <printf_string>
30056b70:	e15b31be 	ldrh	r3, [fp, #-30]
30056b74:	e51b0010 	ldr	r0, [fp, #-16]
30056b78:	e1a01003 	mov	r1, r3
30056b7c:	ebffff1a 	bl	300567ec <lcd_fill_line>
30056b80:	e3a00ffa 	mov	r0, #1000	; 0x3e8
30056b84:	ebffe8de 	bl	30050f04 <delay>
30056b88:	e51b3010 	ldr	r3, [fp, #-16]
30056b8c:	e2833001 	add	r3, r3, #1	; 0x1
30056b90:	e50b3010 	str	r3, [fp, #-16]
30056b94:	e51b2010 	ldr	r2, [fp, #-16]
30056b98:	e51b301c 	ldr	r3, [fp, #-28]
30056b9c:	e1520003 	cmp	r2, r3
30056ba0:	baffffef 	blt	30056b64 <lcd_line_test+0x60>
30056ba4:	e3a0095b 	mov	r0, #1490944	; 0x16c000
30056ba8:	e2800d8d 	add	r0, r0, #9024	; 0x2340
30056bac:	e2800020 	add	r0, r0, #32	; 0x20
30056bb0:	ebffe8d3 	bl	30050f04 <delay>
30056bb4:	e24bd004 	sub	sp, fp, #4	; 0x4
30056bb8:	e8bd4800 	pop	{fp, lr}
30056bbc:	e12fff1e 	bx	lr
30056bc0:	3005c640 	.word	0x3005c640
30056bc4:	3005c670 	.word	0x3005c670
30056bc8:	3005c67c 	.word	0x3005c67c

30056bcc <lcd_column_test>:
30056bcc:	e92d4800 	push	{fp, lr}
30056bd0:	e28db004 	add	fp, sp, #4	; 0x4
30056bd4:	e24dd020 	sub	sp, sp, #32	; 0x20
30056bd8:	e50b0018 	str	r0, [fp, #-24]
30056bdc:	e50b101c 	str	r1, [fp, #-28]
30056be0:	e1a03002 	mov	r3, r2
30056be4:	e14b31be 	strh	r3, [fp, #-30]
30056be8:	e3a03000 	mov	r3, #0	; 0x0
30056bec:	e50b3010 	str	r3, [fp, #-16]
30056bf0:	e3a03000 	mov	r3, #0	; 0x0
30056bf4:	e50b300c 	str	r3, [fp, #-12]
30056bf8:	e3a03000 	mov	r3, #0	; 0x0
30056bfc:	e50b3008 	str	r3, [fp, #-8]
30056c00:	e59f0080 	ldr	r0, [pc, #128]	; 30056c88 <lcd_column_test+0xbc>
30056c04:	e51b1018 	ldr	r1, [fp, #-24]
30056c08:	e51b201c 	ldr	r2, [fp, #-28]
30056c0c:	ebfff82c 	bl	30054cc4 <printf_string>
30056c10:	e15b31be 	ldrh	r3, [fp, #-30]
30056c14:	e59f0070 	ldr	r0, [pc, #112]	; 30056c8c <lcd_column_test+0xc0>
30056c18:	e1a01003 	mov	r1, r3
30056c1c:	ebfff828 	bl	30054cc4 <printf_string>
30056c20:	e51b3018 	ldr	r3, [fp, #-24]
30056c24:	e50b300c 	str	r3, [fp, #-12]
30056c28:	ea00000b 	b	30056c5c <lcd_column_test+0x90>
30056c2c:	e59f005c 	ldr	r0, [pc, #92]	; 30056c90 <lcd_column_test+0xc4>
30056c30:	e51b100c 	ldr	r1, [fp, #-12]
30056c34:	ebfff822 	bl	30054cc4 <printf_string>
30056c38:	e15b31be 	ldrh	r3, [fp, #-30]
30056c3c:	e51b000c 	ldr	r0, [fp, #-12]
30056c40:	e1a01003 	mov	r1, r3
30056c44:	ebffff0d 	bl	30056880 <lcd_fill_column>
30056c48:	e3a00ffa 	mov	r0, #1000	; 0x3e8
30056c4c:	ebffe8ac 	bl	30050f04 <delay>
30056c50:	e51b300c 	ldr	r3, [fp, #-12]
30056c54:	e2833001 	add	r3, r3, #1	; 0x1
30056c58:	e50b300c 	str	r3, [fp, #-12]
30056c5c:	e51b200c 	ldr	r2, [fp, #-12]
30056c60:	e51b301c 	ldr	r3, [fp, #-28]
30056c64:	e1520003 	cmp	r2, r3
30056c68:	baffffef 	blt	30056c2c <lcd_column_test+0x60>
30056c6c:	e3a0095b 	mov	r0, #1490944	; 0x16c000
30056c70:	e2800d8d 	add	r0, r0, #9024	; 0x2340
30056c74:	e2800020 	add	r0, r0, #32	; 0x20
30056c78:	ebffe8a1 	bl	30050f04 <delay>
30056c7c:	e24bd004 	sub	sp, fp, #4	; 0x4
30056c80:	e8bd4800 	pop	{fp, lr}
30056c84:	e12fff1e 	bx	lr
30056c88:	3005c68c 	.word	0x3005c68c
30056c8c:	3005c670 	.word	0x3005c670
30056c90:	3005c6c4 	.word	0x3005c6c4

30056c94 <display_char>:
30056c94:	e92d4810 	push	{r4, fp, lr}
30056c98:	e28db008 	add	fp, sp, #8	; 0x8
30056c9c:	e24dd01c 	sub	sp, sp, #28	; 0x1c
30056ca0:	e50b0018 	str	r0, [fp, #-24]
30056ca4:	e50b101c 	str	r1, [fp, #-28]
30056ca8:	e50b2020 	str	r2, [fp, #-32]
30056cac:	e3a03000 	mov	r3, #0	; 0x0
30056cb0:	e50b3014 	str	r3, [fp, #-20]
30056cb4:	e3a03000 	mov	r3, #0	; 0x0
30056cb8:	e50b3010 	str	r3, [fp, #-16]
30056cbc:	e59f00d8 	ldr	r0, [pc, #216]	; 30056d9c <display_char+0x108>
30056cc0:	ebfff7ff 	bl	30054cc4 <printf_string>
30056cc4:	e51b301c 	ldr	r3, [fp, #-28]
30056cc8:	e50b3010 	str	r3, [fp, #-16]
30056ccc:	ea00002a 	b	30056d7c <display_char+0xe8>
30056cd0:	e51b3018 	ldr	r3, [fp, #-24]
30056cd4:	e50b3014 	str	r3, [fp, #-20]
30056cd8:	ea00001d 	b	30056d54 <display_char+0xc0>
30056cdc:	e59f00bc 	ldr	r0, [pc, #188]	; 30056da0 <display_char+0x10c>
30056ce0:	e51b1014 	ldr	r1, [fp, #-20]
30056ce4:	e51b2010 	ldr	r2, [fp, #-16]
30056ce8:	ebfff7f5 	bl	30054cc4 <printf_string>
30056cec:	e51bc010 	ldr	ip, [fp, #-16]
30056cf0:	e51b4014 	ldr	r4, [fp, #-20]
30056cf4:	e51b2014 	ldr	r2, [fp, #-20]
30056cf8:	e51b3018 	ldr	r3, [fp, #-24]
30056cfc:	e0631002 	rsb	r1, r3, r2
30056d00:	e51b2010 	ldr	r2, [fp, #-16]
30056d04:	e51b301c 	ldr	r3, [fp, #-28]
30056d08:	e0633002 	rsb	r3, r3, r2
30056d0c:	e1a03183 	lsl	r3, r3, #3
30056d10:	e0813003 	add	r3, r1, r3
30056d14:	e1a02083 	lsl	r2, r3, #1
30056d18:	e51b3020 	ldr	r3, [fp, #-32]
30056d1c:	e0833002 	add	r3, r3, r2
30056d20:	e1d310b0 	ldrh	r1, [r3]
30056d24:	e59f0078 	ldr	r0, [pc, #120]	; 30056da4 <display_char+0x110>
30056d28:	e1a0300c 	mov	r3, ip
30056d2c:	e1a02203 	lsl	r2, r3, #4
30056d30:	e1a03202 	lsl	r3, r2, #4
30056d34:	e0623003 	rsb	r3, r2, r3
30056d38:	e0833004 	add	r3, r3, r4
30056d3c:	e1a03083 	lsl	r3, r3, #1
30056d40:	e0803003 	add	r3, r0, r3
30056d44:	e1c310b0 	strh	r1, [r3]
30056d48:	e51b3014 	ldr	r3, [fp, #-20]
30056d4c:	e2833001 	add	r3, r3, #1	; 0x1
30056d50:	e50b3014 	str	r3, [fp, #-20]
30056d54:	e51b3018 	ldr	r3, [fp, #-24]
30056d58:	e2832008 	add	r2, r3, #8	; 0x8
30056d5c:	e51b3014 	ldr	r3, [fp, #-20]
30056d60:	e1520003 	cmp	r2, r3
30056d64:	caffffdc 	bgt	30056cdc <display_char+0x48>
30056d68:	e3a00ffa 	mov	r0, #1000	; 0x3e8
30056d6c:	ebffe864 	bl	30050f04 <delay>
30056d70:	e51b3010 	ldr	r3, [fp, #-16]
30056d74:	e2833001 	add	r3, r3, #1	; 0x1
30056d78:	e50b3010 	str	r3, [fp, #-16]
30056d7c:	e51b301c 	ldr	r3, [fp, #-28]
30056d80:	e2832010 	add	r2, r3, #16	; 0x10
30056d84:	e51b3010 	ldr	r3, [fp, #-16]
30056d88:	e1520003 	cmp	r2, r3
30056d8c:	caffffcf 	bgt	30056cd0 <display_char+0x3c>
30056d90:	e24bd008 	sub	sp, fp, #8	; 0x8
30056d94:	e8bd4810 	pop	{r4, fp, lr}
30056d98:	e12fff1e 	bx	lr
30056d9c:	3005c6d8 	.word	0x3005c6d8
30056da0:	3005c6ec 	.word	0x3005c6ec
30056da4:	30064670 	.word	0x30064670

30056da8 <display_char_with_color>:
30056da8:	e92d4800 	push	{fp, lr}
30056dac:	e28db004 	add	fp, sp, #4	; 0x4
30056db0:	e24dd018 	sub	sp, sp, #24	; 0x18
30056db4:	e50b0010 	str	r0, [fp, #-16]
30056db8:	e50b1014 	str	r1, [fp, #-20]
30056dbc:	e1a01003 	mov	r1, r3
30056dc0:	e1a03002 	mov	r3, r2
30056dc4:	e54b3015 	strb	r3, [fp, #-21]
30056dc8:	e14b11b8 	strh	r1, [fp, #-24]
30056dcc:	e3a03000 	mov	r3, #0	; 0x0
30056dd0:	e50b3008 	str	r3, [fp, #-8]
30056dd4:	e55b3015 	ldrb	r3, [fp, #-21]
30056dd8:	e15b21b8 	ldrh	r2, [fp, #-24]
30056ddc:	e24bc008 	sub	ip, fp, #8	; 0x8
30056de0:	e1a00003 	mov	r0, r3
30056de4:	e1a01002 	mov	r1, r2
30056de8:	e1a0200c 	mov	r2, ip
30056dec:	ebffed82 	bl	300523fc <get_template>
30056df0:	e51b3008 	ldr	r3, [fp, #-8]
30056df4:	e51b0010 	ldr	r0, [fp, #-16]
30056df8:	e51b1014 	ldr	r1, [fp, #-20]
30056dfc:	e1a02003 	mov	r2, r3
30056e00:	ebffffa3 	bl	30056c94 <display_char>
30056e04:	e24bd004 	sub	sp, fp, #4	; 0x4
30056e08:	e8bd4800 	pop	{fp, lr}
30056e0c:	e12fff1e 	bx	lr

30056e10 <display_string_with_color>:
30056e10:	e92d4800 	push	{fp, lr}
30056e14:	e28db004 	add	fp, sp, #4	; 0x4
30056e18:	e24dd018 	sub	sp, sp, #24	; 0x18
30056e1c:	e50b0010 	str	r0, [fp, #-16]
30056e20:	e50b1014 	str	r1, [fp, #-20]
30056e24:	e50b2018 	str	r2, [fp, #-24]
30056e28:	e14b31ba 	strh	r3, [fp, #-26]
30056e2c:	e3a03000 	mov	r3, #0	; 0x0
30056e30:	e50b3008 	str	r3, [fp, #-8]
30056e34:	e51b3018 	ldr	r3, [fp, #-24]
30056e38:	e3530000 	cmp	r3, #0	; 0x0
30056e3c:	0a000016 	beq	30056e9c <display_string_with_color+0x8c>
30056e40:	ea000011 	b	30056e8c <display_string_with_color+0x7c>
30056e44:	e51b3008 	ldr	r3, [fp, #-8]
30056e48:	e1a02203 	lsl	r2, r3, #4
30056e4c:	e51b3010 	ldr	r3, [fp, #-16]
30056e50:	e0822003 	add	r2, r2, r3
30056e54:	e51b3018 	ldr	r3, [fp, #-24]
30056e58:	e5d33000 	ldrb	r3, [r3]
30056e5c:	e15bc1ba 	ldrh	ip, [fp, #-26]
30056e60:	e1a00002 	mov	r0, r2
30056e64:	e51b1014 	ldr	r1, [fp, #-20]
30056e68:	e1a02003 	mov	r2, r3
30056e6c:	e1a0300c 	mov	r3, ip
30056e70:	ebffffcc 	bl	30056da8 <display_char_with_color>
30056e74:	e51b3008 	ldr	r3, [fp, #-8]
30056e78:	e2833001 	add	r3, r3, #1	; 0x1
30056e7c:	e50b3008 	str	r3, [fp, #-8]
30056e80:	e51b3018 	ldr	r3, [fp, #-24]
30056e84:	e2833001 	add	r3, r3, #1	; 0x1
30056e88:	e50b3018 	str	r3, [fp, #-24]
30056e8c:	e51b3018 	ldr	r3, [fp, #-24]
30056e90:	e5d33000 	ldrb	r3, [r3]
30056e94:	e3530000 	cmp	r3, #0	; 0x0
30056e98:	1affffe9 	bne	30056e44 <display_string_with_color+0x34>
30056e9c:	e24bd004 	sub	sp, fp, #4	; 0x4
30056ea0:	e8bd4800 	pop	{fp, lr}
30056ea4:	e12fff1e 	bx	lr

30056ea8 <lcd_test>:
30056ea8:	e92d4800 	push	{fp, lr}
30056eac:	e28db004 	add	fp, sp, #4	; 0x4
30056eb0:	e24dd020 	sub	sp, sp, #32	; 0x20
30056eb4:	e50b0020 	str	r0, [fp, #-32]
30056eb8:	e50b1024 	str	r1, [fp, #-36]
30056ebc:	e3a03000 	mov	r3, #0	; 0x0
30056ec0:	e50b3014 	str	r3, [fp, #-20]
30056ec4:	e3a03000 	mov	r3, #0	; 0x0
30056ec8:	e50b3010 	str	r3, [fp, #-16]
30056ecc:	e3a03000 	mov	r3, #0	; 0x0
30056ed0:	e50b300c 	str	r3, [fp, #-12]
30056ed4:	e3a03000 	mov	r3, #0	; 0x0
30056ed8:	e50b3008 	str	r3, [fp, #-8]
30056edc:	ebfffd7d 	bl	300564d8 <lcd_port_init>
30056ee0:	ebfffd95 	bl	3005653c <lcd_init>
30056ee4:	e3a00000 	mov	r0, #0	; 0x0
30056ee8:	e3a01001 	mov	r1, #1	; 0x1
30056eec:	ebfffdf6 	bl	300566cc <lcd_power_enable>
30056ef0:	e3a00001 	mov	r0, #1	; 0x1
30056ef4:	ebfffddf 	bl	30056678 <lcd_output_enable>
30056ef8:	e59f03f8 	ldr	r0, [pc, #1016]	; 300572f8 <lcd_test+0x450>
30056efc:	ebfff41e 	bl	30053f7c <print_string>
30056f00:	e3a03000 	mov	r3, #0	; 0x0
30056f04:	e50b3008 	str	r3, [fp, #-8]
30056f08:	ea000012 	b	30056f58 <lcd_test+0xb0>
30056f0c:	e3a02003 	mov	r2, #3	; 0x3
30056f10:	e51b3008 	ldr	r3, [fp, #-8]
30056f14:	e1a03312 	lsl	r3, r2, r3
30056f18:	e59f03dc 	ldr	r0, [pc, #988]	; 300572fc <lcd_test+0x454>
30056f1c:	e1a01003 	mov	r1, r3
30056f20:	ebfff767 	bl	30054cc4 <printf_string>
30056f24:	e3a02003 	mov	r2, #3	; 0x3
30056f28:	e51b3008 	ldr	r3, [fp, #-8]
30056f2c:	e1a03312 	lsl	r3, r2, r3
30056f30:	e1a03803 	lsl	r3, r3, #16
30056f34:	e1a03823 	lsr	r3, r3, #16
30056f38:	e1a00003 	mov	r0, r3
30056f3c:	ebfffe74 	bl	30056914 <lcd_clear_screen>
30056f40:	e3a00a7a 	mov	r0, #499712	; 0x7a000
30056f44:	e2800e12 	add	r0, r0, #288	; 0x120
30056f48:	ebffe7ed 	bl	30050f04 <delay>
30056f4c:	e51b3008 	ldr	r3, [fp, #-8]
30056f50:	e2833001 	add	r3, r3, #1	; 0x1
30056f54:	e50b3008 	str	r3, [fp, #-8]
30056f58:	e51b3008 	ldr	r3, [fp, #-8]
30056f5c:	e353000e 	cmp	r3, #14	; 0xe
30056f60:	daffffe9 	ble	30056f0c <lcd_test+0x64>
30056f64:	e3a00000 	mov	r0, #0	; 0x0
30056f68:	ebfffe69 	bl	30056914 <lcd_clear_screen>
30056f6c:	e59f038c 	ldr	r0, [pc, #908]	; 30057300 <lcd_test+0x458>
30056f70:	ebfff401 	bl	30053f7c <print_string>
30056f74:	e3a00000 	mov	r0, #0	; 0x0
30056f78:	e3a01050 	mov	r1, #80	; 0x50
30056f7c:	e3a0200f 	mov	r2, #15	; 0xf
30056f80:	ebfffedf 	bl	30056b04 <lcd_line_test>
30056f84:	e3a00050 	mov	r0, #80	; 0x50
30056f88:	e3a010a0 	mov	r1, #160	; 0xa0
30056f8c:	e3a020f0 	mov	r2, #240	; 0xf0
30056f90:	ebfffedb 	bl	30056b04 <lcd_line_test>
30056f94:	e3a000a8 	mov	r0, #168	; 0xa8
30056f98:	e3a010a9 	mov	r1, #169	; 0xa9
30056f9c:	e3a02c0f 	mov	r2, #3840	; 0xf00
30056fa0:	ebfffed7 	bl	30056b04 <lcd_line_test>
30056fa4:	e3a000f0 	mov	r0, #240	; 0xf0
30056fa8:	e3a01d05 	mov	r1, #320	; 0x140
30056fac:	e3a02a0f 	mov	r2, #61440	; 0xf000
30056fb0:	ebfffed3 	bl	30056b04 <lcd_line_test>
30056fb4:	e3a00000 	mov	r0, #0	; 0x0
30056fb8:	ebfffe55 	bl	30056914 <lcd_clear_screen>
30056fbc:	e59f0340 	ldr	r0, [pc, #832]	; 30057304 <lcd_test+0x45c>
30056fc0:	ebfff3ed 	bl	30053f7c <print_string>
30056fc4:	e3a00000 	mov	r0, #0	; 0x0
30056fc8:	e3a0103c 	mov	r1, #60	; 0x3c
30056fcc:	e3a0200f 	mov	r2, #15	; 0xf
30056fd0:	ebfffefd 	bl	30056bcc <lcd_column_test>
30056fd4:	e3a0003c 	mov	r0, #60	; 0x3c
30056fd8:	e3a01078 	mov	r1, #120	; 0x78
30056fdc:	e3a020f0 	mov	r2, #240	; 0xf0
30056fe0:	ebfffef9 	bl	30056bcc <lcd_column_test>
30056fe4:	e3a0007d 	mov	r0, #125	; 0x7d
30056fe8:	e3a0107e 	mov	r1, #126	; 0x7e
30056fec:	e3a02c0f 	mov	r2, #3840	; 0xf00
30056ff0:	ebfffef5 	bl	30056bcc <lcd_column_test>
30056ff4:	e3a000b4 	mov	r0, #180	; 0xb4
30056ff8:	e3a010f0 	mov	r1, #240	; 0xf0
30056ffc:	e3a02a0f 	mov	r2, #61440	; 0xf000
30057000:	ebfffef1 	bl	30056bcc <lcd_column_test>
30057004:	e3a00000 	mov	r0, #0	; 0x0
30057008:	ebfffe41 	bl	30056914 <lcd_clear_screen>
3005700c:	e59f02f4 	ldr	r0, [pc, #756]	; 30057308 <lcd_test+0x460>
30057010:	ebfff3d9 	bl	30053f7c <print_string>
30057014:	e3a00032 	mov	r0, #50	; 0x32
30057018:	e3a01078 	mov	r1, #120	; 0x78
3005701c:	e59f22e8 	ldr	r2, [pc, #744]	; 3005730c <lcd_test+0x464>
30057020:	ebffff1b 	bl	30056c94 <display_char>
30057024:	e3a00042 	mov	r0, #66	; 0x42
30057028:	e3a01078 	mov	r1, #120	; 0x78
3005702c:	e59f22dc 	ldr	r2, [pc, #732]	; 30057310 <lcd_test+0x468>
30057030:	ebffff17 	bl	30056c94 <display_char>
30057034:	e3a00052 	mov	r0, #82	; 0x52
30057038:	e3a01078 	mov	r1, #120	; 0x78
3005703c:	e59f22d0 	ldr	r2, [pc, #720]	; 30057314 <lcd_test+0x46c>
30057040:	ebffff13 	bl	30056c94 <display_char>
30057044:	e3a00062 	mov	r0, #98	; 0x62
30057048:	e3a01078 	mov	r1, #120	; 0x78
3005704c:	e59f22c4 	ldr	r2, [pc, #708]	; 30057318 <lcd_test+0x470>
30057050:	ebffff0f 	bl	30056c94 <display_char>
30057054:	e3a00072 	mov	r0, #114	; 0x72
30057058:	e3a01078 	mov	r1, #120	; 0x78
3005705c:	e59f22b8 	ldr	r2, [pc, #696]	; 3005731c <lcd_test+0x474>
30057060:	ebffff0b 	bl	30056c94 <display_char>
30057064:	e3a00082 	mov	r0, #130	; 0x82
30057068:	e3a01078 	mov	r1, #120	; 0x78
3005706c:	e59f22ac 	ldr	r2, [pc, #684]	; 30057320 <lcd_test+0x478>
30057070:	ebffff07 	bl	30056c94 <display_char>
30057074:	e3a00092 	mov	r0, #146	; 0x92
30057078:	e3a01078 	mov	r1, #120	; 0x78
3005707c:	e59f22a0 	ldr	r2, [pc, #672]	; 30057324 <lcd_test+0x47c>
30057080:	ebffff03 	bl	30056c94 <display_char>
30057084:	e3a000a2 	mov	r0, #162	; 0xa2
30057088:	e3a01078 	mov	r1, #120	; 0x78
3005708c:	e59f2294 	ldr	r2, [pc, #660]	; 30057328 <lcd_test+0x480>
30057090:	ebfffeff 	bl	30056c94 <display_char>
30057094:	e3a000b2 	mov	r0, #178	; 0xb2
30057098:	e3a01078 	mov	r1, #120	; 0x78
3005709c:	e59f2288 	ldr	r2, [pc, #648]	; 3005732c <lcd_test+0x484>
300570a0:	ebfffefb 	bl	30056c94 <display_char>
300570a4:	e3a000c2 	mov	r0, #194	; 0xc2
300570a8:	e3a01078 	mov	r1, #120	; 0x78
300570ac:	e59f227c 	ldr	r2, [pc, #636]	; 30057330 <lcd_test+0x488>
300570b0:	ebfffef7 	bl	30056c94 <display_char>
300570b4:	e3a00032 	mov	r0, #50	; 0x32
300570b8:	e3a01098 	mov	r1, #152	; 0x98
300570bc:	e59f2270 	ldr	r2, [pc, #624]	; 30057334 <lcd_test+0x48c>
300570c0:	ebfffef3 	bl	30056c94 <display_char>
300570c4:	e3a00042 	mov	r0, #66	; 0x42
300570c8:	e3a01098 	mov	r1, #152	; 0x98
300570cc:	e59f2264 	ldr	r2, [pc, #612]	; 30057338 <lcd_test+0x490>
300570d0:	ebfffeef 	bl	30056c94 <display_char>
300570d4:	e3a00052 	mov	r0, #82	; 0x52
300570d8:	e3a01098 	mov	r1, #152	; 0x98
300570dc:	e59f2258 	ldr	r2, [pc, #600]	; 3005733c <lcd_test+0x494>
300570e0:	ebfffeeb 	bl	30056c94 <display_char>
300570e4:	e3a00062 	mov	r0, #98	; 0x62
300570e8:	e3a01098 	mov	r1, #152	; 0x98
300570ec:	e59f224c 	ldr	r2, [pc, #588]	; 30057340 <lcd_test+0x498>
300570f0:	ebfffee7 	bl	30056c94 <display_char>
300570f4:	e3a00072 	mov	r0, #114	; 0x72
300570f8:	e3a01098 	mov	r1, #152	; 0x98
300570fc:	e59f2240 	ldr	r2, [pc, #576]	; 30057344 <lcd_test+0x49c>
30057100:	ebfffee3 	bl	30056c94 <display_char>
30057104:	e3a00082 	mov	r0, #130	; 0x82
30057108:	e3a01098 	mov	r1, #152	; 0x98
3005710c:	e59f2234 	ldr	r2, [pc, #564]	; 30057348 <lcd_test+0x4a0>
30057110:	ebfffedf 	bl	30056c94 <display_char>
30057114:	e3a00092 	mov	r0, #146	; 0x92
30057118:	e3a01098 	mov	r1, #152	; 0x98
3005711c:	e59f2228 	ldr	r2, [pc, #552]	; 3005734c <lcd_test+0x4a4>
30057120:	ebfffedb 	bl	30056c94 <display_char>
30057124:	e3a000a2 	mov	r0, #162	; 0xa2
30057128:	e3a01098 	mov	r1, #152	; 0x98
3005712c:	e59f221c 	ldr	r2, [pc, #540]	; 30057350 <lcd_test+0x4a8>
30057130:	ebfffed7 	bl	30056c94 <display_char>
30057134:	e3a000b2 	mov	r0, #178	; 0xb2
30057138:	e3a01098 	mov	r1, #152	; 0x98
3005713c:	e59f2210 	ldr	r2, [pc, #528]	; 30057354 <lcd_test+0x4ac>
30057140:	ebfffed3 	bl	30056c94 <display_char>
30057144:	e3a000c2 	mov	r0, #194	; 0xc2
30057148:	e3a01098 	mov	r1, #152	; 0x98
3005714c:	e59f2204 	ldr	r2, [pc, #516]	; 30057358 <lcd_test+0x4b0>
30057150:	ebfffecf 	bl	30056c94 <display_char>
30057154:	e3a00032 	mov	r0, #50	; 0x32
30057158:	e3a010b8 	mov	r1, #184	; 0xb8
3005715c:	e59f21f8 	ldr	r2, [pc, #504]	; 3005735c <lcd_test+0x4b4>
30057160:	ebfffecb 	bl	30056c94 <display_char>
30057164:	e3a00042 	mov	r0, #66	; 0x42
30057168:	e3a010b8 	mov	r1, #184	; 0xb8
3005716c:	e59f21ec 	ldr	r2, [pc, #492]	; 30057360 <lcd_test+0x4b8>
30057170:	ebfffec7 	bl	30056c94 <display_char>
30057174:	e3a00052 	mov	r0, #82	; 0x52
30057178:	e3a010b8 	mov	r1, #184	; 0xb8
3005717c:	e59f21e0 	ldr	r2, [pc, #480]	; 30057364 <lcd_test+0x4bc>
30057180:	ebfffec3 	bl	30056c94 <display_char>
30057184:	e3a00062 	mov	r0, #98	; 0x62
30057188:	e3a010b8 	mov	r1, #184	; 0xb8
3005718c:	e59f21d4 	ldr	r2, [pc, #468]	; 30057368 <lcd_test+0x4c0>
30057190:	ebfffebf 	bl	30056c94 <display_char>
30057194:	e3a00072 	mov	r0, #114	; 0x72
30057198:	e3a010b8 	mov	r1, #184	; 0xb8
3005719c:	e59f21c8 	ldr	r2, [pc, #456]	; 3005736c <lcd_test+0x4c4>
300571a0:	ebfffebb 	bl	30056c94 <display_char>
300571a4:	e3a00082 	mov	r0, #130	; 0x82
300571a8:	e3a010b8 	mov	r1, #184	; 0xb8
300571ac:	e59f21bc 	ldr	r2, [pc, #444]	; 30057370 <lcd_test+0x4c8>
300571b0:	ebfffeb7 	bl	30056c94 <display_char>
300571b4:	e3a0097a 	mov	r0, #1998848	; 0x1e8000
300571b8:	e2800d12 	add	r0, r0, #1152	; 0x480
300571bc:	ebffe750 	bl	30050f04 <delay>
300571c0:	e3a00000 	mov	r0, #0	; 0x0
300571c4:	ebfffdd2 	bl	30056914 <lcd_clear_screen>
300571c8:	e24b3018 	sub	r3, fp, #24	; 0x18
300571cc:	e3a00041 	mov	r0, #65	; 0x41
300571d0:	e3a01b3e 	mov	r1, #63488	; 0xf800
300571d4:	e1a02003 	mov	r2, r3
300571d8:	ebffec87 	bl	300523fc <get_template>
300571dc:	e51b3018 	ldr	r3, [fp, #-24]
300571e0:	e3a00032 	mov	r0, #50	; 0x32
300571e4:	e3a010b8 	mov	r1, #184	; 0xb8
300571e8:	e1a02003 	mov	r2, r3
300571ec:	ebfffea8 	bl	30056c94 <display_char>
300571f0:	e24b3018 	sub	r3, fp, #24	; 0x18
300571f4:	e3a00042 	mov	r0, #66	; 0x42
300571f8:	e3a0101f 	mov	r1, #31	; 0x1f
300571fc:	e1a02003 	mov	r2, r3
30057200:	ebffec7d 	bl	300523fc <get_template>
30057204:	e51b3018 	ldr	r3, [fp, #-24]
30057208:	e3a00042 	mov	r0, #66	; 0x42
3005720c:	e3a010b8 	mov	r1, #184	; 0xb8
30057210:	e1a02003 	mov	r2, r3
30057214:	ebfffe9e 	bl	30056c94 <display_char>
30057218:	e24b3018 	sub	r3, fp, #24	; 0x18
3005721c:	e3a00043 	mov	r0, #67	; 0x43
30057220:	e3a01e7e 	mov	r1, #2016	; 0x7e0
30057224:	e1a02003 	mov	r2, r3
30057228:	ebffec73 	bl	300523fc <get_template>
3005722c:	e51b3018 	ldr	r3, [fp, #-24]
30057230:	e3a00052 	mov	r0, #82	; 0x52
30057234:	e3a010b8 	mov	r1, #184	; 0xb8
30057238:	e1a02003 	mov	r2, r3
3005723c:	ebfffe94 	bl	30056c94 <display_char>
30057240:	e51b3018 	ldr	r3, [fp, #-24]
30057244:	e59f0128 	ldr	r0, [pc, #296]	; 30057374 <lcd_test+0x4cc>
30057248:	e1a01003 	mov	r1, r3
3005724c:	ebfff69c 	bl	30054cc4 <printf_string>
30057250:	e51b3018 	ldr	r3, [fp, #-24]
30057254:	e59f011c 	ldr	r0, [pc, #284]	; 30057378 <lcd_test+0x4d0>
30057258:	e1a01003 	mov	r1, r3
3005725c:	ebfff698 	bl	30054cc4 <printf_string>
30057260:	e3a0097a 	mov	r0, #1998848	; 0x1e8000
30057264:	e2800d12 	add	r0, r0, #1152	; 0x480
30057268:	ebffe725 	bl	30050f04 <delay>
3005726c:	e3a00000 	mov	r0, #0	; 0x0
30057270:	ebfffda7 	bl	30056914 <lcd_clear_screen>
30057274:	e3a00032 	mov	r0, #50	; 0x32
30057278:	e3a01014 	mov	r1, #20	; 0x14
3005727c:	e59f20f8 	ldr	r2, [pc, #248]	; 3005737c <lcd_test+0x4d4>
30057280:	e3a03e7e 	mov	r3, #2016	; 0x7e0
30057284:	ebfffee1 	bl	30056e10 <display_string_with_color>
30057288:	e3a00032 	mov	r0, #50	; 0x32
3005728c:	e3a01034 	mov	r1, #52	; 0x34
30057290:	e59f20e8 	ldr	r2, [pc, #232]	; 30057380 <lcd_test+0x4d8>
30057294:	e3a03b3e 	mov	r3, #63488	; 0xf800
30057298:	ebfffedc 	bl	30056e10 <display_string_with_color>
3005729c:	e3a00032 	mov	r0, #50	; 0x32
300572a0:	e3a01054 	mov	r1, #84	; 0x54
300572a4:	e59f20d8 	ldr	r2, [pc, #216]	; 30057384 <lcd_test+0x4dc>
300572a8:	e3a0301f 	mov	r3, #31	; 0x1f
300572ac:	ebfffed7 	bl	30056e10 <display_string_with_color>
300572b0:	e3a00032 	mov	r0, #50	; 0x32
300572b4:	e3a01074 	mov	r1, #116	; 0x74
300572b8:	e59f20c8 	ldr	r2, [pc, #200]	; 30057388 <lcd_test+0x4e0>
300572bc:	e3a03e7e 	mov	r3, #2016	; 0x7e0
300572c0:	ebfffed2 	bl	30056e10 <display_string_with_color>
300572c4:	e3a00032 	mov	r0, #50	; 0x32
300572c8:	e3a01094 	mov	r1, #148	; 0x94
300572cc:	e59f20b8 	ldr	r2, [pc, #184]	; 3005738c <lcd_test+0x4e4>
300572d0:	e3a03b3e 	mov	r3, #63488	; 0xf800
300572d4:	ebfffecd 	bl	30056e10 <display_string_with_color>
300572d8:	e3a0097a 	mov	r0, #1998848	; 0x1e8000
300572dc:	e2800d12 	add	r0, r0, #1152	; 0x480
300572e0:	ebffe707 	bl	30050f04 <delay>
300572e4:	e51b3014 	ldr	r3, [fp, #-20]
300572e8:	e1a00003 	mov	r0, r3
300572ec:	e24bd004 	sub	sp, fp, #4	; 0x4
300572f0:	e8bd4800 	pop	{fp, lr}
300572f4:	e12fff1e 	bx	lr
300572f8:	3005c700 	.word	0x3005c700
300572fc:	3005c670 	.word	0x3005c670
30057300:	3005c718 	.word	0x3005c718
30057304:	3005c728 	.word	0x3005c728
30057308:	3005c73c 	.word	0x3005c73c
3005730c:	3005d028 	.word	0x3005d028
30057310:	3005d12a 	.word	0x3005d12a
30057314:	3005d22c 	.word	0x3005d22c
30057318:	3005d32e 	.word	0x3005d32e
3005731c:	3005d430 	.word	0x3005d430
30057320:	3005d532 	.word	0x3005d532
30057324:	3005d634 	.word	0x3005d634
30057328:	3005d736 	.word	0x3005d736
3005732c:	3005d838 	.word	0x3005d838
30057330:	3005d93a 	.word	0x3005d93a
30057334:	3005da3c 	.word	0x3005da3c
30057338:	3005db3e 	.word	0x3005db3e
3005733c:	3005dc40 	.word	0x3005dc40
30057340:	3005dd42 	.word	0x3005dd42
30057344:	3005de44 	.word	0x3005de44
30057348:	3005df46 	.word	0x3005df46
3005734c:	3005e048 	.word	0x3005e048
30057350:	3005e14a 	.word	0x3005e14a
30057354:	3005e24c 	.word	0x3005e24c
30057358:	3005e34e 	.word	0x3005e34e
3005735c:	3005e450 	.word	0x3005e450
30057360:	3005e552 	.word	0x3005e552
30057364:	3005e654 	.word	0x3005e654
30057368:	3005e756 	.word	0x3005e756
3005736c:	3005e858 	.word	0x3005e858
30057370:	3005e95a 	.word	0x3005e95a
30057374:	3005c750 	.word	0x3005c750
30057378:	3005c768 	.word	0x3005c768
3005737c:	3005c780 	.word	0x3005c780
30057380:	3005c78c 	.word	0x3005c78c
30057384:	3005c790 	.word	0x3005c790
30057388:	3005c798 	.word	0x3005c798
3005738c:	3005c7a0 	.word	0x3005c7a0

30057390 <DmaRegDump>:
30057390:	e92d4800 	push	{fp, lr}
30057394:	e28db004 	add	fp, sp, #4	; 0x4
30057398:	e3a0344b 	mov	r3, #1258291200	; 0x4b000000
3005739c:	e5933000 	ldr	r3, [r3]
300573a0:	e59f00b8 	ldr	r0, [pc, #184]	; 30057460 <DmaRegDump+0xd0>
300573a4:	e1a01003 	mov	r1, r3
300573a8:	ebfff645 	bl	30054cc4 <printf_string>
300573ac:	e3a0344b 	mov	r3, #1258291200	; 0x4b000000
300573b0:	e2833004 	add	r3, r3, #4	; 0x4
300573b4:	e5933000 	ldr	r3, [r3]
300573b8:	e59f00a4 	ldr	r0, [pc, #164]	; 30057464 <DmaRegDump+0xd4>
300573bc:	e1a01003 	mov	r1, r3
300573c0:	ebfff63f 	bl	30054cc4 <printf_string>
300573c4:	e3a0344b 	mov	r3, #1258291200	; 0x4b000000
300573c8:	e2833008 	add	r3, r3, #8	; 0x8
300573cc:	e5933000 	ldr	r3, [r3]
300573d0:	e59f0090 	ldr	r0, [pc, #144]	; 30057468 <DmaRegDump+0xd8>
300573d4:	e1a01003 	mov	r1, r3
300573d8:	ebfff639 	bl	30054cc4 <printf_string>
300573dc:	e3a0344b 	mov	r3, #1258291200	; 0x4b000000
300573e0:	e283300c 	add	r3, r3, #12	; 0xc
300573e4:	e5933000 	ldr	r3, [r3]
300573e8:	e59f007c 	ldr	r0, [pc, #124]	; 3005746c <DmaRegDump+0xdc>
300573ec:	e1a01003 	mov	r1, r3
300573f0:	ebfff633 	bl	30054cc4 <printf_string>
300573f4:	e3a0344b 	mov	r3, #1258291200	; 0x4b000000
300573f8:	e2833010 	add	r3, r3, #16	; 0x10
300573fc:	e5933000 	ldr	r3, [r3]
30057400:	e59f0068 	ldr	r0, [pc, #104]	; 30057470 <DmaRegDump+0xe0>
30057404:	e1a01003 	mov	r1, r3
30057408:	ebfff62d 	bl	30054cc4 <printf_string>
3005740c:	e3a0344b 	mov	r3, #1258291200	; 0x4b000000
30057410:	e2833014 	add	r3, r3, #20	; 0x14
30057414:	e5933000 	ldr	r3, [r3]
30057418:	e59f0054 	ldr	r0, [pc, #84]	; 30057474 <DmaRegDump+0xe4>
3005741c:	e1a01003 	mov	r1, r3
30057420:	ebfff627 	bl	30054cc4 <printf_string>
30057424:	e3a0344b 	mov	r3, #1258291200	; 0x4b000000
30057428:	e2833018 	add	r3, r3, #24	; 0x18
3005742c:	e5933000 	ldr	r3, [r3]
30057430:	e59f0040 	ldr	r0, [pc, #64]	; 30057478 <DmaRegDump+0xe8>
30057434:	e1a01003 	mov	r1, r3
30057438:	ebfff621 	bl	30054cc4 <printf_string>
3005743c:	e3a0344b 	mov	r3, #1258291200	; 0x4b000000
30057440:	e2833020 	add	r3, r3, #32	; 0x20
30057444:	e5933000 	ldr	r3, [r3]
30057448:	e59f002c 	ldr	r0, [pc, #44]	; 3005747c <DmaRegDump+0xec>
3005744c:	e1a01003 	mov	r1, r3
30057450:	ebfff61b 	bl	30054cc4 <printf_string>
30057454:	e24bd004 	sub	sp, fp, #4	; 0x4
30057458:	e8bd4800 	pop	{fp, lr}
3005745c:	e12fff1e 	bx	lr
30057460:	3005c7ac 	.word	0x3005c7ac
30057464:	3005c7bc 	.word	0x3005c7bc
30057468:	3005c7cc 	.word	0x3005c7cc
3005746c:	3005c7dc 	.word	0x3005c7dc
30057470:	3005c7ec 	.word	0x3005c7ec
30057474:	3005c7fc 	.word	0x3005c7fc
30057478:	3005c80c 	.word	0x3005c80c
3005747c:	3005c81c 	.word	0x3005c81c

30057480 <FindOutChannelIndex>:
30057480:	e52db004 	push	{fp}		; (str fp, [sp, #-4]!)
30057484:	e28db000 	add	fp, sp, #0	; 0x0
30057488:	e24dd014 	sub	sp, sp, #20	; 0x14
3005748c:	e50b0010 	str	r0, [fp, #-16]
30057490:	e3e03000 	mvn	r3, #0	; 0x0
30057494:	e50b300c 	str	r3, [fp, #-12]
30057498:	e3a03000 	mov	r3, #0	; 0x0
3005749c:	e50b3008 	str	r3, [fp, #-8]
300574a0:	e3a03000 	mov	r3, #0	; 0x0
300574a4:	e50b3008 	str	r3, [fp, #-8]
300574a8:	ea00000e 	b	300574e8 <FindOutChannelIndex+0x68>
300574ac:	e51b3008 	ldr	r3, [fp, #-8]
300574b0:	e59f1050 	ldr	r1, [pc, #80]	; 30057508 <FindOutChannelIndex+0x88>
300574b4:	e1a02283 	lsl	r2, r3, #5
300574b8:	e1a03102 	lsl	r3, r2, #2
300574bc:	e0623003 	rsb	r3, r2, r3
300574c0:	e0813003 	add	r3, r1, r3
300574c4:	e5932000 	ldr	r2, [r3]
300574c8:	e51b3010 	ldr	r3, [fp, #-16]
300574cc:	e1520003 	cmp	r2, r3
300574d0:	1a000001 	bne	300574dc <FindOutChannelIndex+0x5c>
300574d4:	e51b3008 	ldr	r3, [fp, #-8]
300574d8:	e50b300c 	str	r3, [fp, #-12]
300574dc:	e51b3008 	ldr	r3, [fp, #-8]
300574e0:	e2833001 	add	r3, r3, #1	; 0x1
300574e4:	e50b3008 	str	r3, [fp, #-8]
300574e8:	e51b3008 	ldr	r3, [fp, #-8]
300574ec:	e3530003 	cmp	r3, #3	; 0x3
300574f0:	9affffed 	bls	300574ac <FindOutChannelIndex+0x2c>
300574f4:	e51b300c 	ldr	r3, [fp, #-12]
300574f8:	e1a00003 	mov	r0, r3
300574fc:	e28bd000 	add	sp, fp, #0	; 0x0
30057500:	e8bd0800 	pop	{fp}
30057504:	e12fff1e 	bx	lr
30057508:	3005ec18 	.word	0x3005ec18

3005750c <FindOutSrcIndex>:
3005750c:	e52db004 	push	{fp}		; (str fp, [sp, #-4]!)
30057510:	e28db000 	add	fp, sp, #0	; 0x0
30057514:	e24dd014 	sub	sp, sp, #20	; 0x14
30057518:	e50b0010 	str	r0, [fp, #-16]
3005751c:	e3e03000 	mvn	r3, #0	; 0x0
30057520:	e50b300c 	str	r3, [fp, #-12]
30057524:	e3a03000 	mov	r3, #0	; 0x0
30057528:	e50b3008 	str	r3, [fp, #-8]
3005752c:	e3a03000 	mov	r3, #0	; 0x0
30057530:	e50b3008 	str	r3, [fp, #-8]
30057534:	ea00000e 	b	30057574 <FindOutSrcIndex+0x68>
30057538:	e51b3008 	ldr	r3, [fp, #-8]
3005753c:	e59f1050 	ldr	r1, [pc, #80]	; 30057594 <FindOutSrcIndex+0x88>
30057540:	e1a02203 	lsl	r2, r3, #4
30057544:	e1a03182 	lsl	r3, r2, #3
30057548:	e0623003 	rsb	r3, r2, r3
3005754c:	e0813003 	add	r3, r1, r3
30057550:	e5932000 	ldr	r2, [r3]
30057554:	e51b3010 	ldr	r3, [fp, #-16]
30057558:	e1520003 	cmp	r2, r3
3005755c:	1a000001 	bne	30057568 <FindOutSrcIndex+0x5c>
30057560:	e51b3008 	ldr	r3, [fp, #-8]
30057564:	e50b300c 	str	r3, [fp, #-12]
30057568:	e51b3008 	ldr	r3, [fp, #-8]
3005756c:	e2833001 	add	r3, r3, #1	; 0x1
30057570:	e50b3008 	str	r3, [fp, #-8]
30057574:	e51b3008 	ldr	r3, [fp, #-8]
30057578:	e3530001 	cmp	r3, #1	; 0x1
3005757c:	9affffed 	bls	30057538 <FindOutSrcIndex+0x2c>
30057580:	e51b300c 	ldr	r3, [fp, #-12]
30057584:	e1a00003 	mov	r0, r3
30057588:	e28bd000 	add	sp, fp, #0	; 0x0
3005758c:	e8bd0800 	pop	{fp}
30057590:	e12fff1e 	bx	lr
30057594:	3005eb38 	.word	0x3005eb38

30057598 <DmaSrcSet>:
30057598:	e92d4800 	push	{fp, lr}
3005759c:	e28db004 	add	fp, sp, #4	; 0x4
300575a0:	e24dd018 	sub	sp, sp, #24	; 0x18
300575a4:	e50b0018 	str	r0, [fp, #-24]
300575a8:	e50b101c 	str	r1, [fp, #-28]
300575ac:	e3a03000 	mov	r3, #0	; 0x0
300575b0:	e50b3010 	str	r3, [fp, #-16]
300575b4:	e3e03000 	mvn	r3, #0	; 0x0
300575b8:	e50b300c 	str	r3, [fp, #-12]
300575bc:	e3e03000 	mvn	r3, #0	; 0x0
300575c0:	e50b3008 	str	r3, [fp, #-8]
300575c4:	e51b0018 	ldr	r0, [fp, #-24]
300575c8:	ebffffac 	bl	30057480 <FindOutChannelIndex>
300575cc:	e1a03000 	mov	r3, r0
300575d0:	e50b300c 	str	r3, [fp, #-12]
300575d4:	e51b001c 	ldr	r0, [fp, #-28]
300575d8:	ebffffcb 	bl	3005750c <FindOutSrcIndex>
300575dc:	e1a03000 	mov	r3, r0
300575e0:	e50b3008 	str	r3, [fp, #-8]
300575e4:	e51b300c 	ldr	r3, [fp, #-12]
300575e8:	e3530000 	cmp	r3, #0	; 0x0
300575ec:	ba00002a 	blt	3005769c <DmaSrcSet+0x104>
300575f0:	e51b3008 	ldr	r3, [fp, #-8]
300575f4:	e3530000 	cmp	r3, #0	; 0x0
300575f8:	ba000027 	blt	3005769c <DmaSrcSet+0x104>
300575fc:	e51b300c 	ldr	r3, [fp, #-12]
30057600:	e59f10b8 	ldr	r1, [pc, #184]	; 300576c0 <DmaSrcSet+0x128>
30057604:	e3a0003c 	mov	r0, #60	; 0x3c
30057608:	e1a02283 	lsl	r2, r3, #5
3005760c:	e1a03102 	lsl	r3, r2, #2
30057610:	e0623003 	rsb	r3, r2, r3
30057614:	e0813003 	add	r3, r1, r3
30057618:	e0833000 	add	r3, r3, r0
3005761c:	e593c000 	ldr	ip, [r3]
30057620:	e51b3008 	ldr	r3, [fp, #-8]
30057624:	e59f1098 	ldr	r1, [pc, #152]	; 300576c4 <DmaSrcSet+0x12c>
30057628:	e3a00068 	mov	r0, #104	; 0x68
3005762c:	e1a02203 	lsl	r2, r3, #4
30057630:	e1a03182 	lsl	r3, r2, #3
30057634:	e0623003 	rsb	r3, r2, r3
30057638:	e0813003 	add	r3, r1, r3
3005763c:	e0833000 	add	r3, r3, r0
30057640:	e5933000 	ldr	r3, [r3]
30057644:	e58c3000 	str	r3, [ip]
30057648:	e51b300c 	ldr	r3, [fp, #-12]
3005764c:	e59f106c 	ldr	r1, [pc, #108]	; 300576c0 <DmaSrcSet+0x128>
30057650:	e3a00040 	mov	r0, #64	; 0x40
30057654:	e1a02283 	lsl	r2, r3, #5
30057658:	e1a03102 	lsl	r3, r2, #2
3005765c:	e0623003 	rsb	r3, r2, r3
30057660:	e0813003 	add	r3, r1, r3
30057664:	e0833000 	add	r3, r3, r0
30057668:	e593c000 	ldr	ip, [r3]
3005766c:	e51b3008 	ldr	r3, [fp, #-8]
30057670:	e59f104c 	ldr	r1, [pc, #76]	; 300576c4 <DmaSrcSet+0x12c>
30057674:	e3a00068 	mov	r0, #104	; 0x68
30057678:	e1a02203 	lsl	r2, r3, #4
3005767c:	e1a03182 	lsl	r3, r2, #3
30057680:	e0623003 	rsb	r3, r2, r3
30057684:	e0813003 	add	r3, r1, r3
30057688:	e0833000 	add	r3, r3, r0
3005768c:	e5d33005 	ldrb	r3, [r3, #5]
30057690:	e2033003 	and	r3, r3, #3	; 0x3
30057694:	e58c3000 	str	r3, [ip]
30057698:	ea000003 	b	300576ac <DmaSrcSet+0x114>
3005769c:	e59f0024 	ldr	r0, [pc, #36]	; 300576c8 <DmaSrcSet+0x130>
300576a0:	ebfff587 	bl	30054cc4 <printf_string>
300576a4:	e3e03000 	mvn	r3, #0	; 0x0
300576a8:	e50b3010 	str	r3, [fp, #-16]
300576ac:	e51b3010 	ldr	r3, [fp, #-16]
300576b0:	e1a00003 	mov	r0, r3
300576b4:	e24bd004 	sub	sp, fp, #4	; 0x4
300576b8:	e8bd4800 	pop	{fp, lr}
300576bc:	e12fff1e 	bx	lr
300576c0:	3005ec18 	.word	0x3005ec18
300576c4:	3005eb38 	.word	0x3005eb38
300576c8:	3005c830 	.word	0x3005c830

300576cc <DmaDstSet>:
300576cc:	e92d4800 	push	{fp, lr}
300576d0:	e28db004 	add	fp, sp, #4	; 0x4
300576d4:	e24dd018 	sub	sp, sp, #24	; 0x18
300576d8:	e50b0018 	str	r0, [fp, #-24]
300576dc:	e50b101c 	str	r1, [fp, #-28]
300576e0:	e3a03000 	mov	r3, #0	; 0x0
300576e4:	e50b3010 	str	r3, [fp, #-16]
300576e8:	e3e03000 	mvn	r3, #0	; 0x0
300576ec:	e50b300c 	str	r3, [fp, #-12]
300576f0:	e3e03000 	mvn	r3, #0	; 0x0
300576f4:	e50b3008 	str	r3, [fp, #-8]
300576f8:	e51b0018 	ldr	r0, [fp, #-24]
300576fc:	ebffff5f 	bl	30057480 <FindOutChannelIndex>
30057700:	e1a03000 	mov	r3, r0
30057704:	e50b300c 	str	r3, [fp, #-12]
30057708:	e51b001c 	ldr	r0, [fp, #-28]
3005770c:	ebffff7e 	bl	3005750c <FindOutSrcIndex>
30057710:	e1a03000 	mov	r3, r0
30057714:	e50b3008 	str	r3, [fp, #-8]
30057718:	e51b300c 	ldr	r3, [fp, #-12]
3005771c:	e3530000 	cmp	r3, #0	; 0x0
30057720:	ba00002a 	blt	300577d0 <DmaDstSet+0x104>
30057724:	e51b3008 	ldr	r3, [fp, #-8]
30057728:	e3530000 	cmp	r3, #0	; 0x0
3005772c:	ba000027 	blt	300577d0 <DmaDstSet+0x104>
30057730:	e51b300c 	ldr	r3, [fp, #-12]
30057734:	e59f10b8 	ldr	r1, [pc, #184]	; 300577f4 <DmaDstSet+0x128>
30057738:	e3a00044 	mov	r0, #68	; 0x44
3005773c:	e1a02283 	lsl	r2, r3, #5
30057740:	e1a03102 	lsl	r3, r2, #2
30057744:	e0623003 	rsb	r3, r2, r3
30057748:	e0813003 	add	r3, r1, r3
3005774c:	e0833000 	add	r3, r3, r0
30057750:	e593c000 	ldr	ip, [r3]
30057754:	e51b3008 	ldr	r3, [fp, #-8]
30057758:	e59f1098 	ldr	r1, [pc, #152]	; 300577f8 <DmaDstSet+0x12c>
3005775c:	e3a00068 	mov	r0, #104	; 0x68
30057760:	e1a02203 	lsl	r2, r3, #4
30057764:	e1a03182 	lsl	r3, r2, #3
30057768:	e0623003 	rsb	r3, r2, r3
3005776c:	e0813003 	add	r3, r1, r3
30057770:	e0833000 	add	r3, r3, r0
30057774:	e5933000 	ldr	r3, [r3]
30057778:	e58c3000 	str	r3, [ip]
3005777c:	e51b300c 	ldr	r3, [fp, #-12]
30057780:	e59f106c 	ldr	r1, [pc, #108]	; 300577f4 <DmaDstSet+0x128>
30057784:	e3a00048 	mov	r0, #72	; 0x48
30057788:	e1a02283 	lsl	r2, r3, #5
3005778c:	e1a03102 	lsl	r3, r2, #2
30057790:	e0623003 	rsb	r3, r2, r3
30057794:	e0813003 	add	r3, r1, r3
30057798:	e0833000 	add	r3, r3, r0
3005779c:	e593c000 	ldr	ip, [r3]
300577a0:	e51b3008 	ldr	r3, [fp, #-8]
300577a4:	e59f104c 	ldr	r1, [pc, #76]	; 300577f8 <DmaDstSet+0x12c>
300577a8:	e3a00068 	mov	r0, #104	; 0x68
300577ac:	e1a02203 	lsl	r2, r3, #4
300577b0:	e1a03182 	lsl	r3, r2, #3
300577b4:	e0623003 	rsb	r3, r2, r3
300577b8:	e0813003 	add	r3, r1, r3
300577bc:	e0833000 	add	r3, r3, r0
300577c0:	e5d33005 	ldrb	r3, [r3, #5]
300577c4:	e2033007 	and	r3, r3, #7	; 0x7
300577c8:	e58c3000 	str	r3, [ip]
300577cc:	ea000003 	b	300577e0 <DmaDstSet+0x114>
300577d0:	e59f0024 	ldr	r0, [pc, #36]	; 300577fc <DmaDstSet+0x130>
300577d4:	ebfff53a 	bl	30054cc4 <printf_string>
300577d8:	e3e03000 	mvn	r3, #0	; 0x0
300577dc:	e50b3010 	str	r3, [fp, #-16]
300577e0:	e51b3010 	ldr	r3, [fp, #-16]
300577e4:	e1a00003 	mov	r0, r3
300577e8:	e24bd004 	sub	sp, fp, #4	; 0x4
300577ec:	e8bd4800 	pop	{fp, lr}
300577f0:	e12fff1e 	bx	lr
300577f4:	3005ec18 	.word	0x3005ec18
300577f8:	3005eb38 	.word	0x3005eb38
300577fc:	3005c860 	.word	0x3005c860

30057800 <DmaHwSel>:
30057800:	e92d4800 	push	{fp, lr}
30057804:	e28db004 	add	fp, sp, #4	; 0x4
30057808:	e24dd018 	sub	sp, sp, #24	; 0x18
3005780c:	e50b0018 	str	r0, [fp, #-24]
30057810:	e50b101c 	str	r1, [fp, #-28]
30057814:	e3a03000 	mov	r3, #0	; 0x0
30057818:	e50b3010 	str	r3, [fp, #-16]
3005781c:	e3e03000 	mvn	r3, #0	; 0x0
30057820:	e50b300c 	str	r3, [fp, #-12]
30057824:	e3e03000 	mvn	r3, #0	; 0x0
30057828:	e50b3008 	str	r3, [fp, #-8]
3005782c:	e51b0018 	ldr	r0, [fp, #-24]
30057830:	ebffff12 	bl	30057480 <FindOutChannelIndex>
30057834:	e1a03000 	mov	r3, r0
30057838:	e50b300c 	str	r3, [fp, #-12]
3005783c:	e51b300c 	ldr	r3, [fp, #-12]
30057840:	e3530000 	cmp	r3, #0	; 0x0
30057844:	ba000025 	blt	300578e0 <DmaHwSel+0xe0>
30057848:	e3a03000 	mov	r3, #0	; 0x0
3005784c:	e50b3008 	str	r3, [fp, #-8]
30057850:	ea00001e 	b	300578d0 <DmaHwSel+0xd0>
30057854:	e51b300c 	ldr	r3, [fp, #-12]
30057858:	e51b1008 	ldr	r1, [fp, #-8]
3005785c:	e59f0098 	ldr	r0, [pc, #152]	; 300578fc <DmaHwSel+0xfc>
30057860:	e1a02103 	lsl	r2, r3, #2
30057864:	e1a03102 	lsl	r3, r2, #2
30057868:	e0623003 	rsb	r3, r2, r3
3005786c:	e0833001 	add	r3, r3, r1
30057870:	e3a02004 	mov	r2, #4	; 0x4
30057874:	e1a03183 	lsl	r3, r3, #3
30057878:	e0803003 	add	r3, r0, r3
3005787c:	e0833002 	add	r3, r3, r2
30057880:	e5932000 	ldr	r2, [r3]
30057884:	e51b301c 	ldr	r3, [fp, #-28]
30057888:	e1520003 	cmp	r2, r3
3005788c:	1a00000c 	bne	300578c4 <DmaHwSel+0xc4>
30057890:	e51b300c 	ldr	r3, [fp, #-12]
30057894:	e51b1008 	ldr	r1, [fp, #-8]
30057898:	e59f005c 	ldr	r0, [pc, #92]	; 300578fc <DmaHwSel+0xfc>
3005789c:	e1a02103 	lsl	r2, r3, #2
300578a0:	e1a03102 	lsl	r3, r2, #2
300578a4:	e0623003 	rsb	r3, r2, r3
300578a8:	e0833001 	add	r3, r3, r1
300578ac:	e3a02008 	mov	r2, #8	; 0x8
300578b0:	e1a03183 	lsl	r3, r3, #3
300578b4:	e0803003 	add	r3, r0, r3
300578b8:	e0833002 	add	r3, r3, r2
300578bc:	e5933000 	ldr	r3, [r3]
300578c0:	e50b3010 	str	r3, [fp, #-16]
300578c4:	e51b3008 	ldr	r3, [fp, #-8]
300578c8:	e2833001 	add	r3, r3, #1	; 0x1
300578cc:	e50b3008 	str	r3, [fp, #-8]
300578d0:	e51b3008 	ldr	r3, [fp, #-8]
300578d4:	e3530006 	cmp	r3, #6	; 0x6
300578d8:	daffffdd 	ble	30057854 <DmaHwSel+0x54>
300578dc:	ea000001 	b	300578e8 <DmaHwSel+0xe8>
300578e0:	e59f0018 	ldr	r0, [pc, #24]	; 30057900 <DmaHwSel+0x100>
300578e4:	ebfff4f6 	bl	30054cc4 <printf_string>
300578e8:	e51b3010 	ldr	r3, [fp, #-16]
300578ec:	e1a00003 	mov	r0, r3
300578f0:	e24bd004 	sub	sp, fp, #4	; 0x4
300578f4:	e8bd4800 	pop	{fp, lr}
300578f8:	e12fff1e 	bx	lr
300578fc:	3005ec18 	.word	0x3005ec18
30057900:	3005c890 	.word	0x3005c890

30057904 <DmaCtlSet>:
30057904:	e92d4800 	push	{fp, lr}
30057908:	e28db004 	add	fp, sp, #4	; 0x4
3005790c:	e24dd010 	sub	sp, sp, #16	; 0x10
30057910:	e50b0010 	str	r0, [fp, #-16]
30057914:	e50b1014 	str	r1, [fp, #-20]
30057918:	e3e03000 	mvn	r3, #0	; 0x0
3005791c:	e50b3008 	str	r3, [fp, #-8]
30057920:	e51b0010 	ldr	r0, [fp, #-16]
30057924:	ebfffed5 	bl	30057480 <FindOutChannelIndex>
30057928:	e1a03000 	mov	r3, r0
3005792c:	e50b3008 	str	r3, [fp, #-8]
30057930:	e51b3008 	ldr	r3, [fp, #-8]
30057934:	e3530000 	cmp	r3, #0	; 0x0
30057938:	ba00000b 	blt	3005796c <DmaCtlSet+0x68>
3005793c:	e51b3008 	ldr	r3, [fp, #-8]
30057940:	e59f1038 	ldr	r1, [pc, #56]	; 30057980 <DmaCtlSet+0x7c>
30057944:	e3a0004c 	mov	r0, #76	; 0x4c
30057948:	e1a02283 	lsl	r2, r3, #5
3005794c:	e1a03102 	lsl	r3, r2, #2
30057950:	e0623003 	rsb	r3, r2, r3
30057954:	e0813003 	add	r3, r1, r3
30057958:	e0833000 	add	r3, r3, r0
3005795c:	e5932000 	ldr	r2, [r3]
30057960:	e51b3014 	ldr	r3, [fp, #-20]
30057964:	e5823000 	str	r3, [r2]
30057968:	ea000001 	b	30057974 <DmaCtlSet+0x70>
3005796c:	e59f0010 	ldr	r0, [pc, #16]	; 30057984 <DmaCtlSet+0x80>
30057970:	ebfff4d3 	bl	30054cc4 <printf_string>
30057974:	e24bd004 	sub	sp, fp, #4	; 0x4
30057978:	e8bd4800 	pop	{fp, lr}
3005797c:	e12fff1e 	bx	lr
30057980:	3005ec18 	.word	0x3005ec18
30057984:	3005c8b4 	.word	0x3005c8b4

30057988 <DmaOffOn>:
30057988:	e92d4800 	push	{fp, lr}
3005798c:	e28db004 	add	fp, sp, #4	; 0x4
30057990:	e24dd010 	sub	sp, sp, #16	; 0x10
30057994:	e50b0010 	str	r0, [fp, #-16]
30057998:	e1a03001 	mov	r3, r1
3005799c:	e54b3011 	strb	r3, [fp, #-17]
300579a0:	e3e03000 	mvn	r3, #0	; 0x0
300579a4:	e50b3008 	str	r3, [fp, #-8]
300579a8:	e51b0010 	ldr	r0, [fp, #-16]
300579ac:	ebfffeb3 	bl	30057480 <FindOutChannelIndex>
300579b0:	e1a03000 	mov	r3, r0
300579b4:	e50b3008 	str	r3, [fp, #-8]
300579b8:	e51b3008 	ldr	r3, [fp, #-8]
300579bc:	e3530000 	cmp	r3, #0	; 0x0
300579c0:	ba00002e 	blt	30057a80 <DmaOffOn+0xf8>
300579c4:	e55b3011 	ldrb	r3, [fp, #-17]
300579c8:	e3530000 	cmp	r3, #0	; 0x0
300579cc:	0a000015 	beq	30057a28 <DmaOffOn+0xa0>
300579d0:	e51b3008 	ldr	r3, [fp, #-8]
300579d4:	e59f10b8 	ldr	r1, [pc, #184]	; 30057a94 <DmaOffOn+0x10c>
300579d8:	e3a0005c 	mov	r0, #92	; 0x5c
300579dc:	e1a02283 	lsl	r2, r3, #5
300579e0:	e1a03102 	lsl	r3, r2, #2
300579e4:	e0623003 	rsb	r3, r2, r3
300579e8:	e0813003 	add	r3, r1, r3
300579ec:	e0833000 	add	r3, r3, r0
300579f0:	e593c000 	ldr	ip, [r3]
300579f4:	e51b3008 	ldr	r3, [fp, #-8]
300579f8:	e59f1094 	ldr	r1, [pc, #148]	; 30057a94 <DmaOffOn+0x10c>
300579fc:	e3a0005c 	mov	r0, #92	; 0x5c
30057a00:	e1a02283 	lsl	r2, r3, #5
30057a04:	e1a03102 	lsl	r3, r2, #2
30057a08:	e0623003 	rsb	r3, r2, r3
30057a0c:	e0813003 	add	r3, r1, r3
30057a10:	e0833000 	add	r3, r3, r0
30057a14:	e5933000 	ldr	r3, [r3]
30057a18:	e5933000 	ldr	r3, [r3]
30057a1c:	e3833002 	orr	r3, r3, #2	; 0x2
30057a20:	e58c3000 	str	r3, [ip]
30057a24:	ea000017 	b	30057a88 <DmaOffOn+0x100>
30057a28:	e51b3008 	ldr	r3, [fp, #-8]
30057a2c:	e59f1060 	ldr	r1, [pc, #96]	; 30057a94 <DmaOffOn+0x10c>
30057a30:	e3a0005c 	mov	r0, #92	; 0x5c
30057a34:	e1a02283 	lsl	r2, r3, #5
30057a38:	e1a03102 	lsl	r3, r2, #2
30057a3c:	e0623003 	rsb	r3, r2, r3
30057a40:	e0813003 	add	r3, r1, r3
30057a44:	e0833000 	add	r3, r3, r0
30057a48:	e593c000 	ldr	ip, [r3]
30057a4c:	e51b3008 	ldr	r3, [fp, #-8]
30057a50:	e59f103c 	ldr	r1, [pc, #60]	; 30057a94 <DmaOffOn+0x10c>
30057a54:	e3a0005c 	mov	r0, #92	; 0x5c
30057a58:	e1a02283 	lsl	r2, r3, #5
30057a5c:	e1a03102 	lsl	r3, r2, #2
30057a60:	e0623003 	rsb	r3, r2, r3
30057a64:	e0813003 	add	r3, r1, r3
30057a68:	e0833000 	add	r3, r3, r0
30057a6c:	e5933000 	ldr	r3, [r3]
30057a70:	e5933000 	ldr	r3, [r3]
30057a74:	e3c33002 	bic	r3, r3, #2	; 0x2
30057a78:	e58c3000 	str	r3, [ip]
30057a7c:	ea000001 	b	30057a88 <DmaOffOn+0x100>
30057a80:	e59f0010 	ldr	r0, [pc, #16]	; 30057a98 <DmaOffOn+0x110>
30057a84:	ebfff48e 	bl	30054cc4 <printf_string>
30057a88:	e24bd004 	sub	sp, fp, #4	; 0x4
30057a8c:	e8bd4800 	pop	{fp, lr}
30057a90:	e12fff1e 	bx	lr
30057a94:	3005ec18 	.word	0x3005ec18
30057a98:	3005c8d8 	.word	0x3005c8d8

30057a9c <DmaStop>:
30057a9c:	e92d4800 	push	{fp, lr}
30057aa0:	e28db004 	add	fp, sp, #4	; 0x4
30057aa4:	e24dd010 	sub	sp, sp, #16	; 0x10
30057aa8:	e50b0010 	str	r0, [fp, #-16]
30057aac:	e3e03000 	mvn	r3, #0	; 0x0
30057ab0:	e50b3008 	str	r3, [fp, #-8]
30057ab4:	e51b0010 	ldr	r0, [fp, #-16]
30057ab8:	ebfffe70 	bl	30057480 <FindOutChannelIndex>
30057abc:	e1a03000 	mov	r3, r0
30057ac0:	e50b3008 	str	r3, [fp, #-8]
30057ac4:	e51b3008 	ldr	r3, [fp, #-8]
30057ac8:	e3530000 	cmp	r3, #0	; 0x0
30057acc:	ba000015 	blt	30057b28 <DmaStop+0x8c>
30057ad0:	e51b3008 	ldr	r3, [fp, #-8]
30057ad4:	e59f1060 	ldr	r1, [pc, #96]	; 30057b3c <DmaStop+0xa0>
30057ad8:	e3a0005c 	mov	r0, #92	; 0x5c
30057adc:	e1a02283 	lsl	r2, r3, #5
30057ae0:	e1a03102 	lsl	r3, r2, #2
30057ae4:	e0623003 	rsb	r3, r2, r3
30057ae8:	e0813003 	add	r3, r1, r3
30057aec:	e0833000 	add	r3, r3, r0
30057af0:	e593c000 	ldr	ip, [r3]
30057af4:	e51b3008 	ldr	r3, [fp, #-8]
30057af8:	e59f103c 	ldr	r1, [pc, #60]	; 30057b3c <DmaStop+0xa0>
30057afc:	e3a0005c 	mov	r0, #92	; 0x5c
30057b00:	e1a02283 	lsl	r2, r3, #5
30057b04:	e1a03102 	lsl	r3, r2, #2
30057b08:	e0623003 	rsb	r3, r2, r3
30057b0c:	e0813003 	add	r3, r1, r3
30057b10:	e0833000 	add	r3, r3, r0
30057b14:	e5933000 	ldr	r3, [r3]
30057b18:	e5933000 	ldr	r3, [r3]
30057b1c:	e3833008 	orr	r3, r3, #8	; 0x8
30057b20:	e58c3000 	str	r3, [ip]
30057b24:	ea000001 	b	30057b30 <DmaStop+0x94>
30057b28:	e59f0010 	ldr	r0, [pc, #16]	; 30057b40 <DmaStop+0xa4>
30057b2c:	ebfff464 	bl	30054cc4 <printf_string>
30057b30:	e24bd004 	sub	sp, fp, #4	; 0x4
30057b34:	e8bd4800 	pop	{fp, lr}
30057b38:	e12fff1e 	bx	lr
30057b3c:	3005ec18 	.word	0x3005ec18
30057b40:	3005c8fc 	.word	0x3005c8fc

30057b44 <Test>:
30057b44:	e92d4800 	push	{fp, lr}
30057b48:	e28db004 	add	fp, sp, #4	; 0x4
30057b4c:	e24dd008 	sub	sp, sp, #8	; 0x8
30057b50:	e3a03000 	mov	r3, #0	; 0x0
30057b54:	e50b3008 	str	r3, [fp, #-8]
30057b58:	e3a00000 	mov	r0, #0	; 0x0
30057b5c:	e3a01012 	mov	r1, #18	; 0x12
30057b60:	ebfffe8c 	bl	30057598 <DmaSrcSet>
30057b64:	e3a00000 	mov	r0, #0	; 0x0
30057b68:	e3a01001 	mov	r1, #1	; 0x1
30057b6c:	ebfffed6 	bl	300576cc <DmaDstSet>
30057b70:	e3a00000 	mov	r0, #0	; 0x0
30057b74:	e3a01001 	mov	r1, #1	; 0x1
30057b78:	ebffff20 	bl	30057800 <DmaHwSel>
30057b7c:	e1a03000 	mov	r3, r0
30057b80:	e50b3008 	str	r3, [fp, #-8]
30057b84:	e51b3008 	ldr	r3, [fp, #-8]
30057b88:	e3833503 	orr	r3, r3, #12582912	; 0xc00000
30057b8c:	e383302c 	orr	r3, r3, #44	; 0x2c
30057b90:	e50b3008 	str	r3, [fp, #-8]
30057b94:	e3a00000 	mov	r0, #0	; 0x0
30057b98:	e51b1008 	ldr	r1, [fp, #-8]
30057b9c:	ebffff58 	bl	30057904 <DmaCtlSet>
30057ba0:	e3a02245 	mov	r2, #1342177284	; 0x50000004
30057ba4:	e3a03245 	mov	r3, #1342177284	; 0x50000004
30057ba8:	e5933000 	ldr	r3, [r3]
30057bac:	e3c3300c 	bic	r3, r3, #12	; 0xc
30057bb0:	e5823000 	str	r3, [r2]
30057bb4:	e3a02245 	mov	r2, #1342177284	; 0x50000004
30057bb8:	e3a03245 	mov	r3, #1342177284	; 0x50000004
30057bbc:	e5933000 	ldr	r3, [r3]
30057bc0:	e3833008 	orr	r3, r3, #8	; 0x8
30057bc4:	e5823000 	str	r3, [r2]
30057bc8:	e3a00000 	mov	r0, #0	; 0x0
30057bcc:	e3a01001 	mov	r1, #1	; 0x1
30057bd0:	ebffff6c 	bl	30057988 <DmaOffOn>
30057bd4:	e3a00b61 	mov	r0, #99328	; 0x18400
30057bd8:	e2800e2a 	add	r0, r0, #672	; 0x2a0
30057bdc:	ebffe4c8 	bl	30050f04 <delay>
30057be0:	e3a00000 	mov	r0, #0	; 0x0
30057be4:	ebffffac 	bl	30057a9c <DmaStop>
30057be8:	e3a00000 	mov	r0, #0	; 0x0
30057bec:	e3a01000 	mov	r1, #0	; 0x0
30057bf0:	ebffff64 	bl	30057988 <DmaOffOn>
30057bf4:	e24bd004 	sub	sp, fp, #4	; 0x4
30057bf8:	e8bd4800 	pop	{fp, lr}
30057bfc:	e12fff1e 	bx	lr

30057c00 <dma_init>:
30057c00:	e52db004 	push	{fp}		; (str fp, [sp, #-4]!)
30057c04:	e28db000 	add	fp, sp, #0	; 0x0
30057c08:	e3a02456 	mov	r2, #1442840576	; 0x56000000
30057c0c:	e2822010 	add	r2, r2, #16	; 0x10
30057c10:	e3a03456 	mov	r3, #1442840576	; 0x56000000
30057c14:	e2833010 	add	r3, r3, #16	; 0x10
30057c18:	e5933000 	ldr	r3, [r3]
30057c1c:	e3c3370f 	bic	r3, r3, #3932160	; 0x3c0000
30057c20:	e5823000 	str	r3, [r2]
30057c24:	e3a02456 	mov	r2, #1442840576	; 0x56000000
30057c28:	e2822010 	add	r2, r2, #16	; 0x10
30057c2c:	e3a03456 	mov	r3, #1442840576	; 0x56000000
30057c30:	e2833010 	add	r3, r3, #16	; 0x10
30057c34:	e5933000 	ldr	r3, [r3]
30057c38:	e383370a 	orr	r3, r3, #2621440	; 0x280000
30057c3c:	e5823000 	str	r3, [r2]
30057c40:	e3a0244b 	mov	r2, #1258291200	; 0x4b000000
30057c44:	e59f3054 	ldr	r3, [pc, #84]	; 30057ca0 <dma_init+0xa0>
30057c48:	e5823000 	str	r3, [r2]
30057c4c:	e3a0344b 	mov	r3, #1258291200	; 0x4b000000
30057c50:	e2833004 	add	r3, r3, #4	; 0x4
30057c54:	e3a02000 	mov	r2, #0	; 0x0
30057c58:	e5832000 	str	r2, [r3]
30057c5c:	e3a0244b 	mov	r2, #1258291200	; 0x4b000000
30057c60:	e2822008 	add	r2, r2, #8	; 0x8
30057c64:	e3a03205 	mov	r3, #1342177280	; 0x50000000
30057c68:	e2833020 	add	r3, r3, #32	; 0x20
30057c6c:	e5823000 	str	r3, [r2]
30057c70:	e3a0344b 	mov	r3, #1258291200	; 0x4b000000
30057c74:	e283300c 	add	r3, r3, #12	; 0xc
30057c78:	e3a02003 	mov	r2, #3	; 0x3
30057c7c:	e5832000 	str	r2, [r3]
30057c80:	e3a0244b 	mov	r2, #1258291200	; 0x4b000000
30057c84:	e2822010 	add	r2, r2, #16	; 0x10
30057c88:	e3a03507 	mov	r3, #29360128	; 0x1c00000
30057c8c:	e283300c 	add	r3, r3, #12	; 0xc
30057c90:	e5823000 	str	r3, [r2]
30057c94:	e28bd000 	add	sp, fp, #0	; 0x0
30057c98:	e8bd0800 	pop	{fp}
30057c9c:	e12fff1e 	bx	lr
30057ca0:	3005eb08 	.word	0x3005eb08

30057ca4 <dma_send_data>:
30057ca4:	e52db004 	push	{fp}		; (str fp, [sp, #-4]!)
30057ca8:	e28db000 	add	fp, sp, #0	; 0x0
30057cac:	e3a02245 	mov	r2, #1342177284	; 0x50000004
30057cb0:	e3a03245 	mov	r3, #1342177284	; 0x50000004
30057cb4:	e5933000 	ldr	r3, [r3]
30057cb8:	e3c3300c 	bic	r3, r3, #12	; 0xc
30057cbc:	e5823000 	str	r3, [r2]
30057cc0:	e3a02245 	mov	r2, #1342177284	; 0x50000004
30057cc4:	e3a03245 	mov	r3, #1342177284	; 0x50000004
30057cc8:	e5933000 	ldr	r3, [r3]
30057ccc:	e3833008 	orr	r3, r3, #8	; 0x8
30057cd0:	e5823000 	str	r3, [r2]
30057cd4:	e3a0344b 	mov	r3, #1258291200	; 0x4b000000
30057cd8:	e2833020 	add	r3, r3, #32	; 0x20
30057cdc:	e3a02002 	mov	r2, #2	; 0x2
30057ce0:	e5832000 	str	r2, [r3]
30057ce4:	e28bd000 	add	sp, fp, #0	; 0x0
30057ce8:	e8bd0800 	pop	{fp}
30057cec:	e12fff1e 	bx	lr

30057cf0 <dma_send_clear>:
30057cf0:	e52db004 	push	{fp}		; (str fp, [sp, #-4]!)
30057cf4:	e28db000 	add	fp, sp, #0	; 0x0
30057cf8:	e3a02245 	mov	r2, #1342177284	; 0x50000004
30057cfc:	e3a03005 	mov	r3, #5	; 0x5
30057d00:	e5823000 	str	r3, [r2]
30057d04:	e3a0344b 	mov	r3, #1258291200	; 0x4b000000
30057d08:	e2833020 	add	r3, r3, #32	; 0x20
30057d0c:	e3a02000 	mov	r2, #0	; 0x0
30057d10:	e5832000 	str	r2, [r3]
30057d14:	e28bd000 	add	sp, fp, #0	; 0x0
30057d18:	e8bd0800 	pop	{fp}
30057d1c:	e12fff1e 	bx	lr

30057d20 <dma_test>:
30057d20:	e92d4800 	push	{fp, lr}
30057d24:	e28db004 	add	fp, sp, #4	; 0x4
30057d28:	e24dd010 	sub	sp, sp, #16	; 0x10
30057d2c:	e50b0010 	str	r0, [fp, #-16]
30057d30:	e50b1014 	str	r1, [fp, #-20]
30057d34:	e3a03000 	mov	r3, #0	; 0x0
30057d38:	e50b3008 	str	r3, [fp, #-8]
30057d3c:	ebffff80 	bl	30057b44 <Test>
30057d40:	e51b3008 	ldr	r3, [fp, #-8]
30057d44:	e1a00003 	mov	r0, r3
30057d48:	e24bd004 	sub	sp, fp, #4	; 0x4
30057d4c:	e8bd4800 	pop	{fp, lr}
30057d50:	e12fff1e 	bx	lr

30057d54 <touch_init>:
30057d54:	e52db004 	push	{fp}		; (str fp, [sp, #-4]!)
30057d58:	e28db000 	add	fp, sp, #0	; 0x0
30057d5c:	e3a02316 	mov	r2, #1476395008	; 0x58000000
30057d60:	e3a03b13 	mov	r3, #19456	; 0x4c00
30057d64:	e2833040 	add	r3, r3, #64	; 0x40
30057d68:	e5823000 	str	r3, [r2]
30057d6c:	e3a0244a 	mov	r2, #1241513984	; 0x4a000000
30057d70:	e2822008 	add	r2, r2, #8	; 0x8
30057d74:	e3a0344a 	mov	r3, #1241513984	; 0x4a000000
30057d78:	e2833008 	add	r3, r3, #8	; 0x8
30057d7c:	e5933000 	ldr	r3, [r3]
30057d80:	e3c33102 	bic	r3, r3, #-2147483648	; 0x80000000
30057d84:	e5823000 	str	r3, [r2]
30057d88:	e3a0244a 	mov	r2, #1241513984	; 0x4a000000
30057d8c:	e282201c 	add	r2, r2, #28	; 0x1c
30057d90:	e3a0344a 	mov	r3, #1241513984	; 0x4a000000
30057d94:	e283301c 	add	r3, r3, #28	; 0x1c
30057d98:	e5933000 	ldr	r3, [r3]
30057d9c:	e3c33c02 	bic	r3, r3, #512	; 0x200
30057da0:	e5823000 	str	r3, [r2]
30057da4:	e3a03316 	mov	r3, #1476395008	; 0x58000000
30057da8:	e2833004 	add	r3, r3, #4	; 0x4
30057dac:	e3a020d3 	mov	r2, #211	; 0xd3
30057db0:	e5832000 	str	r2, [r3]
30057db4:	e28bd000 	add	sp, fp, #0	; 0x0
30057db8:	e8bd0800 	pop	{fp}
30057dbc:	e12fff1e 	bx	lr

30057dc0 <dump_touch_reg>:
30057dc0:	e92d4800 	push	{fp, lr}
30057dc4:	e28db004 	add	fp, sp, #4	; 0x4
30057dc8:	e59f0040 	ldr	r0, [pc, #64]	; 30057e10 <dump_touch_reg+0x50>
30057dcc:	ebfff3bc 	bl	30054cc4 <printf_string>
30057dd0:	e3a03316 	mov	r3, #1476395008	; 0x58000000
30057dd4:	e5933000 	ldr	r3, [r3]
30057dd8:	e59f0034 	ldr	r0, [pc, #52]	; 30057e14 <dump_touch_reg+0x54>
30057ddc:	e1a01003 	mov	r1, r3
30057de0:	ebfff3b7 	bl	30054cc4 <printf_string>
30057de4:	e3a03316 	mov	r3, #1476395008	; 0x58000000
30057de8:	e2833004 	add	r3, r3, #4	; 0x4
30057dec:	e5933000 	ldr	r3, [r3]
30057df0:	e59f0020 	ldr	r0, [pc, #32]	; 30057e18 <dump_touch_reg+0x58>
30057df4:	e1a01003 	mov	r1, r3
30057df8:	ebfff3b1 	bl	30054cc4 <printf_string>
30057dfc:	e59f0018 	ldr	r0, [pc, #24]	; 30057e1c <dump_touch_reg+0x5c>
30057e00:	ebfff3af 	bl	30054cc4 <printf_string>
30057e04:	e24bd004 	sub	sp, fp, #4	; 0x4
30057e08:	e8bd4800 	pop	{fp, lr}
30057e0c:	e12fff1e 	bx	lr
30057e10:	3005c918 	.word	0x3005c918
30057e14:	3005c950 	.word	0x3005c950
30057e18:	3005c960 	.word	0x3005c960
30057e1c:	3005c970 	.word	0x3005c970

30057e20 <touch_handler>:
30057e20:	e92d4800 	push	{fp, lr}
30057e24:	e28db004 	add	fp, sp, #4	; 0x4
30057e28:	e59f0194 	ldr	r0, [pc, #404]	; 30057fc4 <touch_handler+0x1a4>
30057e2c:	ebfff052 	bl	30053f7c <print_string>
30057e30:	e3a02316 	mov	r2, #1476395008	; 0x58000000
30057e34:	e3a03316 	mov	r3, #1476395008	; 0x58000000
30057e38:	e5933000 	ldr	r3, [r3]
30057e3c:	e3833001 	orr	r3, r3, #1	; 0x1
30057e40:	e5823000 	str	r3, [r2]
30057e44:	e3a02316 	mov	r2, #1476395008	; 0x58000000
30057e48:	e2822004 	add	r2, r2, #4	; 0x4
30057e4c:	e3a03316 	mov	r3, #1476395008	; 0x58000000
30057e50:	e2833004 	add	r3, r3, #4	; 0x4
30057e54:	e5933000 	ldr	r3, [r3]
30057e58:	e3833004 	orr	r3, r3, #4	; 0x4
30057e5c:	e5823000 	str	r3, [r2]
30057e60:	e3a03316 	mov	r3, #1476395008	; 0x58000000
30057e64:	e5933000 	ldr	r3, [r3]
30057e68:	e2033902 	and	r3, r3, #32768	; 0x8000
30057e6c:	e3530000 	cmp	r3, #0	; 0x0
30057e70:	0afffffa 	beq	30057e60 <touch_handler+0x40>
30057e74:	e3a03316 	mov	r3, #1476395008	; 0x58000000
30057e78:	e283300c 	add	r3, r3, #12	; 0xc
30057e7c:	e5933000 	ldr	r3, [r3]
30057e80:	e1a03b03 	lsl	r3, r3, #22
30057e84:	e1a03b23 	lsr	r3, r3, #22
30057e88:	e59f2138 	ldr	r2, [pc, #312]	; 30057fc8 <touch_handler+0x1a8>
30057e8c:	e5823000 	str	r3, [r2]
30057e90:	e3a03316 	mov	r3, #1476395008	; 0x58000000
30057e94:	e2833010 	add	r3, r3, #16	; 0x10
30057e98:	e5933000 	ldr	r3, [r3]
30057e9c:	e1a03b03 	lsl	r3, r3, #22
30057ea0:	e1a03b23 	lsr	r3, r3, #22
30057ea4:	e59f2120 	ldr	r2, [pc, #288]	; 30057fcc <touch_handler+0x1ac>
30057ea8:	e5823000 	str	r3, [r2]
30057eac:	e3a0244a 	mov	r2, #1241513984	; 0x4a000000
30057eb0:	e2822018 	add	r2, r2, #24	; 0x18
30057eb4:	e3a0344a 	mov	r3, #1241513984	; 0x4a000000
30057eb8:	e2833018 	add	r3, r3, #24	; 0x18
30057ebc:	e5933000 	ldr	r3, [r3]
30057ec0:	e3833c02 	orr	r3, r3, #512	; 0x200
30057ec4:	e5823000 	str	r3, [r2]
30057ec8:	e3a0244a 	mov	r2, #1241513984	; 0x4a000000
30057ecc:	e3a0344a 	mov	r3, #1241513984	; 0x4a000000
30057ed0:	e5933000 	ldr	r3, [r3]
30057ed4:	e3833102 	orr	r3, r3, #-2147483648	; 0x80000000
30057ed8:	e5823000 	str	r3, [r2]
30057edc:	e3a0244a 	mov	r2, #1241513984	; 0x4a000000
30057ee0:	e2822010 	add	r2, r2, #16	; 0x10
30057ee4:	e3a0344a 	mov	r3, #1241513984	; 0x4a000000
30057ee8:	e2833010 	add	r3, r3, #16	; 0x10
30057eec:	e5933000 	ldr	r3, [r3]
30057ef0:	e3833102 	orr	r3, r3, #-2147483648	; 0x80000000
30057ef4:	e5823000 	str	r3, [r2]
30057ef8:	e3a03316 	mov	r3, #1476395008	; 0x58000000
30057efc:	e2833004 	add	r3, r3, #4	; 0x4
30057f00:	e3a020d3 	mov	r2, #211	; 0xd3
30057f04:	e5832000 	str	r2, [r3]
30057f08:	e3a02316 	mov	r2, #1476395008	; 0x58000000
30057f0c:	e2822004 	add	r2, r2, #4	; 0x4
30057f10:	e3a03316 	mov	r3, #1476395008	; 0x58000000
30057f14:	e2833004 	add	r3, r3, #4	; 0x4
30057f18:	e5933000 	ldr	r3, [r3]
30057f1c:	e3833c01 	orr	r3, r3, #256	; 0x100
30057f20:	e5823000 	str	r3, [r2]
30057f24:	e3a0344a 	mov	r3, #1241513984	; 0x4a000000
30057f28:	e2833018 	add	r3, r3, #24	; 0x18
30057f2c:	e5933000 	ldr	r3, [r3]
30057f30:	e2033c02 	and	r3, r3, #512	; 0x200
30057f34:	e3530000 	cmp	r3, #0	; 0x0
30057f38:	0afffff9 	beq	30057f24 <touch_handler+0x104>
30057f3c:	e59f3084 	ldr	r3, [pc, #132]	; 30057fc8 <touch_handler+0x1a8>
30057f40:	e5932000 	ldr	r2, [r3]
30057f44:	e59f3080 	ldr	r3, [pc, #128]	; 30057fcc <touch_handler+0x1ac>
30057f48:	e5933000 	ldr	r3, [r3]
30057f4c:	e59f007c 	ldr	r0, [pc, #124]	; 30057fd0 <touch_handler+0x1b0>
30057f50:	e1a01002 	mov	r1, r2
30057f54:	e1a02003 	mov	r2, r3
30057f58:	ebfff359 	bl	30054cc4 <printf_string>
30057f5c:	e3a0244a 	mov	r2, #1241513984	; 0x4a000000
30057f60:	e2822018 	add	r2, r2, #24	; 0x18
30057f64:	e3a0344a 	mov	r3, #1241513984	; 0x4a000000
30057f68:	e2833018 	add	r3, r3, #24	; 0x18
30057f6c:	e5933000 	ldr	r3, [r3]
30057f70:	e3833c02 	orr	r3, r3, #512	; 0x200
30057f74:	e5823000 	str	r3, [r2]
30057f78:	e3a0244a 	mov	r2, #1241513984	; 0x4a000000
30057f7c:	e3a0344a 	mov	r3, #1241513984	; 0x4a000000
30057f80:	e5933000 	ldr	r3, [r3]
30057f84:	e3833102 	orr	r3, r3, #-2147483648	; 0x80000000
30057f88:	e5823000 	str	r3, [r2]
30057f8c:	e3a0244a 	mov	r2, #1241513984	; 0x4a000000
30057f90:	e2822010 	add	r2, r2, #16	; 0x10
30057f94:	e3a0344a 	mov	r3, #1241513984	; 0x4a000000
30057f98:	e2833010 	add	r3, r3, #16	; 0x10
30057f9c:	e5933000 	ldr	r3, [r3]
30057fa0:	e3833102 	orr	r3, r3, #-2147483648	; 0x80000000
30057fa4:	e5823000 	str	r3, [r2]
30057fa8:	e3a03316 	mov	r3, #1476395008	; 0x58000000
30057fac:	e2833004 	add	r3, r3, #4	; 0x4
30057fb0:	e3a020d3 	mov	r2, #211	; 0xd3
30057fb4:	e5832000 	str	r2, [r3]
30057fb8:	e24bd004 	sub	sp, fp, #4	; 0x4
30057fbc:	e8bd4800 	pop	{fp, lr}
30057fc0:	e12fff1e 	bx	lr
30057fc4:	3005c9ac 	.word	0x3005c9ac
30057fc8:	3005f5f8 	.word	0x3005f5f8
30057fcc:	3005f5fc 	.word	0x3005f5fc
30057fd0:	3005c9bc 	.word	0x3005c9bc

30057fd4 <DM9000_iow>:
30057fd4:	e52db004 	push	{fp}		; (str fp, [sp, #-4]!)
30057fd8:	e28db000 	add	fp, sp, #0	; 0x0
30057fdc:	e24dd00c 	sub	sp, sp, #12	; 0xc
30057fe0:	e1a03000 	mov	r3, r0
30057fe4:	e1a02001 	mov	r2, r1
30057fe8:	e14b30b6 	strh	r3, [fp, #-6]
30057fec:	e14b20b8 	strh	r2, [fp, #-8]
30057ff0:	e3a03202 	mov	r3, #536870912	; 0x20000000
30057ff4:	e2833c03 	add	r3, r3, #768	; 0x300
30057ff8:	e15b20b6 	ldrh	r2, [fp, #-6]
30057ffc:	e1c320b0 	strh	r2, [r3]
30058000:	e3a03202 	mov	r3, #536870912	; 0x20000000
30058004:	e2833fc1 	add	r3, r3, #772	; 0x304
30058008:	e15b20b8 	ldrh	r2, [fp, #-8]
3005800c:	e1c320b0 	strh	r2, [r3]
30058010:	e28bd000 	add	sp, fp, #0	; 0x0
30058014:	e8bd0800 	pop	{fp}
30058018:	e12fff1e 	bx	lr

3005801c <DM9000_ior>:
3005801c:	e52db004 	push	{fp}		; (str fp, [sp, #-4]!)
30058020:	e28db000 	add	fp, sp, #0	; 0x0
30058024:	e24dd00c 	sub	sp, sp, #12	; 0xc
30058028:	e1a03000 	mov	r3, r0
3005802c:	e14b30b6 	strh	r3, [fp, #-6]
30058030:	e3a03202 	mov	r3, #536870912	; 0x20000000
30058034:	e2833c03 	add	r3, r3, #768	; 0x300
30058038:	e15b20b6 	ldrh	r2, [fp, #-6]
3005803c:	e1c320b0 	strh	r2, [r3]
30058040:	e3a03202 	mov	r3, #536870912	; 0x20000000
30058044:	e2833fc1 	add	r3, r3, #772	; 0x304
30058048:	e1d330b0 	ldrh	r3, [r3]
3005804c:	e1a03803 	lsl	r3, r3, #16
30058050:	e1a03823 	lsr	r3, r3, #16
30058054:	e20330ff 	and	r3, r3, #255	; 0xff
30058058:	e1a00003 	mov	r0, r3
3005805c:	e28bd000 	add	sp, fp, #0	; 0x0
30058060:	e8bd0800 	pop	{fp}
30058064:	e12fff1e 	bx	lr

30058068 <DM9000_ior16>:
30058068:	e52db004 	push	{fp}		; (str fp, [sp, #-4]!)
3005806c:	e28db000 	add	fp, sp, #0	; 0x0
30058070:	e24dd00c 	sub	sp, sp, #12	; 0xc
30058074:	e1a03000 	mov	r3, r0
30058078:	e14b30b6 	strh	r3, [fp, #-6]
3005807c:	e3a03202 	mov	r3, #536870912	; 0x20000000
30058080:	e2833c03 	add	r3, r3, #768	; 0x300
30058084:	e15b20b6 	ldrh	r2, [fp, #-6]
30058088:	e1c320b0 	strh	r2, [r3]
3005808c:	e3a03202 	mov	r3, #536870912	; 0x20000000
30058090:	e2833fc1 	add	r3, r3, #772	; 0x304
30058094:	e1d330b0 	ldrh	r3, [r3]
30058098:	e1a03803 	lsl	r3, r3, #16
3005809c:	e1a03823 	lsr	r3, r3, #16
300580a0:	e1a00003 	mov	r0, r3
300580a4:	e28bd000 	add	sp, fp, #0	; 0x0
300580a8:	e8bd0800 	pop	{fp}
300580ac:	e12fff1e 	bx	lr

300580b0 <phy_read>:
300580b0:	e92d4810 	push	{r4, fp, lr}
300580b4:	e28db008 	add	fp, sp, #8	; 0x8
300580b8:	e24dd014 	sub	sp, sp, #20	; 0x14
300580bc:	e50b0018 	str	r0, [fp, #-24]
300580c0:	e51b3018 	ldr	r3, [fp, #-24]
300580c4:	e1a03803 	lsl	r3, r3, #16
300580c8:	e1a03823 	lsr	r3, r3, #16
300580cc:	e3833040 	orr	r3, r3, #64	; 0x40
300580d0:	e1a03803 	lsl	r3, r3, #16
300580d4:	e1a03823 	lsr	r3, r3, #16
300580d8:	e1a03803 	lsl	r3, r3, #16
300580dc:	e1a03823 	lsr	r3, r3, #16
300580e0:	e3a0000c 	mov	r0, #12	; 0xc
300580e4:	e1a01003 	mov	r1, r3
300580e8:	ebffffb9 	bl	30057fd4 <DM9000_iow>
300580ec:	e3a0000b 	mov	r0, #11	; 0xb
300580f0:	e3a0100c 	mov	r1, #12	; 0xc
300580f4:	ebffffb6 	bl	30057fd4 <DM9000_iow>
300580f8:	e3a00a7a 	mov	r0, #499712	; 0x7a000
300580fc:	e2800e12 	add	r0, r0, #288	; 0x120
30058100:	ebffe37f 	bl	30050f04 <delay>
30058104:	e3a0000b 	mov	r0, #11	; 0xb
30058108:	e3a01000 	mov	r1, #0	; 0x0
3005810c:	ebffffb0 	bl	30057fd4 <DM9000_iow>
30058110:	e3a0000e 	mov	r0, #14	; 0xe
30058114:	ebffffc0 	bl	3005801c <DM9000_ior>
30058118:	e1a03000 	mov	r3, r0
3005811c:	e1a03403 	lsl	r3, r3, #8
30058120:	e1a03803 	lsl	r3, r3, #16
30058124:	e1a04823 	lsr	r4, r3, #16
30058128:	e3a0000d 	mov	r0, #13	; 0xd
3005812c:	ebffffba 	bl	3005801c <DM9000_ior>
30058130:	e1a03000 	mov	r3, r0
30058134:	e1a02004 	mov	r2, r4
30058138:	e1823003 	orr	r3, r2, r3
3005813c:	e1a03803 	lsl	r3, r3, #16
30058140:	e1a03823 	lsr	r3, r3, #16
30058144:	e14b30be 	strh	r3, [fp, #-14]
30058148:	e15b30be 	ldrh	r3, [fp, #-14]
3005814c:	e1a00003 	mov	r0, r3
30058150:	e24bd008 	sub	sp, fp, #8	; 0x8
30058154:	e8bd4810 	pop	{r4, fp, lr}
30058158:	e12fff1e 	bx	lr

3005815c <cs_init>:
3005815c:	e52db004 	push	{fp}		; (str fp, [sp, #-4]!)
30058160:	e28db000 	add	fp, sp, #0	; 0x0
30058164:	e3a02312 	mov	r2, #1207959552	; 0x48000000
30058168:	e3a03312 	mov	r3, #1207959552	; 0x48000000
3005816c:	e5933000 	ldr	r3, [r3]
30058170:	e3c33803 	bic	r3, r3, #196608	; 0x30000
30058174:	e5823000 	str	r3, [r2]
30058178:	e3a02312 	mov	r2, #1207959552	; 0x48000000
3005817c:	e3a03312 	mov	r3, #1207959552	; 0x48000000
30058180:	e5933000 	ldr	r3, [r3]
30058184:	e3833801 	orr	r3, r3, #65536	; 0x10000
30058188:	e5823000 	str	r3, [r2]
3005818c:	e3a03312 	mov	r3, #1207959552	; 0x48000000
30058190:	e2833014 	add	r3, r3, #20	; 0x14
30058194:	e3a02d1d 	mov	r2, #1856	; 0x740
30058198:	e5832000 	str	r2, [r3]
3005819c:	e28bd000 	add	sp, fp, #0	; 0x0
300581a0:	e8bd0800 	pop	{fp}
300581a4:	e12fff1e 	bx	lr

300581a8 <dm9000_int_init>:
300581a8:	e92d4800 	push	{fp, lr}
300581ac:	e28db004 	add	fp, sp, #4	; 0x4
300581b0:	e59f00e0 	ldr	r0, [pc, #224]	; 30058298 <dm9000_int_init+0xf0>
300581b4:	ebffef70 	bl	30053f7c <print_string>
300581b8:	e3a02456 	mov	r2, #1442840576	; 0x56000000
300581bc:	e2822050 	add	r2, r2, #80	; 0x50
300581c0:	e3a03456 	mov	r3, #1442840576	; 0x56000000
300581c4:	e2833050 	add	r3, r3, #80	; 0x50
300581c8:	e5933000 	ldr	r3, [r3]
300581cc:	e3c33903 	bic	r3, r3, #49152	; 0xc000
300581d0:	e5823000 	str	r3, [r2]
300581d4:	e3a02456 	mov	r2, #1442840576	; 0x56000000
300581d8:	e2822050 	add	r2, r2, #80	; 0x50
300581dc:	e3a03456 	mov	r3, #1442840576	; 0x56000000
300581e0:	e2833050 	add	r3, r3, #80	; 0x50
300581e4:	e5933000 	ldr	r3, [r3]
300581e8:	e3833902 	orr	r3, r3, #32768	; 0x8000
300581ec:	e5823000 	str	r3, [r2]
300581f0:	e3a02456 	mov	r2, #1442840576	; 0x56000000
300581f4:	e2822088 	add	r2, r2, #136	; 0x88
300581f8:	e3a03456 	mov	r3, #1442840576	; 0x56000000
300581fc:	e2833088 	add	r3, r3, #136	; 0x88
30058200:	e5933000 	ldr	r3, [r3]
30058204:	e3c33207 	bic	r3, r3, #1879048192	; 0x70000000
30058208:	e5823000 	str	r3, [r2]
3005820c:	e3a02456 	mov	r2, #1442840576	; 0x56000000
30058210:	e2822088 	add	r2, r2, #136	; 0x88
30058214:	e3a03456 	mov	r3, #1442840576	; 0x56000000
30058218:	e2833088 	add	r3, r3, #136	; 0x88
3005821c:	e5933000 	ldr	r3, [r3]
30058220:	e3833201 	orr	r3, r3, #268435456	; 0x10000000
30058224:	e5823000 	str	r3, [r2]
30058228:	e3a0244a 	mov	r2, #1241513984	; 0x4a000000
3005822c:	e2822008 	add	r2, r2, #8	; 0x8
30058230:	e3a0344a 	mov	r3, #1241513984	; 0x4a000000
30058234:	e2833008 	add	r3, r3, #8	; 0x8
30058238:	e5933000 	ldr	r3, [r3]
3005823c:	e3c33010 	bic	r3, r3, #16	; 0x10
30058240:	e5823000 	str	r3, [r2]
30058244:	e3a02456 	mov	r2, #1442840576	; 0x56000000
30058248:	e28220a4 	add	r2, r2, #164	; 0xa4
3005824c:	e3a03456 	mov	r3, #1442840576	; 0x56000000
30058250:	e28330a4 	add	r3, r3, #164	; 0xa4
30058254:	e5933000 	ldr	r3, [r3]
30058258:	e3c33080 	bic	r3, r3, #128	; 0x80
3005825c:	e5823000 	str	r3, [r2]
30058260:	e3a03456 	mov	r3, #1442840576	; 0x56000000
30058264:	e28330a8 	add	r3, r3, #168	; 0xa8
30058268:	e3a02080 	mov	r2, #128	; 0x80
3005826c:	e5832000 	str	r2, [r3]
30058270:	e3a0244a 	mov	r2, #1241513984	; 0x4a000000
30058274:	e3a03010 	mov	r3, #16	; 0x10
30058278:	e5823000 	str	r3, [r2]
3005827c:	e3a0344a 	mov	r3, #1241513984	; 0x4a000000
30058280:	e2833010 	add	r3, r3, #16	; 0x10
30058284:	e3a02010 	mov	r2, #16	; 0x10
30058288:	e5832000 	str	r2, [r3]
3005828c:	e24bd004 	sub	sp, fp, #4	; 0x4
30058290:	e8bd4800 	pop	{fp, lr}
30058294:	e12fff1e 	bx	lr
30058298:	3005c9d8 	.word	0x3005c9d8

3005829c <dm9000_int_clear>:
3005829c:	e92d4800 	push	{fp, lr}
300582a0:	e28db004 	add	fp, sp, #4	; 0x4
300582a4:	e59f00a8 	ldr	r0, [pc, #168]	; 30058354 <dm9000_int_clear+0xb8>
300582a8:	ebffef33 	bl	30053f7c <print_string>
300582ac:	e3a02456 	mov	r2, #1442840576	; 0x56000000
300582b0:	e2822050 	add	r2, r2, #80	; 0x50
300582b4:	e3a03456 	mov	r3, #1442840576	; 0x56000000
300582b8:	e2833050 	add	r3, r3, #80	; 0x50
300582bc:	e5933000 	ldr	r3, [r3]
300582c0:	e3c33903 	bic	r3, r3, #49152	; 0xc000
300582c4:	e5823000 	str	r3, [r2]
300582c8:	e3a02456 	mov	r2, #1442840576	; 0x56000000
300582cc:	e2822088 	add	r2, r2, #136	; 0x88
300582d0:	e3a03456 	mov	r3, #1442840576	; 0x56000000
300582d4:	e2833088 	add	r3, r3, #136	; 0x88
300582d8:	e5933000 	ldr	r3, [r3]
300582dc:	e3c33207 	bic	r3, r3, #1879048192	; 0x70000000
300582e0:	e5823000 	str	r3, [r2]
300582e4:	e3a0244a 	mov	r2, #1241513984	; 0x4a000000
300582e8:	e2822008 	add	r2, r2, #8	; 0x8
300582ec:	e3a0344a 	mov	r3, #1241513984	; 0x4a000000
300582f0:	e2833008 	add	r3, r3, #8	; 0x8
300582f4:	e5933000 	ldr	r3, [r3]
300582f8:	e3833010 	orr	r3, r3, #16	; 0x10
300582fc:	e5823000 	str	r3, [r2]
30058300:	e3a02456 	mov	r2, #1442840576	; 0x56000000
30058304:	e28220a4 	add	r2, r2, #164	; 0xa4
30058308:	e3a03456 	mov	r3, #1442840576	; 0x56000000
3005830c:	e28330a4 	add	r3, r3, #164	; 0xa4
30058310:	e5933000 	ldr	r3, [r3]
30058314:	e3833080 	orr	r3, r3, #128	; 0x80
30058318:	e5823000 	str	r3, [r2]
3005831c:	e3a03456 	mov	r3, #1442840576	; 0x56000000
30058320:	e28330a8 	add	r3, r3, #168	; 0xa8
30058324:	e3a02080 	mov	r2, #128	; 0x80
30058328:	e5832000 	str	r2, [r3]
3005832c:	e3a0244a 	mov	r2, #1241513984	; 0x4a000000
30058330:	e3a03010 	mov	r3, #16	; 0x10
30058334:	e5823000 	str	r3, [r2]
30058338:	e3a0344a 	mov	r3, #1241513984	; 0x4a000000
3005833c:	e2833010 	add	r3, r3, #16	; 0x10
30058340:	e3a02010 	mov	r2, #16	; 0x10
30058344:	e5832000 	str	r2, [r3]
30058348:	e24bd004 	sub	sp, fp, #4	; 0x4
3005834c:	e8bd4800 	pop	{fp, lr}
30058350:	e12fff1e 	bx	lr
30058354:	3005c9d8 	.word	0x3005c9d8

30058358 <DM9000_reset>:
30058358:	e92d4800 	push	{fp, lr}
3005835c:	e28db004 	add	fp, sp, #4	; 0x4
30058360:	e24dd008 	sub	sp, sp, #8	; 0x8
30058364:	e3a03000 	mov	r3, #0	; 0x0
30058368:	e54b3005 	strb	r3, [fp, #-5]
3005836c:	e59f00cc 	ldr	r0, [pc, #204]	; 30058440 <DM9000_reset+0xe8>
30058370:	ebffef01 	bl	30053f7c <print_string>
30058374:	e3a0001e 	mov	r0, #30	; 0x1e
30058378:	e3a01001 	mov	r1, #1	; 0x1
3005837c:	ebffff14 	bl	30057fd4 <DM9000_iow>
30058380:	e3a0001f 	mov	r0, #31	; 0x1f
30058384:	e3a01000 	mov	r1, #0	; 0x0
30058388:	ebffff11 	bl	30057fd4 <DM9000_iow>
3005838c:	e3a00000 	mov	r0, #0	; 0x0
30058390:	e3a01003 	mov	r1, #3	; 0x3
30058394:	ebffff0e 	bl	30057fd4 <DM9000_iow>
30058398:	e3a00000 	mov	r0, #0	; 0x0
3005839c:	e3a01000 	mov	r1, #0	; 0x0
300583a0:	ebffff0b 	bl	30057fd4 <DM9000_iow>
300583a4:	e3a000fa 	mov	r0, #250	; 0xfa
300583a8:	ebffe2d5 	bl	30050f04 <delay>
300583ac:	e3a00000 	mov	r0, #0	; 0x0
300583b0:	ebffff19 	bl	3005801c <DM9000_ior>
300583b4:	e1a03000 	mov	r3, r0
300583b8:	e2033001 	and	r3, r3, #1	; 0x1
300583bc:	e20330ff 	and	r3, r3, #255	; 0xff
300583c0:	e3530000 	cmp	r3, #0	; 0x0
300583c4:	1afffff6 	bne	300583a4 <DM9000_reset+0x4c>
300583c8:	e3a00000 	mov	r0, #0	; 0x0
300583cc:	e3a01003 	mov	r1, #3	; 0x3
300583d0:	ebfffeff 	bl	30057fd4 <DM9000_iow>
300583d4:	e3a00000 	mov	r0, #0	; 0x0
300583d8:	e3a01000 	mov	r1, #0	; 0x0
300583dc:	ebfffefc 	bl	30057fd4 <DM9000_iow>
300583e0:	e3a000fa 	mov	r0, #250	; 0xfa
300583e4:	ebffe2c6 	bl	30050f04 <delay>
300583e8:	e3a00000 	mov	r0, #0	; 0x0
300583ec:	ebffff0a 	bl	3005801c <DM9000_ior>
300583f0:	e1a03000 	mov	r3, r0
300583f4:	e2033001 	and	r3, r3, #1	; 0x1
300583f8:	e20330ff 	and	r3, r3, #255	; 0xff
300583fc:	e3530000 	cmp	r3, #0	; 0x0
30058400:	1afffff6 	bne	300583e0 <DM9000_reset+0x88>
30058404:	e3a0002a 	mov	r0, #42	; 0x2a
30058408:	ebffff03 	bl	3005801c <DM9000_ior>
3005840c:	e1a03000 	mov	r3, r0
30058410:	e3530000 	cmp	r3, #0	; 0x0
30058414:	1a000004 	bne	3005842c <DM9000_reset+0xd4>
30058418:	e3a0002b 	mov	r0, #43	; 0x2b
3005841c:	ebfffefe 	bl	3005801c <DM9000_ior>
30058420:	e1a03000 	mov	r3, r0
30058424:	e3530090 	cmp	r3, #144	; 0x90
30058428:	0a000001 	beq	30058434 <DM9000_reset+0xdc>
3005842c:	e59f0010 	ldr	r0, [pc, #16]	; 30058444 <DM9000_reset+0xec>
30058430:	ebffeed1 	bl	30053f7c <print_string>
30058434:	e24bd004 	sub	sp, fp, #4	; 0x4
30058438:	e8bd4800 	pop	{fp, lr}
3005843c:	e12fff1e 	bx	lr
30058440:	3005c9ec 	.word	0x3005c9ec
30058444:	3005c9fc 	.word	0x3005c9fc

30058448 <DM9000_probe>:
30058448:	e92d4800 	push	{fp, lr}
3005844c:	e28db004 	add	fp, sp, #4	; 0x4
30058450:	e24dd010 	sub	sp, sp, #16	; 0x10
30058454:	e3a03000 	mov	r3, #0	; 0x0
30058458:	e50b300c 	str	r3, [fp, #-12]
3005845c:	e3a03000 	mov	r3, #0	; 0x0
30058460:	e50b3008 	str	r3, [fp, #-8]
30058464:	e3a00028 	mov	r0, #40	; 0x28
30058468:	ebfffeeb 	bl	3005801c <DM9000_ior>
3005846c:	e1a03000 	mov	r3, r0
30058470:	e50b300c 	str	r3, [fp, #-12]
30058474:	e3a00029 	mov	r0, #41	; 0x29
30058478:	ebfffee7 	bl	3005801c <DM9000_ior>
3005847c:	e1a03000 	mov	r3, r0
30058480:	e1a03403 	lsl	r3, r3, #8
30058484:	e1a02003 	mov	r2, r3
30058488:	e51b300c 	ldr	r3, [fp, #-12]
3005848c:	e1833002 	orr	r3, r3, r2
30058490:	e50b300c 	str	r3, [fp, #-12]
30058494:	e3a0002a 	mov	r0, #42	; 0x2a
30058498:	ebfffedf 	bl	3005801c <DM9000_ior>
3005849c:	e1a03000 	mov	r3, r0
300584a0:	e1a03803 	lsl	r3, r3, #16
300584a4:	e1a02003 	mov	r2, r3
300584a8:	e51b300c 	ldr	r3, [fp, #-12]
300584ac:	e1833002 	orr	r3, r3, r2
300584b0:	e50b300c 	str	r3, [fp, #-12]
300584b4:	e3a0002b 	mov	r0, #43	; 0x2b
300584b8:	ebfffed7 	bl	3005801c <DM9000_ior>
300584bc:	e1a03000 	mov	r3, r0
300584c0:	e1a03c03 	lsl	r3, r3, #24
300584c4:	e1a02003 	mov	r2, r3
300584c8:	e51b300c 	ldr	r3, [fp, #-12]
300584cc:	e1833002 	orr	r3, r3, r2
300584d0:	e50b300c 	str	r3, [fp, #-12]
300584d4:	e3a0002c 	mov	r0, #44	; 0x2c
300584d8:	ebfffecf 	bl	3005801c <DM9000_ior>
300584dc:	e1a03000 	mov	r3, r0
300584e0:	e1a02003 	mov	r2, r3
300584e4:	e51b3008 	ldr	r3, [fp, #-8]
300584e8:	e1833002 	orr	r3, r3, r2
300584ec:	e50b3008 	str	r3, [fp, #-8]
300584f0:	e51b200c 	ldr	r2, [fp, #-12]
300584f4:	e3a03d29 	mov	r3, #2624	; 0xa40
300584f8:	e2833269 	add	r3, r3, #-1879048186	; 0x90000006
300584fc:	e1520003 	cmp	r2, r3
30058500:	1a00000e 	bne	30058540 <DM9000_probe+0xf8>
30058504:	e59f0058 	ldr	r0, [pc, #88]	; 30058564 <DM9000_probe+0x11c>
30058508:	ebfff1ed 	bl	30054cc4 <printf_string>
3005850c:	e59f0054 	ldr	r0, [pc, #84]	; 30058568 <DM9000_probe+0x120>
30058510:	e3a01202 	mov	r1, #536870912	; 0x20000000
30058514:	e2811c03 	add	r1, r1, #768	; 0x300
30058518:	ebfff1e9 	bl	30054cc4 <printf_string>
3005851c:	e59f0048 	ldr	r0, [pc, #72]	; 3005856c <DM9000_probe+0x124>
30058520:	e51b100c 	ldr	r1, [fp, #-12]
30058524:	ebfff1e6 	bl	30054cc4 <printf_string>
30058528:	e59f0040 	ldr	r0, [pc, #64]	; 30058570 <DM9000_probe+0x128>
3005852c:	e51b1008 	ldr	r1, [fp, #-8]
30058530:	ebfff1e3 	bl	30054cc4 <printf_string>
30058534:	e3a03000 	mov	r3, #0	; 0x0
30058538:	e50b3010 	str	r3, [fp, #-16]
3005853c:	ea000003 	b	30058550 <DM9000_probe+0x108>
30058540:	e59f002c 	ldr	r0, [pc, #44]	; 30058574 <DM9000_probe+0x12c>
30058544:	ebfff1de 	bl	30054cc4 <printf_string>
30058548:	e3e03000 	mvn	r3, #0	; 0x0
3005854c:	e50b3010 	str	r3, [fp, #-16]
30058550:	e51b3010 	ldr	r3, [fp, #-16]
30058554:	e1a00003 	mov	r0, r3
30058558:	e24bd004 	sub	sp, fp, #4	; 0x4
3005855c:	e8bd4800 	pop	{fp, lr}
30058560:	e12fff1e 	bx	lr
30058564:	3005ca28 	.word	0x3005ca28
30058568:	3005ca48 	.word	0x3005ca48
3005856c:	3005ca5c 	.word	0x3005ca5c
30058570:	3005ca70 	.word	0x3005ca70
30058574:	3005ca88 	.word	0x3005ca88

30058578 <dm9000_init>:
30058578:	e92d4800 	push	{fp, lr}
3005857c:	e28db004 	add	fp, sp, #4	; 0x4
30058580:	e24dd018 	sub	sp, sp, #24	; 0x18
30058584:	e3a03000 	mov	r3, #0	; 0x0
30058588:	e50b3014 	str	r3, [fp, #-20]
3005858c:	e3a03000 	mov	r3, #0	; 0x0
30058590:	e50b3010 	str	r3, [fp, #-16]
30058594:	e3a03000 	mov	r3, #0	; 0x0
30058598:	e50b300c 	str	r3, [fp, #-12]
3005859c:	e59f0258 	ldr	r0, [pc, #600]	; 300587fc <dm9000_init+0x284>
300585a0:	ebffee75 	bl	30053f7c <print_string>
300585a4:	ebfffeec 	bl	3005815c <cs_init>
300585a8:	ebfffefe 	bl	300581a8 <dm9000_int_init>
300585ac:	ebffff69 	bl	30058358 <DM9000_reset>
300585b0:	ebffffa4 	bl	30058448 <DM9000_probe>
300585b4:	e3a000fe 	mov	r0, #254	; 0xfe
300585b8:	ebfffe97 	bl	3005801c <DM9000_ior>
300585bc:	e1a03000 	mov	r3, r0
300585c0:	e1a03323 	lsr	r3, r3, #6
300585c4:	e54b3005 	strb	r3, [fp, #-5]
300585c8:	e55b3005 	ldrb	r3, [fp, #-5]
300585cc:	e50b3018 	str	r3, [fp, #-24]
300585d0:	e51b3018 	ldr	r3, [fp, #-24]
300585d4:	e3530001 	cmp	r3, #1	; 0x1
300585d8:	0a000008 	beq	30058600 <dm9000_init+0x88>
300585dc:	e51b3018 	ldr	r3, [fp, #-24]
300585e0:	e3530002 	cmp	r3, #2	; 0x2
300585e4:	0a000008 	beq	3005860c <dm9000_init+0x94>
300585e8:	e51b3018 	ldr	r3, [fp, #-24]
300585ec:	e3530000 	cmp	r3, #0	; 0x0
300585f0:	1a000008 	bne	30058618 <dm9000_init+0xa0>
300585f4:	e59f0204 	ldr	r0, [pc, #516]	; 30058800 <dm9000_init+0x288>
300585f8:	ebffee5f 	bl	30053f7c <print_string>
300585fc:	ea000009 	b	30058628 <dm9000_init+0xb0>
30058600:	e59f01fc 	ldr	r0, [pc, #508]	; 30058804 <dm9000_init+0x28c>
30058604:	ebffee5c 	bl	30053f7c <print_string>
30058608:	ea000006 	b	30058628 <dm9000_init+0xb0>
3005860c:	e59f01f4 	ldr	r0, [pc, #500]	; 30058808 <dm9000_init+0x290>
30058610:	ebffee59 	bl	30053f7c <print_string>
30058614:	ea000003 	b	30058628 <dm9000_init+0xb0>
30058618:	e55b3005 	ldrb	r3, [fp, #-5]
3005861c:	e59f01e8 	ldr	r0, [pc, #488]	; 3005880c <dm9000_init+0x294>
30058620:	e1a01003 	mov	r1, r3
30058624:	ebfff1a6 	bl	30054cc4 <printf_string>
30058628:	e3a00000 	mov	r0, #0	; 0x0
3005862c:	e3a01000 	mov	r1, #0	; 0x0
30058630:	ebfffe67 	bl	30057fd4 <DM9000_iow>
30058634:	e3a00002 	mov	r0, #2	; 0x2
30058638:	e3a01000 	mov	r1, #0	; 0x0
3005863c:	ebfffe64 	bl	30057fd4 <DM9000_iow>
30058640:	e3a00008 	mov	r0, #8	; 0x8
30058644:	e3a0103f 	mov	r1, #63	; 0x3f
30058648:	ebfffe61 	bl	30057fd4 <DM9000_iow>
3005864c:	e3a00009 	mov	r0, #9	; 0x9
30058650:	e3a01038 	mov	r1, #56	; 0x38
30058654:	ebfffe5e 	bl	30057fd4 <DM9000_iow>
30058658:	e3a0000a 	mov	r0, #10	; 0xa
3005865c:	e3a01000 	mov	r1, #0	; 0x0
30058660:	ebfffe5b 	bl	30057fd4 <DM9000_iow>
30058664:	e3a0002f 	mov	r0, #47	; 0x2f
30058668:	e3a01000 	mov	r1, #0	; 0x0
3005866c:	ebfffe58 	bl	30057fd4 <DM9000_iow>
30058670:	e3a00001 	mov	r0, #1	; 0x1
30058674:	e3a0102c 	mov	r1, #44	; 0x2c
30058678:	ebfffe55 	bl	30057fd4 <DM9000_iow>
3005867c:	e3a000fe 	mov	r0, #254	; 0xfe
30058680:	e3a0100f 	mov	r1, #15	; 0xf
30058684:	ebfffe52 	bl	30057fd4 <DM9000_iow>
30058688:	e3a03000 	mov	r3, #0	; 0x0
3005868c:	e50b3014 	str	r3, [fp, #-20]
30058690:	ea00000e 	b	300586d0 <dm9000_init+0x158>
30058694:	e51b3014 	ldr	r3, [fp, #-20]
30058698:	e1a03803 	lsl	r3, r3, #16
3005869c:	e1a03823 	lsr	r3, r3, #16
300586a0:	e2833010 	add	r3, r3, #16	; 0x10
300586a4:	e1a03803 	lsl	r3, r3, #16
300586a8:	e1a01823 	lsr	r1, r3, #16
300586ac:	e51b2014 	ldr	r2, [fp, #-20]
300586b0:	e59f3158 	ldr	r3, [pc, #344]	; 30058810 <dm9000_init+0x298>
300586b4:	e7d33002 	ldrb	r3, [r3, r2]
300586b8:	e1a00001 	mov	r0, r1
300586bc:	e1a01003 	mov	r1, r3
300586c0:	ebfffe43 	bl	30057fd4 <DM9000_iow>
300586c4:	e51b3014 	ldr	r3, [fp, #-20]
300586c8:	e2833001 	add	r3, r3, #1	; 0x1
300586cc:	e50b3014 	str	r3, [fp, #-20]
300586d0:	e51b3014 	ldr	r3, [fp, #-20]
300586d4:	e3530005 	cmp	r3, #5	; 0x5
300586d8:	9affffed 	bls	30058694 <dm9000_init+0x11c>
300586dc:	e3a00005 	mov	r0, #5	; 0x5
300586e0:	e3a01031 	mov	r1, #49	; 0x31
300586e4:	ebfffe3a 	bl	30057fd4 <DM9000_iow>
300586e8:	e3a000ff 	mov	r0, #255	; 0xff
300586ec:	e3a01080 	mov	r1, #128	; 0x80
300586f0:	ebfffe37 	bl	30057fd4 <DM9000_iow>
300586f4:	e3a03000 	mov	r3, #0	; 0x0
300586f8:	e50b3014 	str	r3, [fp, #-20]
300586fc:	ea000007 	b	30058720 <dm9000_init+0x1a8>
30058700:	e3a00e7d 	mov	r0, #2000	; 0x7d0
30058704:	ebffe1fe 	bl	30050f04 <delay>
30058708:	e51b3014 	ldr	r3, [fp, #-20]
3005870c:	e2833001 	add	r3, r3, #1	; 0x1
30058710:	e50b3014 	str	r3, [fp, #-20]
30058714:	e51b3014 	ldr	r3, [fp, #-20]
30058718:	e3530ffa 	cmp	r3, #1000	; 0x3e8
3005871c:	0a000005 	beq	30058738 <dm9000_init+0x1c0>
30058720:	e3a00001 	mov	r0, #1	; 0x1
30058724:	ebfffe61 	bl	300580b0 <phy_read>
30058728:	e1a03000 	mov	r3, r0
3005872c:	e2033020 	and	r3, r3, #32	; 0x20
30058730:	e3530000 	cmp	r3, #0	; 0x0
30058734:	0afffff1 	beq	30058700 <dm9000_init+0x188>
30058738:	e3a00011 	mov	r0, #17	; 0x11
3005873c:	ebfffe5b 	bl	300580b0 <phy_read>
30058740:	e1a03000 	mov	r3, r0
30058744:	e1a03623 	lsr	r3, r3, #12
30058748:	e1a03803 	lsl	r3, r3, #16
3005874c:	e1a03823 	lsr	r3, r3, #16
30058750:	e50b3010 	str	r3, [fp, #-16]
30058754:	e59f00b8 	ldr	r0, [pc, #184]	; 30058814 <dm9000_init+0x29c>
30058758:	e51b1010 	ldr	r1, [fp, #-16]
3005875c:	ebfff158 	bl	30054cc4 <printf_string>
30058760:	e59f00b0 	ldr	r0, [pc, #176]	; 30058818 <dm9000_init+0x2a0>
30058764:	ebffee04 	bl	30053f7c <print_string>
30058768:	e51b3010 	ldr	r3, [fp, #-16]
3005876c:	e2433001 	sub	r3, r3, #1	; 0x1
30058770:	e3530007 	cmp	r3, #7	; 0x7
30058774:	979ff103 	ldrls	pc, [pc, r3, lsl #2]
30058778:	ea000013 	b	300587cc <dm9000_init+0x254>
3005877c:	3005879c 	.word	0x3005879c
30058780:	300587a8 	.word	0x300587a8
30058784:	300587cc 	.word	0x300587cc
30058788:	300587b4 	.word	0x300587b4
3005878c:	300587cc 	.word	0x300587cc
30058790:	300587cc 	.word	0x300587cc
30058794:	300587cc 	.word	0x300587cc
30058798:	300587c0 	.word	0x300587c0
3005879c:	e59f0078 	ldr	r0, [pc, #120]	; 3005881c <dm9000_init+0x2a4>
300587a0:	ebffedf5 	bl	30053f7c <print_string>
300587a4:	ea00000b 	b	300587d8 <dm9000_init+0x260>
300587a8:	e59f0070 	ldr	r0, [pc, #112]	; 30058820 <dm9000_init+0x2a8>
300587ac:	ebffedf2 	bl	30053f7c <print_string>
300587b0:	ea000008 	b	300587d8 <dm9000_init+0x260>
300587b4:	e59f0068 	ldr	r0, [pc, #104]	; 30058824 <dm9000_init+0x2ac>
300587b8:	ebffedef 	bl	30053f7c <print_string>
300587bc:	ea000005 	b	300587d8 <dm9000_init+0x260>
300587c0:	e59f0060 	ldr	r0, [pc, #96]	; 30058828 <dm9000_init+0x2b0>
300587c4:	ebffedec 	bl	30053f7c <print_string>
300587c8:	ea000002 	b	300587d8 <dm9000_init+0x260>
300587cc:	e59f0058 	ldr	r0, [pc, #88]	; 3005882c <dm9000_init+0x2b4>
300587d0:	e51b1010 	ldr	r1, [fp, #-16]
300587d4:	ebfff13a 	bl	30054cc4 <printf_string>
300587d8:	e59f0050 	ldr	r0, [pc, #80]	; 30058830 <dm9000_init+0x2b8>
300587dc:	ebffede6 	bl	30053f7c <print_string>
300587e0:	e59f004c 	ldr	r0, [pc, #76]	; 30058834 <dm9000_init+0x2bc>
300587e4:	ebffede4 	bl	30053f7c <print_string>
300587e8:	e3a03000 	mov	r3, #0	; 0x0
300587ec:	e1a00003 	mov	r0, r3
300587f0:	e24bd004 	sub	sp, fp, #4	; 0x4
300587f4:	e8bd4800 	pop	{fp, lr}
300587f8:	e12fff1e 	bx	lr
300587fc:	3005ca9c 	.word	0x3005ca9c
30058800:	3005cacc 	.word	0x3005cacc
30058804:	3005caec 	.word	0x3005caec
30058808:	3005cb0c 	.word	0x3005cb0c
3005880c:	3005cb2c 	.word	0x3005cb2c
30058810:	3005ed98 	.word	0x3005ed98
30058814:	3005cb4c 	.word	0x3005cb4c
30058818:	3005cb58 	.word	0x3005cb58
3005881c:	3005cb68 	.word	0x3005cb68
30058820:	3005cb7c 	.word	0x3005cb7c
30058824:	3005cb90 	.word	0x3005cb90
30058828:	3005cba4 	.word	0x3005cba4
3005882c:	3005cbb8 	.word	0x3005cbb8
30058830:	3005cbc8 	.word	0x3005cbc8
30058834:	3005cbd0 	.word	0x3005cbd0

30058838 <dm9000_send>:
30058838:	e92d4800 	push	{fp, lr}
3005883c:	e28db004 	add	fp, sp, #4	; 0x4
30058840:	e24dd010 	sub	sp, sp, #16	; 0x10
30058844:	e50b0010 	str	r0, [fp, #-16]
30058848:	e50b1014 	str	r1, [fp, #-20]
3005884c:	e3a03000 	mov	r3, #0	; 0x0
30058850:	e50b300c 	str	r3, [fp, #-12]
30058854:	e3a000ff 	mov	r0, #255	; 0xff
30058858:	e3a01080 	mov	r1, #128	; 0x80
3005885c:	ebfffddc 	bl	30057fd4 <DM9000_iow>
30058860:	e51b3014 	ldr	r3, [fp, #-20]
30058864:	e1a03803 	lsl	r3, r3, #16
30058868:	e1a03823 	lsr	r3, r3, #16
3005886c:	e20330ff 	and	r3, r3, #255	; 0xff
30058870:	e3a000fc 	mov	r0, #252	; 0xfc
30058874:	e1a01003 	mov	r1, r3
30058878:	ebfffdd5 	bl	30057fd4 <DM9000_iow>
3005887c:	e51b3014 	ldr	r3, [fp, #-20]
30058880:	e1a03423 	lsr	r3, r3, #8
30058884:	e1a03803 	lsl	r3, r3, #16
30058888:	e1a03823 	lsr	r3, r3, #16
3005888c:	e20330ff 	and	r3, r3, #255	; 0xff
30058890:	e3a000fd 	mov	r0, #253	; 0xfd
30058894:	e1a01003 	mov	r1, r3
30058898:	ebfffdcd 	bl	30057fd4 <DM9000_iow>
3005889c:	e3a03202 	mov	r3, #536870912	; 0x20000000
300588a0:	e2833c03 	add	r3, r3, #768	; 0x300
300588a4:	e3a020f8 	mov	r2, #248	; 0xf8
300588a8:	e1c320b0 	strh	r2, [r3]
300588ac:	e3a03000 	mov	r3, #0	; 0x0
300588b0:	e50b300c 	str	r3, [fp, #-12]
300588b4:	ea000018 	b	3005891c <dm9000_send+0xe4>
300588b8:	e3a01202 	mov	r1, #536870912	; 0x20000000
300588bc:	e2811fc1 	add	r1, r1, #772	; 0x304
300588c0:	e51b2010 	ldr	r2, [fp, #-16]
300588c4:	e51b300c 	ldr	r3, [fp, #-12]
300588c8:	e0823003 	add	r3, r2, r3
300588cc:	e5d33000 	ldrb	r3, [r3]
300588d0:	e1a00003 	mov	r0, r3
300588d4:	e51b300c 	ldr	r3, [fp, #-12]
300588d8:	e2832001 	add	r2, r3, #1	; 0x1
300588dc:	e51b3010 	ldr	r3, [fp, #-16]
300588e0:	e0833002 	add	r3, r3, r2
300588e4:	e5d33000 	ldrb	r3, [r3]
300588e8:	e1a03403 	lsl	r3, r3, #8
300588ec:	e1a03803 	lsl	r3, r3, #16
300588f0:	e1a03823 	lsr	r3, r3, #16
300588f4:	e1a02000 	mov	r2, r0
300588f8:	e1823003 	orr	r3, r2, r3
300588fc:	e1a03803 	lsl	r3, r3, #16
30058900:	e1a03823 	lsr	r3, r3, #16
30058904:	e1a03803 	lsl	r3, r3, #16
30058908:	e1a03823 	lsr	r3, r3, #16
3005890c:	e1c130b0 	strh	r3, [r1]
30058910:	e51b300c 	ldr	r3, [fp, #-12]
30058914:	e2833002 	add	r3, r3, #2	; 0x2
30058918:	e50b300c 	str	r3, [fp, #-12]
3005891c:	e51b200c 	ldr	r2, [fp, #-12]
30058920:	e51b3014 	ldr	r3, [fp, #-20]
30058924:	e1520003 	cmp	r2, r3
30058928:	3affffe2 	bcc	300588b8 <dm9000_send+0x80>
3005892c:	e3a00002 	mov	r0, #2	; 0x2
30058930:	e3a01001 	mov	r1, #1	; 0x1
30058934:	ebfffda6 	bl	30057fd4 <DM9000_iow>
30058938:	e3a03000 	mov	r3, #0	; 0x0
3005893c:	e54b3005 	strb	r3, [fp, #-5]
30058940:	e3a00002 	mov	r0, #2	; 0x2
30058944:	ebfffdb4 	bl	3005801c <DM9000_ior>
30058948:	e1a03000 	mov	r3, r0
3005894c:	e54b3005 	strb	r3, [fp, #-5]
30058950:	e55b3005 	ldrb	r3, [fp, #-5]
30058954:	e2033001 	and	r3, r3, #1	; 0x1
30058958:	e3530000 	cmp	r3, #0	; 0x0
3005895c:	1afffff5 	bne	30058938 <dm9000_send+0x100>
30058960:	e3a00001 	mov	r0, #1	; 0x1
30058964:	e3a0102c 	mov	r1, #44	; 0x2c
30058968:	ebfffd99 	bl	30057fd4 <DM9000_iow>
3005896c:	e3a000fe 	mov	r0, #254	; 0xfe
30058970:	e3a01002 	mov	r1, #2	; 0x2
30058974:	ebfffd96 	bl	30057fd4 <DM9000_iow>
30058978:	e3a000ff 	mov	r0, #255	; 0xff
3005897c:	e3a01081 	mov	r1, #129	; 0x81
30058980:	ebfffd93 	bl	30057fd4 <DM9000_iow>
30058984:	e24bd004 	sub	sp, fp, #4	; 0x4
30058988:	e8bd4800 	pop	{fp, lr}
3005898c:	e12fff1e 	bx	lr

30058990 <dm9000_recv>:
30058990:	e92d4800 	push	{fp, lr}
30058994:	e28db004 	add	fp, sp, #4	; 0x4
30058998:	e24dd020 	sub	sp, sp, #32	; 0x20
3005899c:	e50b0018 	str	r0, [fp, #-24]
300589a0:	e50b101c 	str	r1, [fp, #-28]
300589a4:	e3a03000 	mov	r3, #0	; 0x0
300589a8:	e14b31b2 	strh	r3, [fp, #-18]
300589ac:	e3a03000 	mov	r3, #0	; 0x0
300589b0:	e14b31b0 	strh	r3, [fp, #-16]
300589b4:	e3a03000 	mov	r3, #0	; 0x0
300589b8:	e14b30be 	strh	r3, [fp, #-14]
300589bc:	e3a03000 	mov	r3, #0	; 0x0
300589c0:	e50b300c 	str	r3, [fp, #-12]
300589c4:	e3a03000 	mov	r3, #0	; 0x0
300589c8:	e54b3005 	strb	r3, [fp, #-5]
300589cc:	e51b201c 	ldr	r2, [fp, #-28]
300589d0:	e3a03000 	mov	r3, #0	; 0x0
300589d4:	e5823000 	str	r3, [r2]
300589d8:	e3a000fe 	mov	r0, #254	; 0xfe
300589dc:	ebfffd8e 	bl	3005801c <DM9000_ior>
300589e0:	e1a03000 	mov	r3, r0
300589e4:	e2033001 	and	r3, r3, #1	; 0x1
300589e8:	e20330ff 	and	r3, r3, #255	; 0xff
300589ec:	e3530000 	cmp	r3, #0	; 0x0
300589f0:	0a000061 	beq	30058b7c <dm9000_recv+0x1ec>
300589f4:	e3a000fe 	mov	r0, #254	; 0xfe
300589f8:	e3a01001 	mov	r1, #1	; 0x1
300589fc:	ebfffd74 	bl	30057fd4 <DM9000_iow>
30058a00:	e3a000f0 	mov	r0, #240	; 0xf0
30058a04:	ebfffd84 	bl	3005801c <DM9000_ior>
30058a08:	e1a03000 	mov	r3, r0
30058a0c:	e54b3005 	strb	r3, [fp, #-5]
30058a10:	e55b3005 	ldrb	r3, [fp, #-5]
30058a14:	e2033001 	and	r3, r3, #1	; 0x1
30058a18:	e3530000 	cmp	r3, #0	; 0x0
30058a1c:	1a00000a 	bne	30058a4c <dm9000_recv+0xbc>
30058a20:	e3a000f0 	mov	r0, #240	; 0xf0
30058a24:	ebfffd7c 	bl	3005801c <DM9000_ior>
30058a28:	e1a03000 	mov	r3, r0
30058a2c:	e54b3005 	strb	r3, [fp, #-5]
30058a30:	e55b3005 	ldrb	r3, [fp, #-5]
30058a34:	e2033001 	and	r3, r3, #1	; 0x1
30058a38:	e3530000 	cmp	r3, #0	; 0x0
30058a3c:	1a000002 	bne	30058a4c <dm9000_recv+0xbc>
30058a40:	e15b31b0 	ldrh	r3, [fp, #-16]
30058a44:	e50b3020 	str	r3, [fp, #-32]
30058a48:	ea00004d 	b	30058b84 <dm9000_recv+0x1f4>
30058a4c:	e3a000f2 	mov	r0, #242	; 0xf2
30058a50:	ebfffd84 	bl	30058068 <DM9000_ior16>
30058a54:	e1a03000 	mov	r3, r0
30058a58:	e14b31b2 	strh	r3, [fp, #-18]
30058a5c:	e3a000f2 	mov	r0, #242	; 0xf2
30058a60:	ebfffd80 	bl	30058068 <DM9000_ior16>
30058a64:	e1a03000 	mov	r3, r0
30058a68:	e14b31b0 	strh	r3, [fp, #-16]
30058a6c:	e15b21b0 	ldrh	r2, [fp, #-16]
30058a70:	e3a03e5f 	mov	r3, #1520	; 0x5f0
30058a74:	e2833001 	add	r3, r3, #1	; 0x1
30058a78:	e1520003 	cmp	r2, r3
30058a7c:	8a00002f 	bhi	30058b40 <dm9000_recv+0x1b0>
30058a80:	e3a03000 	mov	r3, #0	; 0x0
30058a84:	e50b300c 	str	r3, [fp, #-12]
30058a88:	ea000028 	b	30058b30 <dm9000_recv+0x1a0>
30058a8c:	e3a03202 	mov	r3, #536870912	; 0x20000000
30058a90:	e2833fc1 	add	r3, r3, #772	; 0x304
30058a94:	e1d330b0 	ldrh	r3, [r3]
30058a98:	e14b30be 	strh	r3, [fp, #-14]
30058a9c:	e51b301c 	ldr	r3, [fp, #-28]
30058aa0:	e5933000 	ldr	r3, [r3]
30058aa4:	e1a02083 	lsl	r2, r3, #1
30058aa8:	e1a03482 	lsl	r3, r2, #9
30058aac:	e0822003 	add	r2, r2, r3
30058ab0:	e51b3018 	ldr	r3, [fp, #-24]
30058ab4:	e0831002 	add	r1, r3, r2
30058ab8:	e51b000c 	ldr	r0, [fp, #-12]
30058abc:	e15b30be 	ldrh	r3, [fp, #-14]
30058ac0:	e203c0ff 	and	ip, r3, #255	; 0xff
30058ac4:	e3a02002 	mov	r2, #2	; 0x2
30058ac8:	e0813000 	add	r3, r1, r0
30058acc:	e0832002 	add	r2, r3, r2
30058ad0:	e1a0300c 	mov	r3, ip
30058ad4:	e5c23000 	strb	r3, [r2]
30058ad8:	e51b301c 	ldr	r3, [fp, #-28]
30058adc:	e5933000 	ldr	r3, [r3]
30058ae0:	e1a02083 	lsl	r2, r3, #1
30058ae4:	e1a03482 	lsl	r3, r2, #9
30058ae8:	e0822003 	add	r2, r2, r3
30058aec:	e51b3018 	ldr	r3, [fp, #-24]
30058af0:	e0830002 	add	r0, r3, r2
30058af4:	e51b300c 	ldr	r3, [fp, #-12]
30058af8:	e283c001 	add	ip, r3, #1	; 0x1
30058afc:	e15b30be 	ldrh	r3, [fp, #-14]
30058b00:	e1a03423 	lsr	r3, r3, #8
30058b04:	e1a03803 	lsl	r3, r3, #16
30058b08:	e1a03823 	lsr	r3, r3, #16
30058b0c:	e20310ff 	and	r1, r3, #255	; 0xff
30058b10:	e3a02002 	mov	r2, #2	; 0x2
30058b14:	e080300c 	add	r3, r0, ip
30058b18:	e0832002 	add	r2, r3, r2
30058b1c:	e1a03001 	mov	r3, r1
30058b20:	e5c23000 	strb	r3, [r2]
30058b24:	e51b300c 	ldr	r3, [fp, #-12]
30058b28:	e2833002 	add	r3, r3, #2	; 0x2
30058b2c:	e50b300c 	str	r3, [fp, #-12]
30058b30:	e15b21b0 	ldrh	r2, [fp, #-16]
30058b34:	e51b300c 	ldr	r3, [fp, #-12]
30058b38:	e1520003 	cmp	r2, r3
30058b3c:	8affffd2 	bhi	30058a8c <dm9000_recv+0xfc>
30058b40:	e51b301c 	ldr	r3, [fp, #-28]
30058b44:	e5933000 	ldr	r3, [r3]
30058b48:	e1a02083 	lsl	r2, r3, #1
30058b4c:	e1a03482 	lsl	r3, r2, #9
30058b50:	e0822003 	add	r2, r2, r3
30058b54:	e51b3018 	ldr	r3, [fp, #-24]
30058b58:	e0832002 	add	r2, r3, r2
30058b5c:	e15b31b0 	ldrh	r3, [fp, #-16]
30058b60:	e1c230b0 	strh	r3, [r2]
30058b64:	e51b301c 	ldr	r3, [fp, #-28]
30058b68:	e5933000 	ldr	r3, [r3]
30058b6c:	e2832001 	add	r2, r3, #1	; 0x1
30058b70:	e51b301c 	ldr	r3, [fp, #-28]
30058b74:	e5832000 	str	r2, [r3]
30058b78:	eaffffa0 	b	30058a00 <dm9000_recv+0x70>
30058b7c:	e15b31b0 	ldrh	r3, [fp, #-16]
30058b80:	e50b3020 	str	r3, [fp, #-32]
30058b84:	e51b3020 	ldr	r3, [fp, #-32]
30058b88:	e1a00003 	mov	r0, r3
30058b8c:	e24bd004 	sub	sp, fp, #4	; 0x4
30058b90:	e8bd4800 	pop	{fp, lr}
30058b94:	e12fff1e 	bx	lr

30058b98 <ascii_print>:
30058b98:	e92d4800 	push	{fp, lr}
30058b9c:	e28db004 	add	fp, sp, #4	; 0x4
30058ba0:	e24dd018 	sub	sp, sp, #24	; 0x18
30058ba4:	e50b0010 	str	r0, [fp, #-16]
30058ba8:	e50b1014 	str	r1, [fp, #-20]
30058bac:	e50b2018 	str	r2, [fp, #-24]
30058bb0:	e3a03000 	mov	r3, #0	; 0x0
30058bb4:	e50b3008 	str	r3, [fp, #-8]
30058bb8:	e51b3010 	ldr	r3, [fp, #-16]
30058bbc:	e3530000 	cmp	r3, #0	; 0x0
30058bc0:	0a000020 	beq	30058c48 <ascii_print+0xb0>
30058bc4:	e51b3014 	ldr	r3, [fp, #-20]
30058bc8:	e3530000 	cmp	r3, #0	; 0x0
30058bcc:	ba00001d 	blt	30058c48 <ascii_print+0xb0>
30058bd0:	e59f007c 	ldr	r0, [pc, #124]	; 30058c54 <ascii_print+0xbc>
30058bd4:	ebfff03a 	bl	30054cc4 <printf_string>
30058bd8:	e3a03000 	mov	r3, #0	; 0x0
30058bdc:	e50b3008 	str	r3, [fp, #-8]
30058be0:	ea000012 	b	30058c30 <ascii_print+0x98>
30058be4:	e51b3008 	ldr	r3, [fp, #-8]
30058be8:	e1a00003 	mov	r0, r3
30058bec:	e51b1018 	ldr	r1, [fp, #-24]
30058bf0:	eb000ba4 	bl	3005ba88 <__aeabi_idivmod>
30058bf4:	e1a03001 	mov	r3, r1
30058bf8:	e3530000 	cmp	r3, #0	; 0x0
30058bfc:	1a000001 	bne	30058c08 <ascii_print+0x70>
30058c00:	e59f004c 	ldr	r0, [pc, #76]	; 30058c54 <ascii_print+0xbc>
30058c04:	ebfff02e 	bl	30054cc4 <printf_string>
30058c08:	e51b2008 	ldr	r2, [fp, #-8]
30058c0c:	e51b3010 	ldr	r3, [fp, #-16]
30058c10:	e0833002 	add	r3, r3, r2
30058c14:	e5d33000 	ldrb	r3, [r3]
30058c18:	e59f0038 	ldr	r0, [pc, #56]	; 30058c58 <ascii_print+0xc0>
30058c1c:	e1a01003 	mov	r1, r3
30058c20:	ebfff027 	bl	30054cc4 <printf_string>
30058c24:	e51b3008 	ldr	r3, [fp, #-8]
30058c28:	e2833001 	add	r3, r3, #1	; 0x1
30058c2c:	e50b3008 	str	r3, [fp, #-8]
30058c30:	e51b2008 	ldr	r2, [fp, #-8]
30058c34:	e51b3014 	ldr	r3, [fp, #-20]
30058c38:	e1520003 	cmp	r2, r3
30058c3c:	baffffe8 	blt	30058be4 <ascii_print+0x4c>
30058c40:	e59f000c 	ldr	r0, [pc, #12]	; 30058c54 <ascii_print+0xbc>
30058c44:	ebfff01e 	bl	30054cc4 <printf_string>
30058c48:	e24bd004 	sub	sp, fp, #4	; 0x4
30058c4c:	e8bd4800 	pop	{fp, lr}
30058c50:	e12fff1e 	bx	lr
30058c54:	3005cc0c 	.word	0x3005cc0c
30058c58:	3005cc10 	.word	0x3005cc10

30058c5c <dm9000_test>:
30058c5c:	e92d4800 	push	{fp, lr}
30058c60:	e28db004 	add	fp, sp, #4	; 0x4
30058c64:	e24dd010 	sub	sp, sp, #16	; 0x10
30058c68:	e50b0010 	str	r0, [fp, #-16]
30058c6c:	e50b1014 	str	r1, [fp, #-20]
30058c70:	e3a03000 	mov	r3, #0	; 0x0
30058c74:	e50b3008 	str	r3, [fp, #-8]
30058c78:	e59f0018 	ldr	r0, [pc, #24]	; 30058c98 <dm9000_test+0x3c>
30058c7c:	ebffecbe 	bl	30053f7c <print_string>
30058c80:	ebfffe3c 	bl	30058578 <dm9000_init>
30058c84:	e51b3008 	ldr	r3, [fp, #-8]
30058c88:	e1a00003 	mov	r0, r3
30058c8c:	e24bd004 	sub	sp, fp, #4	; 0x4
30058c90:	e8bd4800 	pop	{fp, lr}
30058c94:	e12fff1e 	bx	lr
30058c98:	3005cc14 	.word	0x3005cc14

30058c9c <int_DM9000_process>:
30058c9c:	e92d4800 	push	{fp, lr}
30058ca0:	e28db004 	add	fp, sp, #4	; 0x4
30058ca4:	e24dd010 	sub	sp, sp, #16	; 0x10
30058ca8:	e3a03000 	mov	r3, #0	; 0x0
30058cac:	e50b3010 	str	r3, [fp, #-16]
30058cb0:	e3a03000 	mov	r3, #0	; 0x0
30058cb4:	e50b300c 	str	r3, [fp, #-12]
30058cb8:	e3a03000 	mov	r3, #0	; 0x0
30058cbc:	e50b3014 	str	r3, [fp, #-20]
30058cc0:	e3a03000 	mov	r3, #0	; 0x0
30058cc4:	e50b3008 	str	r3, [fp, #-8]
30058cc8:	e3a000fe 	mov	r0, #254	; 0xfe
30058ccc:	ebfffcd2 	bl	3005801c <DM9000_ior>
30058cd0:	e1a03000 	mov	r3, r0
30058cd4:	e50b300c 	str	r3, [fp, #-12]
30058cd8:	e51b300c 	ldr	r3, [fp, #-12]
30058cdc:	e2033001 	and	r3, r3, #1	; 0x1
30058ce0:	e20330ff 	and	r3, r3, #255	; 0xff
30058ce4:	e3530000 	cmp	r3, #0	; 0x0
30058ce8:	0a00002b 	beq	30058d9c <int_DM9000_process+0x100>
30058cec:	e59f00fc 	ldr	r0, [pc, #252]	; 30058df0 <int_DM9000_process+0x154>
30058cf0:	e3a01000 	mov	r1, #0	; 0x0
30058cf4:	e3a02a05 	mov	r2, #20480	; 0x5000
30058cf8:	e2822028 	add	r2, r2, #40	; 0x28
30058cfc:	ebffe192 	bl	3005134c <memset>
30058d00:	e24b3014 	sub	r3, fp, #20	; 0x14
30058d04:	e59f00e4 	ldr	r0, [pc, #228]	; 30058df0 <int_DM9000_process+0x154>
30058d08:	e1a01003 	mov	r1, r3
30058d0c:	ebffff1f 	bl	30058990 <dm9000_recv>
30058d10:	e3a03000 	mov	r3, #0	; 0x0
30058d14:	e50b3008 	str	r3, [fp, #-8]
30058d18:	ea00001b 	b	30058d8c <int_DM9000_process+0xf0>
30058d1c:	e51b3008 	ldr	r3, [fp, #-8]
30058d20:	e59f10c8 	ldr	r1, [pc, #200]	; 30058df0 <int_DM9000_process+0x154>
30058d24:	e1a03083 	lsl	r3, r3, #1
30058d28:	e1a02483 	lsl	r2, r3, #9
30058d2c:	e0833002 	add	r3, r3, r2
30058d30:	e0813003 	add	r3, r1, r3
30058d34:	e1d330b0 	ldrh	r3, [r3]
30058d38:	e3530000 	cmp	r3, #0	; 0x0
30058d3c:	0a00000f 	beq	30058d80 <int_DM9000_process+0xe4>
30058d40:	e51b3008 	ldr	r3, [fp, #-8]
30058d44:	e1a03083 	lsl	r3, r3, #1
30058d48:	e1a02483 	lsl	r2, r3, #9
30058d4c:	e0833002 	add	r3, r3, r2
30058d50:	e59f2098 	ldr	r2, [pc, #152]	; 30058df0 <int_DM9000_process+0x154>
30058d54:	e0833002 	add	r3, r3, r2
30058d58:	e2830002 	add	r0, r3, #2	; 0x2
30058d5c:	e51b3008 	ldr	r3, [fp, #-8]
30058d60:	e59f1088 	ldr	r1, [pc, #136]	; 30058df0 <int_DM9000_process+0x154>
30058d64:	e1a03083 	lsl	r3, r3, #1
30058d68:	e1a02483 	lsl	r2, r3, #9
30058d6c:	e0833002 	add	r3, r3, r2
30058d70:	e0813003 	add	r3, r1, r3
30058d74:	e1d330b0 	ldrh	r3, [r3]
30058d78:	e1a01003 	mov	r1, r3
30058d7c:	eb000a8b 	bl	3005b7b0 <net_handle>
30058d80:	e51b3008 	ldr	r3, [fp, #-8]
30058d84:	e2833001 	add	r3, r3, #1	; 0x1
30058d88:	e50b3008 	str	r3, [fp, #-8]
30058d8c:	e51b2014 	ldr	r2, [fp, #-20]
30058d90:	e51b3008 	ldr	r3, [fp, #-8]
30058d94:	e1530002 	cmp	r3, r2
30058d98:	baffffdf 	blt	30058d1c <int_DM9000_process+0x80>
30058d9c:	e51b300c 	ldr	r3, [fp, #-12]
30058da0:	e2033002 	and	r3, r3, #2	; 0x2
30058da4:	e3530000 	cmp	r3, #0	; 0x0
30058da8:	0a000002 	beq	30058db8 <int_DM9000_process+0x11c>
30058dac:	e3a000fe 	mov	r0, #254	; 0xfe
30058db0:	e3a01002 	mov	r1, #2	; 0x2
30058db4:	ebfffc86 	bl	30057fd4 <DM9000_iow>
30058db8:	e3a0244a 	mov	r2, #1241513984	; 0x4a000000
30058dbc:	e3a03010 	mov	r3, #16	; 0x10
30058dc0:	e5823000 	str	r3, [r2]
30058dc4:	e3a0344a 	mov	r3, #1241513984	; 0x4a000000
30058dc8:	e2833010 	add	r3, r3, #16	; 0x10
30058dcc:	e3a02010 	mov	r2, #16	; 0x10
30058dd0:	e5832000 	str	r2, [r3]
30058dd4:	e3a03456 	mov	r3, #1442840576	; 0x56000000
30058dd8:	e28330a8 	add	r3, r3, #168	; 0xa8
30058ddc:	e3a02080 	mov	r2, #128	; 0x80
30058de0:	e5832000 	str	r2, [r3]
30058de4:	e24bd004 	sub	sp, fp, #4	; 0x4
30058de8:	e8bd4800 	pop	{fp, lr}
30058dec:	e12fff1e 	bx	lr
30058df0:	3005f600 	.word	0x3005f600

30058df4 <InitButtonIrq>:
30058df4:	e92d4800 	push	{fp, lr}
30058df8:	e28db004 	add	fp, sp, #4	; 0x4
30058dfc:	e24dd010 	sub	sp, sp, #16	; 0x10
30058e00:	e3a03000 	mov	r3, #0	; 0x0
30058e04:	e50b3008 	str	r3, [fp, #-8]
30058e08:	e59f00b8 	ldr	r0, [pc, #184]	; 30058ec8 <InitButtonIrq+0xd4>
30058e0c:	ebffec5a 	bl	30053f7c <print_string>
30058e10:	e3a03456 	mov	r3, #1442840576	; 0x56000000
30058e14:	e2833050 	add	r3, r3, #80	; 0x50
30058e18:	e5933000 	ldr	r3, [r3]
30058e1c:	e3a03456 	mov	r3, #1442840576	; 0x56000000
30058e20:	e2833050 	add	r3, r3, #80	; 0x50
30058e24:	e3a02000 	mov	r2, #0	; 0x0
30058e28:	e5832000 	str	r2, [r3]
30058e2c:	e3a02456 	mov	r2, #1442840576	; 0x56000000
30058e30:	e2822050 	add	r2, r2, #80	; 0x50
30058e34:	e3a03456 	mov	r3, #1442840576	; 0x56000000
30058e38:	e2833050 	add	r3, r3, #80	; 0x50
30058e3c:	e5933000 	ldr	r3, [r3]
30058e40:	e3833502 	orr	r3, r3, #8388608	; 0x800000
30058e44:	e3833b2a 	orr	r3, r3, #43008	; 0xa800
30058e48:	e3833082 	orr	r3, r3, #130	; 0x82
30058e4c:	e5823000 	str	r3, [r2]
30058e50:	e3a02456 	mov	r2, #1442840576	; 0x56000000
30058e54:	e28220a4 	add	r2, r2, #164	; 0xa4
30058e58:	e3a03456 	mov	r3, #1442840576	; 0x56000000
30058e5c:	e28330a4 	add	r3, r3, #164	; 0xa4
30058e60:	e5933000 	ldr	r3, [r3]
30058e64:	e3c33a8e 	bic	r3, r3, #581632	; 0x8e000
30058e68:	e3c33c09 	bic	r3, r3, #2304	; 0x900
30058e6c:	e5823000 	str	r3, [r2]
30058e70:	e3a0244a 	mov	r2, #1241513984	; 0x4a000000
30058e74:	e2822008 	add	r2, r2, #8	; 0x8
30058e78:	e3a0344a 	mov	r3, #1241513984	; 0x4a000000
30058e7c:	e2833008 	add	r3, r3, #8	; 0x8
30058e80:	e5933000 	ldr	r3, [r3]
30058e84:	e3c33020 	bic	r3, r3, #32	; 0x20
30058e88:	e5823000 	str	r3, [r2]
30058e8c:	e10f0000 	mrs	r0, CPSR
30058e90:	e3c00080 	bic	r0, r0, #128	; 0x80
30058e94:	e121f000 	msr	CPSR_c, r0
30058e98:	e1a03000 	mov	r3, r0
30058e9c:	e50b3008 	str	r3, [fp, #-8]
30058ea0:	e59f0024 	ldr	r0, [pc, #36]	; 30058ecc <InitButtonIrq+0xd8>
30058ea4:	e51b1008 	ldr	r1, [fp, #-8]
30058ea8:	ebffef85 	bl	30054cc4 <printf_string>
30058eac:	e3a03456 	mov	r3, #1442840576	; 0x56000000
30058eb0:	e28330a8 	add	r3, r3, #168	; 0xa8
30058eb4:	e3e02000 	mvn	r2, #0	; 0x0
30058eb8:	e5832000 	str	r2, [r3]
30058ebc:	e24bd004 	sub	sp, fp, #4	; 0x4
30058ec0:	e8bd4800 	pop	{fp, lr}
30058ec4:	e12fff1e 	bx	lr
30058ec8:	3005cc24 	.word	0x3005cc24
30058ecc:	3005cc38 	.word	0x3005cc38

30058ed0 <ClearButtonIrq>:
30058ed0:	e92d4800 	push	{fp, lr}
30058ed4:	e28db004 	add	fp, sp, #4	; 0x4
30058ed8:	e24dd008 	sub	sp, sp, #8	; 0x8
30058edc:	e59f0074 	ldr	r0, [pc, #116]	; 30058f58 <ClearButtonIrq+0x88>
30058ee0:	ebffec25 	bl	30053f7c <print_string>
30058ee4:	e3a03456 	mov	r3, #1442840576	; 0x56000000
30058ee8:	e2833050 	add	r3, r3, #80	; 0x50
30058eec:	e5933000 	ldr	r3, [r3]
30058ef0:	e3a03456 	mov	r3, #1442840576	; 0x56000000
30058ef4:	e2833050 	add	r3, r3, #80	; 0x50
30058ef8:	e3a02000 	mov	r2, #0	; 0x0
30058efc:	e5832000 	str	r2, [r3]
30058f00:	e3a02456 	mov	r2, #1442840576	; 0x56000000
30058f04:	e28220a4 	add	r2, r2, #164	; 0xa4
30058f08:	e3a03456 	mov	r3, #1442840576	; 0x56000000
30058f0c:	e28330a4 	add	r3, r3, #164	; 0xa4
30058f10:	e5933000 	ldr	r3, [r3]
30058f14:	e3833a8e 	orr	r3, r3, #581632	; 0x8e000
30058f18:	e3833c09 	orr	r3, r3, #2304	; 0x900
30058f1c:	e5823000 	str	r3, [r2]
30058f20:	e3a0244a 	mov	r2, #1241513984	; 0x4a000000
30058f24:	e2822008 	add	r2, r2, #8	; 0x8
30058f28:	e3a0344a 	mov	r3, #1241513984	; 0x4a000000
30058f2c:	e2833008 	add	r3, r3, #8	; 0x8
30058f30:	e5933000 	ldr	r3, [r3]
30058f34:	e3833020 	orr	r3, r3, #32	; 0x20
30058f38:	e5823000 	str	r3, [r2]
30058f3c:	e3a03456 	mov	r3, #1442840576	; 0x56000000
30058f40:	e28330a8 	add	r3, r3, #168	; 0xa8
30058f44:	e3e02000 	mvn	r2, #0	; 0x0
30058f48:	e5832000 	str	r2, [r3]
30058f4c:	e24bd004 	sub	sp, fp, #4	; 0x4
30058f50:	e8bd4800 	pop	{fp, lr}
30058f54:	e12fff1e 	bx	lr
30058f58:	3005cc48 	.word	0x3005cc48

30058f5c <button_irq>:
30058f5c:	e92d4800 	push	{fp, lr}
30058f60:	e28db004 	add	fp, sp, #4	; 0x4
30058f64:	e24dd010 	sub	sp, sp, #16	; 0x10
30058f68:	e3a03000 	mov	r3, #0	; 0x0
30058f6c:	e50b3008 	str	r3, [fp, #-8]
30058f70:	e3a03456 	mov	r3, #1442840576	; 0x56000000
30058f74:	e28330a8 	add	r3, r3, #168	; 0xa8
30058f78:	e5933000 	ldr	r3, [r3]
30058f7c:	e50b3008 	str	r3, [fp, #-8]
30058f80:	e51b3008 	ldr	r3, [fp, #-8]
30058f84:	e50b3010 	str	r3, [fp, #-16]
30058f88:	e51b3010 	ldr	r3, [fp, #-16]
30058f8c:	e3530a02 	cmp	r3, #8192	; 0x2000
30058f90:	0a000019 	beq	30058ffc <button_irq+0xa0>
30058f94:	e51b3010 	ldr	r3, [fp, #-16]
30058f98:	e3530a02 	cmp	r3, #8192	; 0x2000
30058f9c:	8a000006 	bhi	30058fbc <button_irq+0x60>
30058fa0:	e51b3010 	ldr	r3, [fp, #-16]
30058fa4:	e3530c01 	cmp	r3, #256	; 0x100
30058fa8:	0a00000d 	beq	30058fe4 <button_irq+0x88>
30058fac:	e51b3010 	ldr	r3, [fp, #-16]
30058fb0:	e3530b02 	cmp	r3, #2048	; 0x800
30058fb4:	0a00000d 	beq	30058ff0 <button_irq+0x94>
30058fb8:	ea00001a 	b	30059028 <button_irq+0xcc>
30058fbc:	e51b3010 	ldr	r3, [fp, #-16]
30058fc0:	e3530902 	cmp	r3, #32768	; 0x8000
30058fc4:	0a000012 	beq	30059014 <button_irq+0xb8>
30058fc8:	e51b3010 	ldr	r3, [fp, #-16]
30058fcc:	e3530702 	cmp	r3, #524288	; 0x80000
30058fd0:	0a000012 	beq	30059020 <button_irq+0xc4>
30058fd4:	e51b3010 	ldr	r3, [fp, #-16]
30058fd8:	e3530901 	cmp	r3, #16384	; 0x4000
30058fdc:	0a000009 	beq	30059008 <button_irq+0xac>
30058fe0:	ea000010 	b	30059028 <button_irq+0xcc>
30058fe4:	e3a00000 	mov	r0, #0	; 0x0
30058fe8:	ebffea5f 	bl	3005396c <light_led>
30058fec:	ea00000d 	b	30059028 <button_irq+0xcc>
30058ff0:	e3a00000 	mov	r0, #0	; 0x0
30058ff4:	ebffea8f 	bl	30053a38 <put_out_led>
30058ff8:	ea00000a 	b	30059028 <button_irq+0xcc>
30058ffc:	e3a00001 	mov	r0, #1	; 0x1
30059000:	ebffea59 	bl	3005396c <light_led>
30059004:	ea000007 	b	30059028 <button_irq+0xcc>
30059008:	e3a00001 	mov	r0, #1	; 0x1
3005900c:	ebffea89 	bl	30053a38 <put_out_led>
30059010:	ea000004 	b	30059028 <button_irq+0xcc>
30059014:	e3a00002 	mov	r0, #2	; 0x2
30059018:	ebffea53 	bl	3005396c <light_led>
3005901c:	ea000001 	b	30059028 <button_irq+0xcc>
30059020:	e3a00002 	mov	r0, #2	; 0x2
30059024:	ebffea83 	bl	30053a38 <put_out_led>
30059028:	e24bd004 	sub	sp, fp, #4	; 0x4
3005902c:	e8bd4800 	pop	{fp, lr}
30059030:	e12fff1e 	bx	lr

30059034 <button_test>:
30059034:	e92d4800 	push	{fp, lr}
30059038:	e28db004 	add	fp, sp, #4	; 0x4
3005903c:	e24dd010 	sub	sp, sp, #16	; 0x10
30059040:	e50b0010 	str	r0, [fp, #-16]
30059044:	e50b1014 	str	r1, [fp, #-20]
30059048:	e3a03000 	mov	r3, #0	; 0x0
3005904c:	e50b300c 	str	r3, [fp, #-12]
30059050:	e3a03064 	mov	r3, #100	; 0x64
30059054:	e50b3008 	str	r3, [fp, #-8]
30059058:	e59f0064 	ldr	r0, [pc, #100]	; 300590c4 <button_test+0x90>
3005905c:	ebffebc6 	bl	30053f7c <print_string>
30059060:	ebffff63 	bl	30058df4 <InitButtonIrq>
30059064:	ea000004 	b	3005907c <button_test+0x48>
30059068:	e3a00a7a 	mov	r0, #499712	; 0x7a000
3005906c:	e2800e12 	add	r0, r0, #288	; 0x120
30059070:	ebffdfa3 	bl	30050f04 <delay>
30059074:	e59f004c 	ldr	r0, [pc, #76]	; 300590c8 <button_test+0x94>
30059078:	ebffebbf 	bl	30053f7c <print_string>
3005907c:	e51b3008 	ldr	r3, [fp, #-8]
30059080:	e3530000 	cmp	r3, #0	; 0x0
30059084:	03a03000 	moveq	r3, #0	; 0x0
30059088:	13a03001 	movne	r3, #1	; 0x1
3005908c:	e20320ff 	and	r2, r3, #255	; 0xff
30059090:	e51b3008 	ldr	r3, [fp, #-8]
30059094:	e2433001 	sub	r3, r3, #1	; 0x1
30059098:	e50b3008 	str	r3, [fp, #-8]
3005909c:	e3520000 	cmp	r2, #0	; 0x0
300590a0:	1afffff0 	bne	30059068 <button_test+0x34>
300590a4:	ebffff89 	bl	30058ed0 <ClearButtonIrq>
300590a8:	e59f001c 	ldr	r0, [pc, #28]	; 300590cc <button_test+0x98>
300590ac:	ebffebb2 	bl	30053f7c <print_string>
300590b0:	e51b300c 	ldr	r3, [fp, #-12]
300590b4:	e1a00003 	mov	r0, r3
300590b8:	e24bd004 	sub	sp, fp, #4	; 0x4
300590bc:	e8bd4800 	pop	{fp, lr}
300590c0:	e12fff1e 	bx	lr
300590c4:	3005cc5c 	.word	0x3005cc5c
300590c8:	3005cc8c 	.word	0x3005cc8c
300590cc:	3005cc90 	.word	0x3005cc90

300590d0 <i2c_delay>:
300590d0:	e52db004 	push	{fp}		; (str fp, [sp, #-4]!)
300590d4:	e28db000 	add	fp, sp, #0	; 0x0
300590d8:	e24dd014 	sub	sp, sp, #20	; 0x14
300590dc:	e50b0010 	str	r0, [fp, #-16]
300590e0:	e3a03000 	mov	r3, #0	; 0x0
300590e4:	e50b3008 	str	r3, [fp, #-8]
300590e8:	ea000008 	b	30059110 <i2c_delay+0x40>
300590ec:	e3a03000 	mov	r3, #0	; 0x0
300590f0:	e50b3008 	str	r3, [fp, #-8]
300590f4:	ea000002 	b	30059104 <i2c_delay+0x34>
300590f8:	e51b3008 	ldr	r3, [fp, #-8]
300590fc:	e2833001 	add	r3, r3, #1	; 0x1
30059100:	e50b3008 	str	r3, [fp, #-8]
30059104:	e51b3008 	ldr	r3, [fp, #-8]
30059108:	e3530063 	cmp	r3, #99	; 0x63
3005910c:	dafffff9 	ble	300590f8 <i2c_delay+0x28>
30059110:	e51b3010 	ldr	r3, [fp, #-16]
30059114:	e3530000 	cmp	r3, #0	; 0x0
30059118:	03a03000 	moveq	r3, #0	; 0x0
3005911c:	13a03001 	movne	r3, #1	; 0x1
30059120:	e20320ff 	and	r2, r3, #255	; 0xff
30059124:	e51b3010 	ldr	r3, [fp, #-16]
30059128:	e2433001 	sub	r3, r3, #1	; 0x1
3005912c:	e50b3010 	str	r3, [fp, #-16]
30059130:	e3520000 	cmp	r2, #0	; 0x0
30059134:	1affffec 	bne	300590ec <i2c_delay+0x1c>
30059138:	e28bd000 	add	sp, fp, #0	; 0x0
3005913c:	e8bd0800 	pop	{fp}
30059140:	e12fff1e 	bx	lr

30059144 <i2c_init>:
30059144:	e52db004 	push	{fp}		; (str fp, [sp, #-4]!)
30059148:	e28db000 	add	fp, sp, #0	; 0x0
3005914c:	e3a0244a 	mov	r2, #1241513984	; 0x4a000000
30059150:	e2822010 	add	r2, r2, #16	; 0x10
30059154:	e3a0344a 	mov	r3, #1241513984	; 0x4a000000
30059158:	e2833010 	add	r3, r3, #16	; 0x10
3005915c:	e5933000 	ldr	r3, [r3]
30059160:	e3833302 	orr	r3, r3, #134217728	; 0x8000000
30059164:	e5823000 	str	r3, [r2]
30059168:	e3a0244a 	mov	r2, #1241513984	; 0x4a000000
3005916c:	e3a0344a 	mov	r3, #1241513984	; 0x4a000000
30059170:	e5933000 	ldr	r3, [r3]
30059174:	e3833302 	orr	r3, r3, #134217728	; 0x8000000
30059178:	e5823000 	str	r3, [r2]
3005917c:	e3a0244a 	mov	r2, #1241513984	; 0x4a000000
30059180:	e2822008 	add	r2, r2, #8	; 0x8
30059184:	e3a0344a 	mov	r3, #1241513984	; 0x4a000000
30059188:	e2833008 	add	r3, r3, #8	; 0x8
3005918c:	e5933000 	ldr	r3, [r3]
30059190:	e3c33302 	bic	r3, r3, #134217728	; 0x8000000
30059194:	e5823000 	str	r3, [r2]
30059198:	e3a02315 	mov	r2, #1409286144	; 0x54000000
3005919c:	e3a03315 	mov	r3, #1409286144	; 0x54000000
300591a0:	e5d33000 	ldrb	r3, [r3]
300591a4:	e20330ff 	and	r3, r3, #255	; 0xff
300591a8:	e3833020 	orr	r3, r3, #32	; 0x20
300591ac:	e20330ff 	and	r3, r3, #255	; 0xff
300591b0:	e5c23000 	strb	r3, [r2]
300591b4:	e3a02315 	mov	r2, #1409286144	; 0x54000000
300591b8:	e3a03315 	mov	r3, #1409286144	; 0x54000000
300591bc:	e5d33000 	ldrb	r3, [r3]
300591c0:	e20330ff 	and	r3, r3, #255	; 0xff
300591c4:	e20330bf 	and	r3, r3, #191	; 0xbf
300591c8:	e5c23000 	strb	r3, [r2]
300591cc:	e3a02315 	mov	r2, #1409286144	; 0x54000000
300591d0:	e3a03315 	mov	r3, #1409286144	; 0x54000000
300591d4:	e5d33000 	ldrb	r3, [r3]
300591d8:	e20330ff 	and	r3, r3, #255	; 0xff
300591dc:	e20330f0 	and	r3, r3, #240	; 0xf0
300591e0:	e5c23000 	strb	r3, [r2]
300591e4:	e3a02315 	mov	r2, #1409286144	; 0x54000000
300591e8:	e3a03315 	mov	r3, #1409286144	; 0x54000000
300591ec:	e5d33000 	ldrb	r3, [r3]
300591f0:	e20330ff 	and	r3, r3, #255	; 0xff
300591f4:	e3833005 	orr	r3, r3, #5	; 0x5
300591f8:	e20330ff 	and	r3, r3, #255	; 0xff
300591fc:	e5c23000 	strb	r3, [r2]
30059200:	e3a02315 	mov	r2, #1409286144	; 0x54000000
30059204:	e2822004 	add	r2, r2, #4	; 0x4
30059208:	e3a03315 	mov	r3, #1409286144	; 0x54000000
3005920c:	e2833004 	add	r3, r3, #4	; 0x4
30059210:	e5d33000 	ldrb	r3, [r3]
30059214:	e20330ff 	and	r3, r3, #255	; 0xff
30059218:	e3833010 	orr	r3, r3, #16	; 0x10
3005921c:	e20330ff 	and	r3, r3, #255	; 0xff
30059220:	e5c23000 	strb	r3, [r2]
30059224:	e3a02456 	mov	r2, #1442840576	; 0x56000000
30059228:	e2822040 	add	r2, r2, #64	; 0x40
3005922c:	e3a03456 	mov	r3, #1442840576	; 0x56000000
30059230:	e2833040 	add	r3, r3, #64	; 0x40
30059234:	e5933000 	ldr	r3, [r3]
30059238:	e383320a 	orr	r3, r3, #-1610612736	; 0xa0000000
3005923c:	e5823000 	str	r3, [r2]
30059240:	e3a02456 	mov	r2, #1442840576	; 0x56000000
30059244:	e2822048 	add	r2, r2, #72	; 0x48
30059248:	e3a03456 	mov	r3, #1442840576	; 0x56000000
3005924c:	e2833048 	add	r3, r3, #72	; 0x48
30059250:	e5933000 	ldr	r3, [r3]
30059254:	e3833903 	orr	r3, r3, #49152	; 0xc000
30059258:	e5823000 	str	r3, [r2]
3005925c:	e3a02315 	mov	r2, #1409286144	; 0x54000000
30059260:	e3a03315 	mov	r3, #1409286144	; 0x54000000
30059264:	e5d33000 	ldrb	r3, [r3]
30059268:	e20330ff 	and	r3, r3, #255	; 0xff
3005926c:	e1e03c83 	mvn	r3, r3, lsl #25
30059270:	e1e03ca3 	mvn	r3, r3, lsr #25
30059274:	e20330ff 	and	r3, r3, #255	; 0xff
30059278:	e5c23000 	strb	r3, [r2]
3005927c:	e28bd000 	add	sp, fp, #0	; 0x0
30059280:	e8bd0800 	pop	{fp}
30059284:	e12fff1e 	bx	lr

30059288 <write_byte>:
30059288:	e92d4800 	push	{fp, lr}
3005928c:	e28db004 	add	fp, sp, #4	; 0x4
30059290:	e24dd008 	sub	sp, sp, #8	; 0x8
30059294:	e1a03000 	mov	r3, r0
30059298:	e1a02001 	mov	r2, r1
3005929c:	e54b3005 	strb	r3, [fp, #-5]
300592a0:	e1a03002 	mov	r3, r2
300592a4:	e54b3006 	strb	r3, [fp, #-6]
300592a8:	e3a02315 	mov	r2, #1409286144	; 0x54000000
300592ac:	e2822004 	add	r2, r2, #4	; 0x4
300592b0:	e3a03315 	mov	r3, #1409286144	; 0x54000000
300592b4:	e2833004 	add	r3, r3, #4	; 0x4
300592b8:	e5d33000 	ldrb	r3, [r3]
300592bc:	e20330ff 	and	r3, r3, #255	; 0xff
300592c0:	e1e03d03 	mvn	r3, r3, lsl #26
300592c4:	e1e03d23 	mvn	r3, r3, lsr #26
300592c8:	e20330ff 	and	r3, r3, #255	; 0xff
300592cc:	e5c23000 	strb	r3, [r2]
300592d0:	e3a03315 	mov	r3, #1409286144	; 0x54000000
300592d4:	e283300c 	add	r3, r3, #12	; 0xc
300592d8:	e3e0205f 	mvn	r2, #95	; 0x5f
300592dc:	e5c32000 	strb	r2, [r3]
300592e0:	e3a02315 	mov	r2, #1409286144	; 0x54000000
300592e4:	e3a03315 	mov	r3, #1409286144	; 0x54000000
300592e8:	e5d33000 	ldrb	r3, [r3]
300592ec:	e20330ff 	and	r3, r3, #255	; 0xff
300592f0:	e20330ef 	and	r3, r3, #239	; 0xef
300592f4:	e5c23000 	strb	r3, [r2]
300592f8:	e3a03315 	mov	r3, #1409286144	; 0x54000000
300592fc:	e2833004 	add	r3, r3, #4	; 0x4
30059300:	e3e0200f 	mvn	r2, #15	; 0xf
30059304:	e5c32000 	strb	r2, [r3]
30059308:	ea000001 	b	30059314 <write_byte+0x8c>
3005930c:	e3a00064 	mov	r0, #100	; 0x64
30059310:	ebffff6e 	bl	300590d0 <i2c_delay>
30059314:	e3a03315 	mov	r3, #1409286144	; 0x54000000
30059318:	e5d33000 	ldrb	r3, [r3]
3005931c:	e20330ff 	and	r3, r3, #255	; 0xff
30059320:	e2033010 	and	r3, r3, #16	; 0x10
30059324:	e3530000 	cmp	r3, #0	; 0x0
30059328:	0afffff7 	beq	3005930c <write_byte+0x84>
3005932c:	e3a03315 	mov	r3, #1409286144	; 0x54000000
30059330:	e283300c 	add	r3, r3, #12	; 0xc
30059334:	e55b2006 	ldrb	r2, [fp, #-6]
30059338:	e5c32000 	strb	r2, [r3]
3005933c:	e3a02315 	mov	r2, #1409286144	; 0x54000000
30059340:	e3a03315 	mov	r3, #1409286144	; 0x54000000
30059344:	e5d33000 	ldrb	r3, [r3]
30059348:	e20330ff 	and	r3, r3, #255	; 0xff
3005934c:	e20330ef 	and	r3, r3, #239	; 0xef
30059350:	e5c23000 	strb	r3, [r2]
30059354:	ea000001 	b	30059360 <write_byte+0xd8>
30059358:	e3a00064 	mov	r0, #100	; 0x64
3005935c:	ebffff5b 	bl	300590d0 <i2c_delay>
30059360:	e3a03315 	mov	r3, #1409286144	; 0x54000000
30059364:	e5d33000 	ldrb	r3, [r3]
30059368:	e20330ff 	and	r3, r3, #255	; 0xff
3005936c:	e2033010 	and	r3, r3, #16	; 0x10
30059370:	e3530000 	cmp	r3, #0	; 0x0
30059374:	0afffff7 	beq	30059358 <write_byte+0xd0>
30059378:	e3a03315 	mov	r3, #1409286144	; 0x54000000
3005937c:	e283300c 	add	r3, r3, #12	; 0xc
30059380:	e55b2005 	ldrb	r2, [fp, #-5]
30059384:	e5c32000 	strb	r2, [r3]
30059388:	e3a02315 	mov	r2, #1409286144	; 0x54000000
3005938c:	e3a03315 	mov	r3, #1409286144	; 0x54000000
30059390:	e5d33000 	ldrb	r3, [r3]
30059394:	e20330ff 	and	r3, r3, #255	; 0xff
30059398:	e20330ef 	and	r3, r3, #239	; 0xef
3005939c:	e5c23000 	strb	r3, [r2]
300593a0:	ea000001 	b	300593ac <write_byte+0x124>
300593a4:	e3a00064 	mov	r0, #100	; 0x64
300593a8:	ebffff48 	bl	300590d0 <i2c_delay>
300593ac:	e3a03315 	mov	r3, #1409286144	; 0x54000000
300593b0:	e5d33000 	ldrb	r3, [r3]
300593b4:	e20330ff 	and	r3, r3, #255	; 0xff
300593b8:	e2033010 	and	r3, r3, #16	; 0x10
300593bc:	e3530000 	cmp	r3, #0	; 0x0
300593c0:	0afffff7 	beq	300593a4 <write_byte+0x11c>
300593c4:	e3a03315 	mov	r3, #1409286144	; 0x54000000
300593c8:	e2833004 	add	r3, r3, #4	; 0x4
300593cc:	e3e0202f 	mvn	r2, #47	; 0x2f
300593d0:	e5c32000 	strb	r2, [r3]
300593d4:	e3a02315 	mov	r2, #1409286144	; 0x54000000
300593d8:	e3a03315 	mov	r3, #1409286144	; 0x54000000
300593dc:	e5d33000 	ldrb	r3, [r3]
300593e0:	e20330ff 	and	r3, r3, #255	; 0xff
300593e4:	e20330ef 	and	r3, r3, #239	; 0xef
300593e8:	e5c23000 	strb	r3, [r2]
300593ec:	e3a00064 	mov	r0, #100	; 0x64
300593f0:	ebffff36 	bl	300590d0 <i2c_delay>
300593f4:	e24bd004 	sub	sp, fp, #4	; 0x4
300593f8:	e8bd4800 	pop	{fp, lr}
300593fc:	e12fff1e 	bx	lr

30059400 <read_data>:
30059400:	e92d4800 	push	{fp, lr}
30059404:	e28db004 	add	fp, sp, #4	; 0x4
30059408:	e24dd018 	sub	sp, sp, #24	; 0x18
3005940c:	e50b0010 	str	r0, [fp, #-16]
30059410:	e1a03001 	mov	r3, r1
30059414:	e50b2018 	str	r2, [fp, #-24]
30059418:	e54b3011 	strb	r3, [fp, #-17]
3005941c:	e3a03000 	mov	r3, #0	; 0x0
30059420:	e50b300c 	str	r3, [fp, #-12]
30059424:	e3a02315 	mov	r2, #1409286144	; 0x54000000
30059428:	e2822004 	add	r2, r2, #4	; 0x4
3005942c:	e3a03315 	mov	r3, #1409286144	; 0x54000000
30059430:	e2833004 	add	r3, r3, #4	; 0x4
30059434:	e5d33000 	ldrb	r3, [r3]
30059438:	e20330ff 	and	r3, r3, #255	; 0xff
3005943c:	e1e03d03 	mvn	r3, r3, lsl #26
30059440:	e1e03d23 	mvn	r3, r3, lsr #26
30059444:	e20330ff 	and	r3, r3, #255	; 0xff
30059448:	e5c23000 	strb	r3, [r2]
3005944c:	e3a03315 	mov	r3, #1409286144	; 0x54000000
30059450:	e283300c 	add	r3, r3, #12	; 0xc
30059454:	e3e0205f 	mvn	r2, #95	; 0x5f
30059458:	e5c32000 	strb	r2, [r3]
3005945c:	e3a02315 	mov	r2, #1409286144	; 0x54000000
30059460:	e3a03315 	mov	r3, #1409286144	; 0x54000000
30059464:	e5d33000 	ldrb	r3, [r3]
30059468:	e20330ff 	and	r3, r3, #255	; 0xff
3005946c:	e20330ef 	and	r3, r3, #239	; 0xef
30059470:	e5c23000 	strb	r3, [r2]
30059474:	e3a03315 	mov	r3, #1409286144	; 0x54000000
30059478:	e2833004 	add	r3, r3, #4	; 0x4
3005947c:	e3e0200f 	mvn	r2, #15	; 0xf
30059480:	e5c32000 	strb	r2, [r3]
30059484:	ea000001 	b	30059490 <read_data+0x90>
30059488:	e3a00064 	mov	r0, #100	; 0x64
3005948c:	ebffff0f 	bl	300590d0 <i2c_delay>
30059490:	e3a03315 	mov	r3, #1409286144	; 0x54000000
30059494:	e5d33000 	ldrb	r3, [r3]
30059498:	e20330ff 	and	r3, r3, #255	; 0xff
3005949c:	e2033010 	and	r3, r3, #16	; 0x10
300594a0:	e3530000 	cmp	r3, #0	; 0x0
300594a4:	0afffff7 	beq	30059488 <read_data+0x88>
300594a8:	e3a03315 	mov	r3, #1409286144	; 0x54000000
300594ac:	e283300c 	add	r3, r3, #12	; 0xc
300594b0:	e55b2011 	ldrb	r2, [fp, #-17]
300594b4:	e5c32000 	strb	r2, [r3]
300594b8:	e3a02315 	mov	r2, #1409286144	; 0x54000000
300594bc:	e3a03315 	mov	r3, #1409286144	; 0x54000000
300594c0:	e5d33000 	ldrb	r3, [r3]
300594c4:	e20330ff 	and	r3, r3, #255	; 0xff
300594c8:	e20330ef 	and	r3, r3, #239	; 0xef
300594cc:	e5c23000 	strb	r3, [r2]
300594d0:	ea000001 	b	300594dc <read_data+0xdc>
300594d4:	e3a00064 	mov	r0, #100	; 0x64
300594d8:	ebfffefc 	bl	300590d0 <i2c_delay>
300594dc:	e3a03315 	mov	r3, #1409286144	; 0x54000000
300594e0:	e5d33000 	ldrb	r3, [r3]
300594e4:	e20330ff 	and	r3, r3, #255	; 0xff
300594e8:	e2033010 	and	r3, r3, #16	; 0x10
300594ec:	e3530000 	cmp	r3, #0	; 0x0
300594f0:	0afffff7 	beq	300594d4 <read_data+0xd4>
300594f4:	e3a02315 	mov	r2, #1409286144	; 0x54000000
300594f8:	e2822004 	add	r2, r2, #4	; 0x4
300594fc:	e3a03315 	mov	r3, #1409286144	; 0x54000000
30059500:	e2833004 	add	r3, r3, #4	; 0x4
30059504:	e5d33000 	ldrb	r3, [r3]
30059508:	e20330ff 	and	r3, r3, #255	; 0xff
3005950c:	e203303f 	and	r3, r3, #63	; 0x3f
30059510:	e5c23000 	strb	r3, [r2]
30059514:	e3a02315 	mov	r2, #1409286144	; 0x54000000
30059518:	e2822004 	add	r2, r2, #4	; 0x4
3005951c:	e3a03315 	mov	r3, #1409286144	; 0x54000000
30059520:	e2833004 	add	r3, r3, #4	; 0x4
30059524:	e5d33000 	ldrb	r3, [r3]
30059528:	e20330ff 	and	r3, r3, #255	; 0xff
3005952c:	e1e03c83 	mvn	r3, r3, lsl #25
30059530:	e1e03ca3 	mvn	r3, r3, lsr #25
30059534:	e20330ff 	and	r3, r3, #255	; 0xff
30059538:	e5c23000 	strb	r3, [r2]
3005953c:	e3a03315 	mov	r3, #1409286144	; 0x54000000
30059540:	e283300c 	add	r3, r3, #12	; 0xc
30059544:	e3e0205e 	mvn	r2, #94	; 0x5e
30059548:	e5c32000 	strb	r2, [r3]
3005954c:	e3a02315 	mov	r2, #1409286144	; 0x54000000
30059550:	e3a03315 	mov	r3, #1409286144	; 0x54000000
30059554:	e5d33000 	ldrb	r3, [r3]
30059558:	e20330ff 	and	r3, r3, #255	; 0xff
3005955c:	e20330ef 	and	r3, r3, #239	; 0xef
30059560:	e5c23000 	strb	r3, [r2]
30059564:	e3a03315 	mov	r3, #1409286144	; 0x54000000
30059568:	e2833004 	add	r3, r3, #4	; 0x4
3005956c:	e3e0204f 	mvn	r2, #79	; 0x4f
30059570:	e5c32000 	strb	r2, [r3]
30059574:	ea000001 	b	30059580 <read_data+0x180>
30059578:	e3a00064 	mov	r0, #100	; 0x64
3005957c:	ebfffed3 	bl	300590d0 <i2c_delay>
30059580:	e3a03315 	mov	r3, #1409286144	; 0x54000000
30059584:	e5d33000 	ldrb	r3, [r3]
30059588:	e20330ff 	and	r3, r3, #255	; 0xff
3005958c:	e2033010 	and	r3, r3, #16	; 0x10
30059590:	e3530000 	cmp	r3, #0	; 0x0
30059594:	0afffff7 	beq	30059578 <read_data+0x178>
30059598:	e3a03315 	mov	r3, #1409286144	; 0x54000000
3005959c:	e283300c 	add	r3, r3, #12	; 0xc
300595a0:	e55b2011 	ldrb	r2, [fp, #-17]
300595a4:	e5c32000 	strb	r2, [r3]
300595a8:	e3a02315 	mov	r2, #1409286144	; 0x54000000
300595ac:	e3a03315 	mov	r3, #1409286144	; 0x54000000
300595b0:	e5d33000 	ldrb	r3, [r3]
300595b4:	e20330ff 	and	r3, r3, #255	; 0xff
300595b8:	e20330ef 	and	r3, r3, #239	; 0xef
300595bc:	e5c23000 	strb	r3, [r2]
300595c0:	ea000001 	b	300595cc <read_data+0x1cc>
300595c4:	e3a00064 	mov	r0, #100	; 0x64
300595c8:	ebfffec0 	bl	300590d0 <i2c_delay>
300595cc:	e3a03315 	mov	r3, #1409286144	; 0x54000000
300595d0:	e5d33000 	ldrb	r3, [r3]
300595d4:	e20330ff 	and	r3, r3, #255	; 0xff
300595d8:	e2033010 	and	r3, r3, #16	; 0x10
300595dc:	e3530000 	cmp	r3, #0	; 0x0
300595e0:	0afffff7 	beq	300595c4 <read_data+0x1c4>
300595e4:	e3a03000 	mov	r3, #0	; 0x0
300595e8:	e50b300c 	str	r3, [fp, #-12]
300595ec:	ea000024 	b	30059684 <read_data+0x284>
300595f0:	e51b3018 	ldr	r3, [fp, #-24]
300595f4:	e2432001 	sub	r2, r3, #1	; 0x1
300595f8:	e51b300c 	ldr	r3, [fp, #-12]
300595fc:	e1520003 	cmp	r2, r3
30059600:	1a000005 	bne	3005961c <read_data+0x21c>
30059604:	e3a02315 	mov	r2, #1409286144	; 0x54000000
30059608:	e3a03315 	mov	r3, #1409286144	; 0x54000000
3005960c:	e5d33000 	ldrb	r3, [r3]
30059610:	e20330ff 	and	r3, r3, #255	; 0xff
30059614:	e203307f 	and	r3, r3, #127	; 0x7f
30059618:	e5c23000 	strb	r3, [r2]
3005961c:	e51b200c 	ldr	r2, [fp, #-12]
30059620:	e51b3010 	ldr	r3, [fp, #-16]
30059624:	e0832002 	add	r2, r3, r2
30059628:	e3a03315 	mov	r3, #1409286144	; 0x54000000
3005962c:	e283300c 	add	r3, r3, #12	; 0xc
30059630:	e5d33000 	ldrb	r3, [r3]
30059634:	e20330ff 	and	r3, r3, #255	; 0xff
30059638:	e5c23000 	strb	r3, [r2]
3005963c:	e3a02315 	mov	r2, #1409286144	; 0x54000000
30059640:	e3a03315 	mov	r3, #1409286144	; 0x54000000
30059644:	e5d33000 	ldrb	r3, [r3]
30059648:	e20330ff 	and	r3, r3, #255	; 0xff
3005964c:	e20330ef 	and	r3, r3, #239	; 0xef
30059650:	e5c23000 	strb	r3, [r2]
30059654:	ea000001 	b	30059660 <read_data+0x260>
30059658:	e3a00064 	mov	r0, #100	; 0x64
3005965c:	ebfffe9b 	bl	300590d0 <i2c_delay>
30059660:	e3a03315 	mov	r3, #1409286144	; 0x54000000
30059664:	e5d33000 	ldrb	r3, [r3]
30059668:	e20330ff 	and	r3, r3, #255	; 0xff
3005966c:	e2033010 	and	r3, r3, #16	; 0x10
30059670:	e3530000 	cmp	r3, #0	; 0x0
30059674:	0afffff7 	beq	30059658 <read_data+0x258>
30059678:	e51b300c 	ldr	r3, [fp, #-12]
3005967c:	e2833001 	add	r3, r3, #1	; 0x1
30059680:	e50b300c 	str	r3, [fp, #-12]
30059684:	e51b200c 	ldr	r2, [fp, #-12]
30059688:	e51b3018 	ldr	r3, [fp, #-24]
3005968c:	e1520003 	cmp	r2, r3
30059690:	baffffd6 	blt	300595f0 <read_data+0x1f0>
30059694:	e3a03315 	mov	r3, #1409286144	; 0x54000000
30059698:	e2833004 	add	r3, r3, #4	; 0x4
3005969c:	e3e0206f 	mvn	r2, #111	; 0x6f
300596a0:	e5c32000 	strb	r2, [r3]
300596a4:	e3a02315 	mov	r2, #1409286144	; 0x54000000
300596a8:	e3a03315 	mov	r3, #1409286144	; 0x54000000
300596ac:	e5d33000 	ldrb	r3, [r3]
300596b0:	e20330ff 	and	r3, r3, #255	; 0xff
300596b4:	e20330ef 	and	r3, r3, #239	; 0xef
300596b8:	e5c23000 	strb	r3, [r2]
300596bc:	e24bd004 	sub	sp, fp, #4	; 0x4
300596c0:	e8bd4800 	pop	{fp, lr}
300596c4:	e12fff1e 	bx	lr

300596c8 <I2cTest>:
300596c8:	e92d4800 	push	{fp, lr}
300596cc:	e28db004 	add	fp, sp, #4	; 0x4
300596d0:	e24ddf86 	sub	sp, sp, #536	; 0x218
300596d4:	e50b0210 	str	r0, [fp, #-528]
300596d8:	e50b1214 	str	r1, [fp, #-532]
300596dc:	e3a03000 	mov	r3, #0	; 0x0
300596e0:	e50b3008 	str	r3, [fp, #-8]
300596e4:	e24b3f42 	sub	r3, fp, #264	; 0x108
300596e8:	e3a02c01 	mov	r2, #256	; 0x100
300596ec:	e1a00003 	mov	r0, r3
300596f0:	e3a01000 	mov	r1, #0	; 0x0
300596f4:	ebffdf14 	bl	3005134c <memset>
300596f8:	e24b3f82 	sub	r3, fp, #520	; 0x208
300596fc:	e3a02c01 	mov	r2, #256	; 0x100
30059700:	e1a00003 	mov	r0, r3
30059704:	e3a01000 	mov	r1, #0	; 0x0
30059708:	ebffdf0f 	bl	3005134c <memset>
3005970c:	ebfffe8c 	bl	30059144 <i2c_init>
30059710:	e3a03000 	mov	r3, #0	; 0x0
30059714:	e50b3008 	str	r3, [fp, #-8]
30059718:	ea000014 	b	30059770 <I2cTest+0xa8>
3005971c:	e51b2008 	ldr	r2, [fp, #-8]
30059720:	e51b3008 	ldr	r3, [fp, #-8]
30059724:	e20310ff 	and	r1, r3, #255	; 0xff
30059728:	e3a034bf 	mov	r3, #-1090519040	; 0xbf000000
3005972c:	e1a03b43 	asr	r3, r3, #22
30059730:	e24b0004 	sub	r0, fp, #4	; 0x4
30059734:	e0802002 	add	r2, r0, r2
30059738:	e0822003 	add	r2, r2, r3
3005973c:	e1a03001 	mov	r3, r1
30059740:	e5c23000 	strb	r3, [r2]
30059744:	e51b2008 	ldr	r2, [fp, #-8]
30059748:	e3a03000 	mov	r3, #0	; 0x0
3005974c:	e2433f81 	sub	r3, r3, #516	; 0x204
30059750:	e24b1004 	sub	r1, fp, #4	; 0x4
30059754:	e0812002 	add	r2, r1, r2
30059758:	e0822003 	add	r2, r2, r3
3005975c:	e3a03000 	mov	r3, #0	; 0x0
30059760:	e5c23000 	strb	r3, [r2]
30059764:	e51b3008 	ldr	r3, [fp, #-8]
30059768:	e2833001 	add	r3, r3, #1	; 0x1
3005976c:	e50b3008 	str	r3, [fp, #-8]
30059770:	e51b3008 	ldr	r3, [fp, #-8]
30059774:	e35300ff 	cmp	r3, #255	; 0xff
30059778:	daffffe7 	ble	3005971c <I2cTest+0x54>
3005977c:	e59f014c 	ldr	r0, [pc, #332]	; 300598d0 <I2cTest+0x208>
30059780:	ebffed4f 	bl	30054cc4 <printf_string>
30059784:	e3a03000 	mov	r3, #0	; 0x0
30059788:	e50b3008 	str	r3, [fp, #-8]
3005978c:	ea000012 	b	300597dc <I2cTest+0x114>
30059790:	e51b3008 	ldr	r3, [fp, #-8]
30059794:	e2033007 	and	r3, r3, #7	; 0x7
30059798:	e3530000 	cmp	r3, #0	; 0x0
3005979c:	1a000001 	bne	300597a8 <I2cTest+0xe0>
300597a0:	e59f012c 	ldr	r0, [pc, #300]	; 300598d4 <I2cTest+0x20c>
300597a4:	ebffed46 	bl	30054cc4 <printf_string>
300597a8:	e51b2008 	ldr	r2, [fp, #-8]
300597ac:	e3a03000 	mov	r3, #0	; 0x0
300597b0:	e2433f81 	sub	r3, r3, #516	; 0x204
300597b4:	e24b0004 	sub	r0, fp, #4	; 0x4
300597b8:	e0802002 	add	r2, r0, r2
300597bc:	e0823003 	add	r3, r2, r3
300597c0:	e5d33000 	ldrb	r3, [r3]
300597c4:	e59f010c 	ldr	r0, [pc, #268]	; 300598d8 <I2cTest+0x210>
300597c8:	e1a01003 	mov	r1, r3
300597cc:	ebffed3c 	bl	30054cc4 <printf_string>
300597d0:	e51b3008 	ldr	r3, [fp, #-8]
300597d4:	e2833001 	add	r3, r3, #1	; 0x1
300597d8:	e50b3008 	str	r3, [fp, #-8]
300597dc:	e51b3008 	ldr	r3, [fp, #-8]
300597e0:	e35300ff 	cmp	r3, #255	; 0xff
300597e4:	daffffe9 	ble	30059790 <I2cTest+0xc8>
300597e8:	e3a03000 	mov	r3, #0	; 0x0
300597ec:	e50b3008 	str	r3, [fp, #-8]
300597f0:	ea00000e 	b	30059830 <I2cTest+0x168>
300597f4:	e51b2008 	ldr	r2, [fp, #-8]
300597f8:	e3a034bf 	mov	r3, #-1090519040	; 0xbf000000
300597fc:	e1a03b43 	asr	r3, r3, #22
30059800:	e24b1004 	sub	r1, fp, #4	; 0x4
30059804:	e0812002 	add	r2, r1, r2
30059808:	e0823003 	add	r3, r2, r3
3005980c:	e5d32000 	ldrb	r2, [r3]
30059810:	e51b3008 	ldr	r3, [fp, #-8]
30059814:	e20330ff 	and	r3, r3, #255	; 0xff
30059818:	e1a00002 	mov	r0, r2
3005981c:	e1a01003 	mov	r1, r3
30059820:	ebfffe98 	bl	30059288 <write_byte>
30059824:	e51b3008 	ldr	r3, [fp, #-8]
30059828:	e2833001 	add	r3, r3, #1	; 0x1
3005982c:	e50b3008 	str	r3, [fp, #-8]
30059830:	e51b3008 	ldr	r3, [fp, #-8]
30059834:	e35300ff 	cmp	r3, #255	; 0xff
30059838:	daffffed 	ble	300597f4 <I2cTest+0x12c>
3005983c:	e59f0098 	ldr	r0, [pc, #152]	; 300598dc <I2cTest+0x214>
30059840:	ebffed1f 	bl	30054cc4 <printf_string>
30059844:	e24b3f82 	sub	r3, fp, #520	; 0x208
30059848:	e1a00003 	mov	r0, r3
3005984c:	e3a01000 	mov	r1, #0	; 0x0
30059850:	e3a02c01 	mov	r2, #256	; 0x100
30059854:	ebfffee9 	bl	30059400 <read_data>
30059858:	e59f0080 	ldr	r0, [pc, #128]	; 300598e0 <I2cTest+0x218>
3005985c:	ebffed18 	bl	30054cc4 <printf_string>
30059860:	e3a03000 	mov	r3, #0	; 0x0
30059864:	e50b3008 	str	r3, [fp, #-8]
30059868:	ea000012 	b	300598b8 <I2cTest+0x1f0>
3005986c:	e51b3008 	ldr	r3, [fp, #-8]
30059870:	e2033007 	and	r3, r3, #7	; 0x7
30059874:	e3530000 	cmp	r3, #0	; 0x0
30059878:	1a000001 	bne	30059884 <I2cTest+0x1bc>
3005987c:	e59f0050 	ldr	r0, [pc, #80]	; 300598d4 <I2cTest+0x20c>
30059880:	ebffed0f 	bl	30054cc4 <printf_string>
30059884:	e51b2008 	ldr	r2, [fp, #-8]
30059888:	e3a03000 	mov	r3, #0	; 0x0
3005988c:	e2433f81 	sub	r3, r3, #516	; 0x204
30059890:	e24b0004 	sub	r0, fp, #4	; 0x4
30059894:	e0802002 	add	r2, r0, r2
30059898:	e0823003 	add	r3, r2, r3
3005989c:	e5d33000 	ldrb	r3, [r3]
300598a0:	e59f0030 	ldr	r0, [pc, #48]	; 300598d8 <I2cTest+0x210>
300598a4:	e1a01003 	mov	r1, r3
300598a8:	ebffed05 	bl	30054cc4 <printf_string>
300598ac:	e51b3008 	ldr	r3, [fp, #-8]
300598b0:	e2833001 	add	r3, r3, #1	; 0x1
300598b4:	e50b3008 	str	r3, [fp, #-8]
300598b8:	e51b3008 	ldr	r3, [fp, #-8]
300598bc:	e35300ff 	cmp	r3, #255	; 0xff
300598c0:	daffffe9 	ble	3005986c <I2cTest+0x1a4>
300598c4:	e24bd004 	sub	sp, fp, #4	; 0x4
300598c8:	e8bd4800 	pop	{fp, lr}
300598cc:	e12fff1e 	bx	lr
300598d0:	3005ccc4 	.word	0x3005ccc4
300598d4:	3005ccdc 	.word	0x3005ccdc
300598d8:	3005cce0 	.word	0x3005cce0
300598dc:	3005cce4 	.word	0x3005cce4
300598e0:	3005cd00 	.word	0x3005cd00

300598e4 <TimerRegDump>:
300598e4:	e92d4800 	push	{fp, lr}
300598e8:	e28db004 	add	fp, sp, #4	; 0x4
300598ec:	e59f0070 	ldr	r0, [pc, #112]	; 30059964 <TimerRegDump+0x80>
300598f0:	ebffecf3 	bl	30054cc4 <printf_string>
300598f4:	e3a03451 	mov	r3, #1358954496	; 0x51000000
300598f8:	e5933000 	ldr	r3, [r3]
300598fc:	e59f0064 	ldr	r0, [pc, #100]	; 30059968 <TimerRegDump+0x84>
30059900:	e1a01003 	mov	r1, r3
30059904:	ebffecee 	bl	30054cc4 <printf_string>
30059908:	e3a03451 	mov	r3, #1358954496	; 0x51000000
3005990c:	e2833004 	add	r3, r3, #4	; 0x4
30059910:	e5933000 	ldr	r3, [r3]
30059914:	e59f0050 	ldr	r0, [pc, #80]	; 3005996c <TimerRegDump+0x88>
30059918:	e1a01003 	mov	r1, r3
3005991c:	ebffece8 	bl	30054cc4 <printf_string>
30059920:	e3a03451 	mov	r3, #1358954496	; 0x51000000
30059924:	e2833008 	add	r3, r3, #8	; 0x8
30059928:	e5933000 	ldr	r3, [r3]
3005992c:	e59f003c 	ldr	r0, [pc, #60]	; 30059970 <TimerRegDump+0x8c>
30059930:	e1a01003 	mov	r1, r3
30059934:	ebffece2 	bl	30054cc4 <printf_string>
30059938:	e3a03451 	mov	r3, #1358954496	; 0x51000000
3005993c:	e283303c 	add	r3, r3, #60	; 0x3c
30059940:	e5933000 	ldr	r3, [r3]
30059944:	e59f0028 	ldr	r0, [pc, #40]	; 30059974 <TimerRegDump+0x90>
30059948:	e1a01003 	mov	r1, r3
3005994c:	ebffecdc 	bl	30054cc4 <printf_string>
30059950:	e59f0020 	ldr	r0, [pc, #32]	; 30059978 <TimerRegDump+0x94>
30059954:	ebffecda 	bl	30054cc4 <printf_string>
30059958:	e24bd004 	sub	sp, fp, #4	; 0x4
3005995c:	e8bd4800 	pop	{fp, lr}
30059960:	e12fff1e 	bx	lr
30059964:	3005cd18 	.word	0x3005cd18
30059968:	3005cd58 	.word	0x3005cd58
3005996c:	3005cd68 	.word	0x3005cd68
30059970:	3005cd78 	.word	0x3005cd78
30059974:	3005cd88 	.word	0x3005cd88
30059978:	3005cd98 	.word	0x3005cd98

3005997c <DeadZoneSet>:
3005997c:	e52db004 	push	{fp}		; (str fp, [sp, #-4]!)
30059980:	e28db000 	add	fp, sp, #0	; 0x0
30059984:	e24dd00c 	sub	sp, sp, #12	; 0xc
30059988:	e1a03000 	mov	r3, r0
3005998c:	e54b3005 	strb	r3, [fp, #-5]
30059990:	e3a02451 	mov	r2, #1358954496	; 0x51000000
30059994:	e3a03451 	mov	r3, #1358954496	; 0x51000000
30059998:	e5933000 	ldr	r3, [r3]
3005999c:	e3c338ff 	bic	r3, r3, #16711680	; 0xff0000
300599a0:	e5823000 	str	r3, [r2]
300599a4:	e3a01451 	mov	r1, #1358954496	; 0x51000000
300599a8:	e3a03451 	mov	r3, #1358954496	; 0x51000000
300599ac:	e5932000 	ldr	r2, [r3]
300599b0:	e55b3005 	ldrb	r3, [fp, #-5]
300599b4:	e1823003 	orr	r3, r2, r3
300599b8:	e5813000 	str	r3, [r1]
300599bc:	e28bd000 	add	sp, fp, #0	; 0x0
300599c0:	e8bd0800 	pop	{fp}
300599c4:	e12fff1e 	bx	lr

300599c8 <PrescalerSet>:
300599c8:	e92d4800 	push	{fp, lr}
300599cc:	e28db004 	add	fp, sp, #4	; 0x4
300599d0:	e24dd008 	sub	sp, sp, #8	; 0x8
300599d4:	e50b0008 	str	r0, [fp, #-8]
300599d8:	e1a03001 	mov	r3, r1
300599dc:	e54b3009 	strb	r3, [fp, #-9]
300599e0:	e51b3008 	ldr	r3, [fp, #-8]
300599e4:	e3530000 	cmp	r3, #0	; 0x0
300599e8:	1a00000b 	bne	30059a1c <PrescalerSet+0x54>
300599ec:	e3a02451 	mov	r2, #1358954496	; 0x51000000
300599f0:	e3a03451 	mov	r3, #1358954496	; 0x51000000
300599f4:	e5933000 	ldr	r3, [r3]
300599f8:	e3c330ff 	bic	r3, r3, #255	; 0xff
300599fc:	e5823000 	str	r3, [r2]
30059a00:	e3a01451 	mov	r1, #1358954496	; 0x51000000
30059a04:	e3a03451 	mov	r3, #1358954496	; 0x51000000
30059a08:	e5932000 	ldr	r2, [r3]
30059a0c:	e55b3009 	ldrb	r3, [fp, #-9]
30059a10:	e1823003 	orr	r3, r2, r3
30059a14:	e5813000 	str	r3, [r1]
30059a18:	ea000013 	b	30059a6c <PrescalerSet+0xa4>
30059a1c:	e51b3008 	ldr	r3, [fp, #-8]
30059a20:	e3530001 	cmp	r3, #1	; 0x1
30059a24:	1a00000e 	bne	30059a64 <PrescalerSet+0x9c>
30059a28:	e3a02451 	mov	r2, #1358954496	; 0x51000000
30059a2c:	e3a03451 	mov	r3, #1358954496	; 0x51000000
30059a30:	e5933000 	ldr	r3, [r3]
30059a34:	e3c33cff 	bic	r3, r3, #65280	; 0xff00
30059a38:	e5823000 	str	r3, [r2]
30059a3c:	e3a02451 	mov	r2, #1358954496	; 0x51000000
30059a40:	e3a03451 	mov	r3, #1358954496	; 0x51000000
30059a44:	e5931000 	ldr	r1, [r3]
30059a48:	e55b3009 	ldrb	r3, [fp, #-9]
30059a4c:	e1a03403 	lsl	r3, r3, #8
30059a50:	e1a03803 	lsl	r3, r3, #16
30059a54:	e1a03823 	lsr	r3, r3, #16
30059a58:	e1813003 	orr	r3, r1, r3
30059a5c:	e5823000 	str	r3, [r2]
30059a60:	ea000001 	b	30059a6c <PrescalerSet+0xa4>
30059a64:	e59f000c 	ldr	r0, [pc, #12]	; 30059a78 <PrescalerSet+0xb0>
30059a68:	ebffec95 	bl	30054cc4 <printf_string>
30059a6c:	e24bd004 	sub	sp, fp, #4	; 0x4
30059a70:	e8bd4800 	pop	{fp, lr}
30059a74:	e12fff1e 	bx	lr
30059a78:	3005cdd8 	.word	0x3005cdd8

30059a7c <DividerSet>:
30059a7c:	e92d4800 	push	{fp, lr}
30059a80:	e28db004 	add	fp, sp, #4	; 0x4
30059a84:	e24dd008 	sub	sp, sp, #8	; 0x8
30059a88:	e50b0008 	str	r0, [fp, #-8]
30059a8c:	e1a03001 	mov	r3, r1
30059a90:	e54b3009 	strb	r3, [fp, #-9]
30059a94:	e51b3008 	ldr	r3, [fp, #-8]
30059a98:	e3530004 	cmp	r3, #4	; 0x4
30059a9c:	979ff103 	ldrls	pc, [pc, r3, lsl #2]
30059aa0:	ea000027 	b	30059b44 <DividerSet+0xc8>
30059aa4:	30059ab8 	.word	0x30059ab8
30059aa8:	30059ad0 	.word	0x30059ad0
30059aac:	30059aec 	.word	0x30059aec
30059ab0:	30059b08 	.word	0x30059b08
30059ab4:	30059b28 	.word	0x30059b28
30059ab8:	e3a03451 	mov	r3, #1358954496	; 0x51000000
30059abc:	e2833004 	add	r3, r3, #4	; 0x4
30059ac0:	e55b2009 	ldrb	r2, [fp, #-9]
30059ac4:	e202200f 	and	r2, r2, #15	; 0xf
30059ac8:	e5832000 	str	r2, [r3]
30059acc:	ea00001e 	b	30059b4c <DividerSet+0xd0>
30059ad0:	e3a02451 	mov	r2, #1358954496	; 0x51000000
30059ad4:	e2822004 	add	r2, r2, #4	; 0x4
30059ad8:	e55b3009 	ldrb	r3, [fp, #-9]
30059adc:	e1a03203 	lsl	r3, r3, #4
30059ae0:	e20330ff 	and	r3, r3, #255	; 0xff
30059ae4:	e5823000 	str	r3, [r2]
30059ae8:	ea000017 	b	30059b4c <DividerSet+0xd0>
30059aec:	e3a02451 	mov	r2, #1358954496	; 0x51000000
30059af0:	e2822004 	add	r2, r2, #4	; 0x4
30059af4:	e55b3009 	ldrb	r3, [fp, #-9]
30059af8:	e203300f 	and	r3, r3, #15	; 0xf
30059afc:	e1a03403 	lsl	r3, r3, #8
30059b00:	e5823000 	str	r3, [r2]
30059b04:	ea000010 	b	30059b4c <DividerSet+0xd0>
30059b08:	e3a02451 	mov	r2, #1358954496	; 0x51000000
30059b0c:	e2822004 	add	r2, r2, #4	; 0x4
30059b10:	e55b3009 	ldrb	r3, [fp, #-9]
30059b14:	e1a03603 	lsl	r3, r3, #12
30059b18:	e1a03803 	lsl	r3, r3, #16
30059b1c:	e1a03823 	lsr	r3, r3, #16
30059b20:	e5823000 	str	r3, [r2]
30059b24:	ea000008 	b	30059b4c <DividerSet+0xd0>
30059b28:	e3a02451 	mov	r2, #1358954496	; 0x51000000
30059b2c:	e2822004 	add	r2, r2, #4	; 0x4
30059b30:	e55b3009 	ldrb	r3, [fp, #-9]
30059b34:	e203300f 	and	r3, r3, #15	; 0xf
30059b38:	e1a03803 	lsl	r3, r3, #16
30059b3c:	e5823000 	str	r3, [r2]
30059b40:	ea000001 	b	30059b4c <DividerSet+0xd0>
30059b44:	e59f000c 	ldr	r0, [pc, #12]	; 30059b58 <DividerSet+0xdc>
30059b48:	ebffec5d 	bl	30054cc4 <printf_string>
30059b4c:	e24bd004 	sub	sp, fp, #4	; 0x4
30059b50:	e8bd4800 	pop	{fp, lr}
30059b54:	e12fff1e 	bx	lr
30059b58:	3005cdf8 	.word	0x3005cdf8

30059b5c <DmaModeSet>:
30059b5c:	e52db004 	push	{fp}		; (str fp, [sp, #-4]!)
30059b60:	e28db000 	add	fp, sp, #0	; 0x0
30059b64:	e24dd00c 	sub	sp, sp, #12	; 0xc
30059b68:	e50b0008 	str	r0, [fp, #-8]
30059b6c:	e3a02451 	mov	r2, #1358954496	; 0x51000000
30059b70:	e2822004 	add	r2, r2, #4	; 0x4
30059b74:	e3a03451 	mov	r3, #1358954496	; 0x51000000
30059b78:	e2833004 	add	r3, r3, #4	; 0x4
30059b7c:	e5933000 	ldr	r3, [r3]
30059b80:	e3c3360f 	bic	r3, r3, #15728640	; 0xf00000
30059b84:	e5823000 	str	r3, [r2]
30059b88:	e3a02451 	mov	r2, #1358954496	; 0x51000000
30059b8c:	e2822004 	add	r2, r2, #4	; 0x4
30059b90:	e3a03451 	mov	r3, #1358954496	; 0x51000000
30059b94:	e2833004 	add	r3, r3, #4	; 0x4
30059b98:	e5931000 	ldr	r1, [r3]
30059b9c:	e51b3008 	ldr	r3, [fp, #-8]
30059ba0:	e203300f 	and	r3, r3, #15	; 0xf
30059ba4:	e1813003 	orr	r3, r1, r3
30059ba8:	e5823000 	str	r3, [r2]
30059bac:	e28bd000 	add	sp, fp, #0	; 0x0
30059bb0:	e8bd0800 	pop	{fp}
30059bb4:	e12fff1e 	bx	lr

30059bb8 <TimerSetOriginalVal>:
30059bb8:	e92d4800 	push	{fp, lr}
30059bbc:	e28db004 	add	fp, sp, #4	; 0x4
30059bc0:	e24dd010 	sub	sp, sp, #16	; 0x10
30059bc4:	e50b0008 	str	r0, [fp, #-8]
30059bc8:	e1a03001 	mov	r3, r1
30059bcc:	e50b2010 	str	r2, [fp, #-16]
30059bd0:	e14b30ba 	strh	r3, [fp, #-10]
30059bd4:	e51b3008 	ldr	r3, [fp, #-8]
30059bd8:	e3530004 	cmp	r3, #4	; 0x4
30059bdc:	979ff103 	ldrls	pc, [pc, r3, lsl #2]
30059be0:	ea00007a 	b	30059dd0 <TimerSetOriginalVal+0x218>
30059be4:	30059bf8 	.word	0x30059bf8
30059be8:	30059c54 	.word	0x30059c54
30059bec:	30059cb0 	.word	0x30059cb0
30059bf0:	30059d0c 	.word	0x30059d0c
30059bf4:	30059d68 	.word	0x30059d68
30059bf8:	e3a03451 	mov	r3, #1358954496	; 0x51000000
30059bfc:	e2833010 	add	r3, r3, #16	; 0x10
30059c00:	e15b20ba 	ldrh	r2, [fp, #-10]
30059c04:	e5832000 	str	r2, [r3]
30059c08:	e3a03451 	mov	r3, #1358954496	; 0x51000000
30059c0c:	e283300c 	add	r3, r3, #12	; 0xc
30059c10:	e51b2010 	ldr	r2, [fp, #-16]
30059c14:	e5832000 	str	r2, [r3]
30059c18:	e3a02451 	mov	r2, #1358954496	; 0x51000000
30059c1c:	e2822008 	add	r2, r2, #8	; 0x8
30059c20:	e3a03451 	mov	r3, #1358954496	; 0x51000000
30059c24:	e2833008 	add	r3, r3, #8	; 0x8
30059c28:	e5933000 	ldr	r3, [r3]
30059c2c:	e3c33002 	bic	r3, r3, #2	; 0x2
30059c30:	e5823000 	str	r3, [r2]
30059c34:	e3a02451 	mov	r2, #1358954496	; 0x51000000
30059c38:	e2822008 	add	r2, r2, #8	; 0x8
30059c3c:	e3a03451 	mov	r3, #1358954496	; 0x51000000
30059c40:	e2833008 	add	r3, r3, #8	; 0x8
30059c44:	e5933000 	ldr	r3, [r3]
30059c48:	e3833002 	orr	r3, r3, #2	; 0x2
30059c4c:	e5823000 	str	r3, [r2]
30059c50:	ea000060 	b	30059dd8 <TimerSetOriginalVal+0x220>
30059c54:	e3a03451 	mov	r3, #1358954496	; 0x51000000
30059c58:	e283301c 	add	r3, r3, #28	; 0x1c
30059c5c:	e15b20ba 	ldrh	r2, [fp, #-10]
30059c60:	e5832000 	str	r2, [r3]
30059c64:	e3a03451 	mov	r3, #1358954496	; 0x51000000
30059c68:	e2833018 	add	r3, r3, #24	; 0x18
30059c6c:	e51b2010 	ldr	r2, [fp, #-16]
30059c70:	e5832000 	str	r2, [r3]
30059c74:	e3a02451 	mov	r2, #1358954496	; 0x51000000
30059c78:	e2822008 	add	r2, r2, #8	; 0x8
30059c7c:	e3a03451 	mov	r3, #1358954496	; 0x51000000
30059c80:	e2833008 	add	r3, r3, #8	; 0x8
30059c84:	e5933000 	ldr	r3, [r3]
30059c88:	e3c33c02 	bic	r3, r3, #512	; 0x200
30059c8c:	e5823000 	str	r3, [r2]
30059c90:	e3a02451 	mov	r2, #1358954496	; 0x51000000
30059c94:	e2822008 	add	r2, r2, #8	; 0x8
30059c98:	e3a03451 	mov	r3, #1358954496	; 0x51000000
30059c9c:	e2833008 	add	r3, r3, #8	; 0x8
30059ca0:	e5933000 	ldr	r3, [r3]
30059ca4:	e3833c02 	orr	r3, r3, #512	; 0x200
30059ca8:	e5823000 	str	r3, [r2]
30059cac:	ea000049 	b	30059dd8 <TimerSetOriginalVal+0x220>
30059cb0:	e3a03451 	mov	r3, #1358954496	; 0x51000000
30059cb4:	e2833028 	add	r3, r3, #40	; 0x28
30059cb8:	e15b20ba 	ldrh	r2, [fp, #-10]
30059cbc:	e5832000 	str	r2, [r3]
30059cc0:	e3a03451 	mov	r3, #1358954496	; 0x51000000
30059cc4:	e2833024 	add	r3, r3, #36	; 0x24
30059cc8:	e51b2010 	ldr	r2, [fp, #-16]
30059ccc:	e5832000 	str	r2, [r3]
30059cd0:	e3a02451 	mov	r2, #1358954496	; 0x51000000
30059cd4:	e2822008 	add	r2, r2, #8	; 0x8
30059cd8:	e3a03451 	mov	r3, #1358954496	; 0x51000000
30059cdc:	e2833008 	add	r3, r3, #8	; 0x8
30059ce0:	e5933000 	ldr	r3, [r3]
30059ce4:	e3c33a02 	bic	r3, r3, #8192	; 0x2000
30059ce8:	e5823000 	str	r3, [r2]
30059cec:	e3a02451 	mov	r2, #1358954496	; 0x51000000
30059cf0:	e2822008 	add	r2, r2, #8	; 0x8
30059cf4:	e3a03451 	mov	r3, #1358954496	; 0x51000000
30059cf8:	e2833008 	add	r3, r3, #8	; 0x8
30059cfc:	e5933000 	ldr	r3, [r3]
30059d00:	e3833a02 	orr	r3, r3, #8192	; 0x2000
30059d04:	e5823000 	str	r3, [r2]
30059d08:	ea000032 	b	30059dd8 <TimerSetOriginalVal+0x220>
30059d0c:	e3a03451 	mov	r3, #1358954496	; 0x51000000
30059d10:	e2833034 	add	r3, r3, #52	; 0x34
30059d14:	e15b20ba 	ldrh	r2, [fp, #-10]
30059d18:	e5832000 	str	r2, [r3]
30059d1c:	e3a03451 	mov	r3, #1358954496	; 0x51000000
30059d20:	e2833030 	add	r3, r3, #48	; 0x30
30059d24:	e51b2010 	ldr	r2, [fp, #-16]
30059d28:	e5832000 	str	r2, [r3]
30059d2c:	e3a02451 	mov	r2, #1358954496	; 0x51000000
30059d30:	e2822008 	add	r2, r2, #8	; 0x8
30059d34:	e3a03451 	mov	r3, #1358954496	; 0x51000000
30059d38:	e2833008 	add	r3, r3, #8	; 0x8
30059d3c:	e5933000 	ldr	r3, [r3]
30059d40:	e3c33802 	bic	r3, r3, #131072	; 0x20000
30059d44:	e5823000 	str	r3, [r2]
30059d48:	e3a02451 	mov	r2, #1358954496	; 0x51000000
30059d4c:	e2822008 	add	r2, r2, #8	; 0x8
30059d50:	e3a03451 	mov	r3, #1358954496	; 0x51000000
30059d54:	e2833008 	add	r3, r3, #8	; 0x8
30059d58:	e5933000 	ldr	r3, [r3]
30059d5c:	e3833802 	orr	r3, r3, #131072	; 0x20000
30059d60:	e5823000 	str	r3, [r2]
30059d64:	ea00001b 	b	30059dd8 <TimerSetOriginalVal+0x220>
30059d68:	e3a03451 	mov	r3, #1358954496	; 0x51000000
30059d6c:	e283303c 	add	r3, r3, #60	; 0x3c
30059d70:	e51b2010 	ldr	r2, [fp, #-16]
30059d74:	e5832000 	str	r2, [r3]
30059d78:	e3a02451 	mov	r2, #1358954496	; 0x51000000
30059d7c:	e2822008 	add	r2, r2, #8	; 0x8
30059d80:	e3a03451 	mov	r3, #1358954496	; 0x51000000
30059d84:	e2833008 	add	r3, r3, #8	; 0x8
30059d88:	e5933000 	ldr	r3, [r3]
30059d8c:	e3c33602 	bic	r3, r3, #2097152	; 0x200000
30059d90:	e5823000 	str	r3, [r2]
30059d94:	e3a02451 	mov	r2, #1358954496	; 0x51000000
30059d98:	e2822008 	add	r2, r2, #8	; 0x8
30059d9c:	e3a03451 	mov	r3, #1358954496	; 0x51000000
30059da0:	e2833008 	add	r3, r3, #8	; 0x8
30059da4:	e5933000 	ldr	r3, [r3]
30059da8:	e3833602 	orr	r3, r3, #2097152	; 0x200000
30059dac:	e5823000 	str	r3, [r2]
30059db0:	e3a02451 	mov	r2, #1358954496	; 0x51000000
30059db4:	e2822008 	add	r2, r2, #8	; 0x8
30059db8:	e3a03451 	mov	r3, #1358954496	; 0x51000000
30059dbc:	e2833008 	add	r3, r3, #8	; 0x8
30059dc0:	e5933000 	ldr	r3, [r3]
30059dc4:	e3c33602 	bic	r3, r3, #2097152	; 0x200000
30059dc8:	e5823000 	str	r3, [r2]
30059dcc:	ea000001 	b	30059dd8 <TimerSetOriginalVal+0x220>
30059dd0:	e59f000c 	ldr	r0, [pc, #12]	; 30059de4 <TimerSetOriginalVal+0x22c>
30059dd4:	ebffebba 	bl	30054cc4 <printf_string>
30059dd8:	e24bd004 	sub	sp, fp, #4	; 0x4
30059ddc:	e8bd4800 	pop	{fp, lr}
30059de0:	e12fff1e 	bx	lr
30059de4:	3005cdf8 	.word	0x3005cdf8

30059de8 <TimerIsReloadSet>:
30059de8:	e92d4800 	push	{fp, lr}
30059dec:	e28db004 	add	fp, sp, #4	; 0x4
30059df0:	e24dd020 	sub	sp, sp, #32	; 0x20
30059df4:	e50b0008 	str	r0, [fp, #-8]
30059df8:	e1a03001 	mov	r3, r1
30059dfc:	e54b3009 	strb	r3, [fp, #-9]
30059e00:	e51b3008 	ldr	r3, [fp, #-8]
30059e04:	e3530004 	cmp	r3, #4	; 0x4
30059e08:	979ff103 	ldrls	pc, [pc, r3, lsl #2]
30059e0c:	ea00006d 	b	30059fc8 <TimerIsReloadSet+0x1e0>
30059e10:	30059e24 	.word	0x30059e24
30059e14:	30059e78 	.word	0x30059e78
30059e18:	30059ecc 	.word	0x30059ecc
30059e1c:	30059f20 	.word	0x30059f20
30059e20:	30059f74 	.word	0x30059f74
30059e24:	e55b3009 	ldrb	r3, [fp, #-9]
30059e28:	e3530000 	cmp	r3, #0	; 0x0
30059e2c:	0a000008 	beq	30059e54 <TimerIsReloadSet+0x6c>
30059e30:	e3a02451 	mov	r2, #1358954496	; 0x51000000
30059e34:	e2822008 	add	r2, r2, #8	; 0x8
30059e38:	e3a03451 	mov	r3, #1358954496	; 0x51000000
30059e3c:	e2833008 	add	r3, r3, #8	; 0x8
30059e40:	e5933000 	ldr	r3, [r3]
30059e44:	e3833008 	orr	r3, r3, #8	; 0x8
30059e48:	e5823000 	str	r3, [r2]
30059e4c:	e5922000 	ldr	r2, [r2]
30059e50:	ea00005e 	b	30059fd0 <TimerIsReloadSet+0x1e8>
30059e54:	e3a02451 	mov	r2, #1358954496	; 0x51000000
30059e58:	e2822008 	add	r2, r2, #8	; 0x8
30059e5c:	e3a03451 	mov	r3, #1358954496	; 0x51000000
30059e60:	e2833008 	add	r3, r3, #8	; 0x8
30059e64:	e5933000 	ldr	r3, [r3]
30059e68:	e3c33008 	bic	r3, r3, #8	; 0x8
30059e6c:	e5823000 	str	r3, [r2]
30059e70:	e5922000 	ldr	r2, [r2]
30059e74:	ea000055 	b	30059fd0 <TimerIsReloadSet+0x1e8>
30059e78:	e55b3009 	ldrb	r3, [fp, #-9]
30059e7c:	e3530000 	cmp	r3, #0	; 0x0
30059e80:	0a000008 	beq	30059ea8 <TimerIsReloadSet+0xc0>
30059e84:	e3a02451 	mov	r2, #1358954496	; 0x51000000
30059e88:	e2822008 	add	r2, r2, #8	; 0x8
30059e8c:	e3a03451 	mov	r3, #1358954496	; 0x51000000
30059e90:	e2833008 	add	r3, r3, #8	; 0x8
30059e94:	e5933000 	ldr	r3, [r3]
30059e98:	e3833b02 	orr	r3, r3, #2048	; 0x800
30059e9c:	e5823000 	str	r3, [r2]
30059ea0:	e5922000 	ldr	r2, [r2]
30059ea4:	ea000049 	b	30059fd0 <TimerIsReloadSet+0x1e8>
30059ea8:	e3a02451 	mov	r2, #1358954496	; 0x51000000
30059eac:	e2822008 	add	r2, r2, #8	; 0x8
30059eb0:	e3a03451 	mov	r3, #1358954496	; 0x51000000
30059eb4:	e2833008 	add	r3, r3, #8	; 0x8
30059eb8:	e5933000 	ldr	r3, [r3]
30059ebc:	e3c33b02 	bic	r3, r3, #2048	; 0x800
30059ec0:	e5823000 	str	r3, [r2]
30059ec4:	e5922000 	ldr	r2, [r2]
30059ec8:	ea000040 	b	30059fd0 <TimerIsReloadSet+0x1e8>
30059ecc:	e55b3009 	ldrb	r3, [fp, #-9]
30059ed0:	e3530000 	cmp	r3, #0	; 0x0
30059ed4:	0a000008 	beq	30059efc <TimerIsReloadSet+0x114>
30059ed8:	e3a02451 	mov	r2, #1358954496	; 0x51000000
30059edc:	e2822008 	add	r2, r2, #8	; 0x8
30059ee0:	e3a03451 	mov	r3, #1358954496	; 0x51000000
30059ee4:	e2833008 	add	r3, r3, #8	; 0x8
30059ee8:	e5933000 	ldr	r3, [r3]
30059eec:	e3833902 	orr	r3, r3, #32768	; 0x8000
30059ef0:	e5823000 	str	r3, [r2]
30059ef4:	e5922000 	ldr	r2, [r2]
30059ef8:	ea000034 	b	30059fd0 <TimerIsReloadSet+0x1e8>
30059efc:	e3a02451 	mov	r2, #1358954496	; 0x51000000
30059f00:	e2822008 	add	r2, r2, #8	; 0x8
30059f04:	e3a03451 	mov	r3, #1358954496	; 0x51000000
30059f08:	e2833008 	add	r3, r3, #8	; 0x8
30059f0c:	e5933000 	ldr	r3, [r3]
30059f10:	e3c33902 	bic	r3, r3, #32768	; 0x8000
30059f14:	e5823000 	str	r3, [r2]
30059f18:	e5922000 	ldr	r2, [r2]
30059f1c:	ea00002b 	b	30059fd0 <TimerIsReloadSet+0x1e8>
30059f20:	e55b3009 	ldrb	r3, [fp, #-9]
30059f24:	e3530000 	cmp	r3, #0	; 0x0
30059f28:	0a000008 	beq	30059f50 <TimerIsReloadSet+0x168>
30059f2c:	e3a02451 	mov	r2, #1358954496	; 0x51000000
30059f30:	e2822008 	add	r2, r2, #8	; 0x8
30059f34:	e3a03451 	mov	r3, #1358954496	; 0x51000000
30059f38:	e2833008 	add	r3, r3, #8	; 0x8
30059f3c:	e5933000 	ldr	r3, [r3]
30059f40:	e3833702 	orr	r3, r3, #524288	; 0x80000
30059f44:	e5823000 	str	r3, [r2]
30059f48:	e5922000 	ldr	r2, [r2]
30059f4c:	ea00001f 	b	30059fd0 <TimerIsReloadSet+0x1e8>
30059f50:	e3a02451 	mov	r2, #1358954496	; 0x51000000
30059f54:	e2822008 	add	r2, r2, #8	; 0x8
30059f58:	e3a03451 	mov	r3, #1358954496	; 0x51000000
30059f5c:	e2833008 	add	r3, r3, #8	; 0x8
30059f60:	e5933000 	ldr	r3, [r3]
30059f64:	e3c33702 	bic	r3, r3, #524288	; 0x80000
30059f68:	e5823000 	str	r3, [r2]
30059f6c:	e5922000 	ldr	r2, [r2]
30059f70:	ea000016 	b	30059fd0 <TimerIsReloadSet+0x1e8>
30059f74:	e55b3009 	ldrb	r3, [fp, #-9]
30059f78:	e3530000 	cmp	r3, #0	; 0x0
30059f7c:	0a000008 	beq	30059fa4 <TimerIsReloadSet+0x1bc>
30059f80:	e3a02451 	mov	r2, #1358954496	; 0x51000000
30059f84:	e2822008 	add	r2, r2, #8	; 0x8
30059f88:	e3a03451 	mov	r3, #1358954496	; 0x51000000
30059f8c:	e2833008 	add	r3, r3, #8	; 0x8
30059f90:	e5933000 	ldr	r3, [r3]
30059f94:	e3833501 	orr	r3, r3, #4194304	; 0x400000
30059f98:	e5823000 	str	r3, [r2]
30059f9c:	e5922000 	ldr	r2, [r2]
30059fa0:	ea00000a 	b	30059fd0 <TimerIsReloadSet+0x1e8>
30059fa4:	e3a02451 	mov	r2, #1358954496	; 0x51000000
30059fa8:	e2822008 	add	r2, r2, #8	; 0x8
30059fac:	e3a03451 	mov	r3, #1358954496	; 0x51000000
30059fb0:	e2833008 	add	r3, r3, #8	; 0x8
30059fb4:	e5933000 	ldr	r3, [r3]
30059fb8:	e3c33501 	bic	r3, r3, #4194304	; 0x400000
30059fbc:	e5823000 	str	r3, [r2]
30059fc0:	e5922000 	ldr	r2, [r2]
30059fc4:	ea000001 	b	30059fd0 <TimerIsReloadSet+0x1e8>
30059fc8:	e59f000c 	ldr	r0, [pc, #12]	; 30059fdc <TimerIsReloadSet+0x1f4>
30059fcc:	ebffeb3c 	bl	30054cc4 <printf_string>
30059fd0:	e24bd004 	sub	sp, fp, #4	; 0x4
30059fd4:	e8bd4800 	pop	{fp, lr}
30059fd8:	e12fff1e 	bx	lr
30059fdc:	3005cdf8 	.word	0x3005cdf8

30059fe0 <TimerOutputIsRevert>:
30059fe0:	e92d4800 	push	{fp, lr}
30059fe4:	e28db004 	add	fp, sp, #4	; 0x4
30059fe8:	e24dd018 	sub	sp, sp, #24	; 0x18
30059fec:	e50b0008 	str	r0, [fp, #-8]
30059ff0:	e1a03001 	mov	r3, r1
30059ff4:	e54b3009 	strb	r3, [fp, #-9]
30059ff8:	e51b3008 	ldr	r3, [fp, #-8]
30059ffc:	e3530004 	cmp	r3, #4	; 0x4
3005a000:	979ff103 	ldrls	pc, [pc, r3, lsl #2]
3005a004:	ea00005b 	b	3005a178 <TimerOutputIsRevert+0x198>
3005a008:	3005a01c 	.word	0x3005a01c
3005a00c:	3005a070 	.word	0x3005a070
3005a010:	3005a0c4 	.word	0x3005a0c4
3005a014:	3005a118 	.word	0x3005a118
3005a018:	3005a16c 	.word	0x3005a16c
3005a01c:	e55b3009 	ldrb	r3, [fp, #-9]
3005a020:	e3530000 	cmp	r3, #0	; 0x0
3005a024:	0a000008 	beq	3005a04c <TimerOutputIsRevert+0x6c>
3005a028:	e3a02451 	mov	r2, #1358954496	; 0x51000000
3005a02c:	e2822008 	add	r2, r2, #8	; 0x8
3005a030:	e3a03451 	mov	r3, #1358954496	; 0x51000000
3005a034:	e2833008 	add	r3, r3, #8	; 0x8
3005a038:	e5933000 	ldr	r3, [r3]
3005a03c:	e3833004 	orr	r3, r3, #4	; 0x4
3005a040:	e5823000 	str	r3, [r2]
3005a044:	e5922000 	ldr	r2, [r2]
3005a048:	ea00004c 	b	3005a180 <TimerOutputIsRevert+0x1a0>
3005a04c:	e3a02451 	mov	r2, #1358954496	; 0x51000000
3005a050:	e2822008 	add	r2, r2, #8	; 0x8
3005a054:	e3a03451 	mov	r3, #1358954496	; 0x51000000
3005a058:	e2833008 	add	r3, r3, #8	; 0x8
3005a05c:	e5933000 	ldr	r3, [r3]
3005a060:	e3c33004 	bic	r3, r3, #4	; 0x4
3005a064:	e5823000 	str	r3, [r2]
3005a068:	e5922000 	ldr	r2, [r2]
3005a06c:	ea000043 	b	3005a180 <TimerOutputIsRevert+0x1a0>
3005a070:	e55b3009 	ldrb	r3, [fp, #-9]
3005a074:	e3530000 	cmp	r3, #0	; 0x0
3005a078:	0a000008 	beq	3005a0a0 <TimerOutputIsRevert+0xc0>
3005a07c:	e3a02451 	mov	r2, #1358954496	; 0x51000000
3005a080:	e2822008 	add	r2, r2, #8	; 0x8
3005a084:	e3a03451 	mov	r3, #1358954496	; 0x51000000
3005a088:	e2833008 	add	r3, r3, #8	; 0x8
3005a08c:	e5933000 	ldr	r3, [r3]
3005a090:	e3833b01 	orr	r3, r3, #1024	; 0x400
3005a094:	e5823000 	str	r3, [r2]
3005a098:	e5922000 	ldr	r2, [r2]
3005a09c:	ea000037 	b	3005a180 <TimerOutputIsRevert+0x1a0>
3005a0a0:	e3a02451 	mov	r2, #1358954496	; 0x51000000
3005a0a4:	e2822008 	add	r2, r2, #8	; 0x8
3005a0a8:	e3a03451 	mov	r3, #1358954496	; 0x51000000
3005a0ac:	e2833008 	add	r3, r3, #8	; 0x8
3005a0b0:	e5933000 	ldr	r3, [r3]
3005a0b4:	e3c33b01 	bic	r3, r3, #1024	; 0x400
3005a0b8:	e5823000 	str	r3, [r2]
3005a0bc:	e5922000 	ldr	r2, [r2]
3005a0c0:	ea00002e 	b	3005a180 <TimerOutputIsRevert+0x1a0>
3005a0c4:	e55b3009 	ldrb	r3, [fp, #-9]
3005a0c8:	e3530000 	cmp	r3, #0	; 0x0
3005a0cc:	0a000008 	beq	3005a0f4 <TimerOutputIsRevert+0x114>
3005a0d0:	e3a02451 	mov	r2, #1358954496	; 0x51000000
3005a0d4:	e2822008 	add	r2, r2, #8	; 0x8
3005a0d8:	e3a03451 	mov	r3, #1358954496	; 0x51000000
3005a0dc:	e2833008 	add	r3, r3, #8	; 0x8
3005a0e0:	e5933000 	ldr	r3, [r3]
3005a0e4:	e3833901 	orr	r3, r3, #16384	; 0x4000
3005a0e8:	e5823000 	str	r3, [r2]
3005a0ec:	e5922000 	ldr	r2, [r2]
3005a0f0:	ea000022 	b	3005a180 <TimerOutputIsRevert+0x1a0>
3005a0f4:	e3a02451 	mov	r2, #1358954496	; 0x51000000
3005a0f8:	e2822008 	add	r2, r2, #8	; 0x8
3005a0fc:	e3a03451 	mov	r3, #1358954496	; 0x51000000
3005a100:	e2833008 	add	r3, r3, #8	; 0x8
3005a104:	e5933000 	ldr	r3, [r3]
3005a108:	e3c33901 	bic	r3, r3, #16384	; 0x4000
3005a10c:	e5823000 	str	r3, [r2]
3005a110:	e5922000 	ldr	r2, [r2]
3005a114:	ea000019 	b	3005a180 <TimerOutputIsRevert+0x1a0>
3005a118:	e55b3009 	ldrb	r3, [fp, #-9]
3005a11c:	e3530000 	cmp	r3, #0	; 0x0
3005a120:	0a000008 	beq	3005a148 <TimerOutputIsRevert+0x168>
3005a124:	e3a02451 	mov	r2, #1358954496	; 0x51000000
3005a128:	e2822008 	add	r2, r2, #8	; 0x8
3005a12c:	e3a03451 	mov	r3, #1358954496	; 0x51000000
3005a130:	e2833008 	add	r3, r3, #8	; 0x8
3005a134:	e5933000 	ldr	r3, [r3]
3005a138:	e3833701 	orr	r3, r3, #262144	; 0x40000
3005a13c:	e5823000 	str	r3, [r2]
3005a140:	e5922000 	ldr	r2, [r2]
3005a144:	ea00000d 	b	3005a180 <TimerOutputIsRevert+0x1a0>
3005a148:	e3a02451 	mov	r2, #1358954496	; 0x51000000
3005a14c:	e2822008 	add	r2, r2, #8	; 0x8
3005a150:	e3a03451 	mov	r3, #1358954496	; 0x51000000
3005a154:	e2833008 	add	r3, r3, #8	; 0x8
3005a158:	e5933000 	ldr	r3, [r3]
3005a15c:	e3c33701 	bic	r3, r3, #262144	; 0x40000
3005a160:	e5823000 	str	r3, [r2]
3005a164:	e5922000 	ldr	r2, [r2]
3005a168:	ea000004 	b	3005a180 <TimerOutputIsRevert+0x1a0>
3005a16c:	e59f0018 	ldr	r0, [pc, #24]	; 3005a18c <TimerOutputIsRevert+0x1ac>
3005a170:	ebffead3 	bl	30054cc4 <printf_string>
3005a174:	ea000001 	b	3005a180 <TimerOutputIsRevert+0x1a0>
3005a178:	e59f0010 	ldr	r0, [pc, #16]	; 3005a190 <TimerOutputIsRevert+0x1b0>
3005a17c:	ebffead0 	bl	30054cc4 <printf_string>
3005a180:	e24bd004 	sub	sp, fp, #4	; 0x4
3005a184:	e8bd4800 	pop	{fp, lr}
3005a188:	e12fff1e 	bx	lr
3005a18c:	3005ce14 	.word	0x3005ce14
3005a190:	3005cdf8 	.word	0x3005cdf8

3005a194 <TimerStartStop>:
3005a194:	e92d4800 	push	{fp, lr}
3005a198:	e28db004 	add	fp, sp, #4	; 0x4
3005a19c:	e24dd020 	sub	sp, sp, #32	; 0x20
3005a1a0:	e50b0008 	str	r0, [fp, #-8]
3005a1a4:	e1a03001 	mov	r3, r1
3005a1a8:	e54b3009 	strb	r3, [fp, #-9]
3005a1ac:	e51b3008 	ldr	r3, [fp, #-8]
3005a1b0:	e3530004 	cmp	r3, #4	; 0x4
3005a1b4:	979ff103 	ldrls	pc, [pc, r3, lsl #2]
3005a1b8:	ea00006d 	b	3005a374 <TimerStartStop+0x1e0>
3005a1bc:	3005a1d0 	.word	0x3005a1d0
3005a1c0:	3005a224 	.word	0x3005a224
3005a1c4:	3005a278 	.word	0x3005a278
3005a1c8:	3005a2cc 	.word	0x3005a2cc
3005a1cc:	3005a320 	.word	0x3005a320
3005a1d0:	e55b3009 	ldrb	r3, [fp, #-9]
3005a1d4:	e3530000 	cmp	r3, #0	; 0x0
3005a1d8:	0a000008 	beq	3005a200 <TimerStartStop+0x6c>
3005a1dc:	e3a02451 	mov	r2, #1358954496	; 0x51000000
3005a1e0:	e2822008 	add	r2, r2, #8	; 0x8
3005a1e4:	e3a03451 	mov	r3, #1358954496	; 0x51000000
3005a1e8:	e2833008 	add	r3, r3, #8	; 0x8
3005a1ec:	e5933000 	ldr	r3, [r3]
3005a1f0:	e3833001 	orr	r3, r3, #1	; 0x1
3005a1f4:	e5823000 	str	r3, [r2]
3005a1f8:	e5922000 	ldr	r2, [r2]
3005a1fc:	ea00005e 	b	3005a37c <TimerStartStop+0x1e8>
3005a200:	e3a02451 	mov	r2, #1358954496	; 0x51000000
3005a204:	e2822008 	add	r2, r2, #8	; 0x8
3005a208:	e3a03451 	mov	r3, #1358954496	; 0x51000000
3005a20c:	e2833008 	add	r3, r3, #8	; 0x8
3005a210:	e5933000 	ldr	r3, [r3]
3005a214:	e3c33001 	bic	r3, r3, #1	; 0x1
3005a218:	e5823000 	str	r3, [r2]
3005a21c:	e5922000 	ldr	r2, [r2]
3005a220:	ea000055 	b	3005a37c <TimerStartStop+0x1e8>
3005a224:	e55b3009 	ldrb	r3, [fp, #-9]
3005a228:	e3530000 	cmp	r3, #0	; 0x0
3005a22c:	0a000008 	beq	3005a254 <TimerStartStop+0xc0>
3005a230:	e3a02451 	mov	r2, #1358954496	; 0x51000000
3005a234:	e2822008 	add	r2, r2, #8	; 0x8
3005a238:	e3a03451 	mov	r3, #1358954496	; 0x51000000
3005a23c:	e2833008 	add	r3, r3, #8	; 0x8
3005a240:	e5933000 	ldr	r3, [r3]
3005a244:	e3833c01 	orr	r3, r3, #256	; 0x100
3005a248:	e5823000 	str	r3, [r2]
3005a24c:	e5922000 	ldr	r2, [r2]
3005a250:	ea000049 	b	3005a37c <TimerStartStop+0x1e8>
3005a254:	e3a02451 	mov	r2, #1358954496	; 0x51000000
3005a258:	e2822008 	add	r2, r2, #8	; 0x8
3005a25c:	e3a03451 	mov	r3, #1358954496	; 0x51000000
3005a260:	e2833008 	add	r3, r3, #8	; 0x8
3005a264:	e5933000 	ldr	r3, [r3]
3005a268:	e3c33c01 	bic	r3, r3, #256	; 0x100
3005a26c:	e5823000 	str	r3, [r2]
3005a270:	e5922000 	ldr	r2, [r2]
3005a274:	ea000040 	b	3005a37c <TimerStartStop+0x1e8>
3005a278:	e55b3009 	ldrb	r3, [fp, #-9]
3005a27c:	e3530000 	cmp	r3, #0	; 0x0
3005a280:	0a000008 	beq	3005a2a8 <TimerStartStop+0x114>
3005a284:	e3a02451 	mov	r2, #1358954496	; 0x51000000
3005a288:	e2822008 	add	r2, r2, #8	; 0x8
3005a28c:	e3a03451 	mov	r3, #1358954496	; 0x51000000
3005a290:	e2833008 	add	r3, r3, #8	; 0x8
3005a294:	e5933000 	ldr	r3, [r3]
3005a298:	e3833a01 	orr	r3, r3, #4096	; 0x1000
3005a29c:	e5823000 	str	r3, [r2]
3005a2a0:	e5922000 	ldr	r2, [r2]
3005a2a4:	ea000034 	b	3005a37c <TimerStartStop+0x1e8>
3005a2a8:	e3a02451 	mov	r2, #1358954496	; 0x51000000
3005a2ac:	e2822008 	add	r2, r2, #8	; 0x8
3005a2b0:	e3a03451 	mov	r3, #1358954496	; 0x51000000
3005a2b4:	e2833008 	add	r3, r3, #8	; 0x8
3005a2b8:	e5933000 	ldr	r3, [r3]
3005a2bc:	e3c33a01 	bic	r3, r3, #4096	; 0x1000
3005a2c0:	e5823000 	str	r3, [r2]
3005a2c4:	e5922000 	ldr	r2, [r2]
3005a2c8:	ea00002b 	b	3005a37c <TimerStartStop+0x1e8>
3005a2cc:	e55b3009 	ldrb	r3, [fp, #-9]
3005a2d0:	e3530000 	cmp	r3, #0	; 0x0
3005a2d4:	0a000008 	beq	3005a2fc <TimerStartStop+0x168>
3005a2d8:	e3a02451 	mov	r2, #1358954496	; 0x51000000
3005a2dc:	e2822008 	add	r2, r2, #8	; 0x8
3005a2e0:	e3a03451 	mov	r3, #1358954496	; 0x51000000
3005a2e4:	e2833008 	add	r3, r3, #8	; 0x8
3005a2e8:	e5933000 	ldr	r3, [r3]
3005a2ec:	e3833801 	orr	r3, r3, #65536	; 0x10000
3005a2f0:	e5823000 	str	r3, [r2]
3005a2f4:	e5922000 	ldr	r2, [r2]
3005a2f8:	ea00001f 	b	3005a37c <TimerStartStop+0x1e8>
3005a2fc:	e3a02451 	mov	r2, #1358954496	; 0x51000000
3005a300:	e2822008 	add	r2, r2, #8	; 0x8
3005a304:	e3a03451 	mov	r3, #1358954496	; 0x51000000
3005a308:	e2833008 	add	r3, r3, #8	; 0x8
3005a30c:	e5933000 	ldr	r3, [r3]
3005a310:	e3c33801 	bic	r3, r3, #65536	; 0x10000
3005a314:	e5823000 	str	r3, [r2]
3005a318:	e5922000 	ldr	r2, [r2]
3005a31c:	ea000016 	b	3005a37c <TimerStartStop+0x1e8>
3005a320:	e55b3009 	ldrb	r3, [fp, #-9]
3005a324:	e3530000 	cmp	r3, #0	; 0x0
3005a328:	0a000008 	beq	3005a350 <TimerStartStop+0x1bc>
3005a32c:	e3a02451 	mov	r2, #1358954496	; 0x51000000
3005a330:	e2822008 	add	r2, r2, #8	; 0x8
3005a334:	e3a03451 	mov	r3, #1358954496	; 0x51000000
3005a338:	e2833008 	add	r3, r3, #8	; 0x8
3005a33c:	e5933000 	ldr	r3, [r3]
3005a340:	e3833601 	orr	r3, r3, #1048576	; 0x100000
3005a344:	e5823000 	str	r3, [r2]
3005a348:	e5922000 	ldr	r2, [r2]
3005a34c:	ea00000a 	b	3005a37c <TimerStartStop+0x1e8>
3005a350:	e3a02451 	mov	r2, #1358954496	; 0x51000000
3005a354:	e2822008 	add	r2, r2, #8	; 0x8
3005a358:	e3a03451 	mov	r3, #1358954496	; 0x51000000
3005a35c:	e2833008 	add	r3, r3, #8	; 0x8
3005a360:	e5933000 	ldr	r3, [r3]
3005a364:	e3c33601 	bic	r3, r3, #1048576	; 0x100000
3005a368:	e5823000 	str	r3, [r2]
3005a36c:	e5922000 	ldr	r2, [r2]
3005a370:	ea000001 	b	3005a37c <TimerStartStop+0x1e8>
3005a374:	e59f000c 	ldr	r0, [pc, #12]	; 3005a388 <TimerStartStop+0x1f4>
3005a378:	ebffea51 	bl	30054cc4 <printf_string>
3005a37c:	e24bd004 	sub	sp, fp, #4	; 0x4
3005a380:	e8bd4800 	pop	{fp, lr}
3005a384:	e12fff1e 	bx	lr
3005a388:	3005cdf8 	.word	0x3005cdf8

3005a38c <DelaySeconds>:
3005a38c:	e92d4800 	push	{fp, lr}
3005a390:	e28db004 	add	fp, sp, #4	; 0x4
3005a394:	e24dd008 	sub	sp, sp, #8	; 0x8
3005a398:	e50b0008 	str	r0, [fp, #-8]
3005a39c:	e50b100c 	str	r1, [fp, #-12]
3005a3a0:	e59f207c 	ldr	r2, [pc, #124]	; 3005a424 <DelaySeconds+0x98>
3005a3a4:	e3a03000 	mov	r3, #0	; 0x0
3005a3a8:	e5823000 	str	r3, [r2]
3005a3ac:	e59f2074 	ldr	r2, [pc, #116]	; 3005a428 <DelaySeconds+0x9c>
3005a3b0:	e51b300c 	ldr	r3, [fp, #-12]
3005a3b4:	e5823000 	str	r3, [r2]
3005a3b8:	e59f206c 	ldr	r2, [pc, #108]	; 3005a42c <DelaySeconds+0xa0>
3005a3bc:	e3a03000 	mov	r3, #0	; 0x0
3005a3c0:	e5823000 	str	r3, [r2]
3005a3c4:	e3a00001 	mov	r0, #1	; 0x1
3005a3c8:	e3a01031 	mov	r1, #49	; 0x31
3005a3cc:	ebfffd7d 	bl	300599c8 <PrescalerSet>
3005a3d0:	e3a00004 	mov	r0, #4	; 0x4
3005a3d4:	e3a01003 	mov	r1, #3	; 0x3
3005a3d8:	ebfffda7 	bl	30059a7c <DividerSet>
3005a3dc:	e3a00004 	mov	r0, #4	; 0x4
3005a3e0:	e3a01000 	mov	r1, #0	; 0x0
3005a3e4:	e3a02b3d 	mov	r2, #62464	; 0xf400
3005a3e8:	e2822024 	add	r2, r2, #36	; 0x24
3005a3ec:	ebfffdf1 	bl	30059bb8 <TimerSetOriginalVal>
3005a3f0:	e3a00004 	mov	r0, #4	; 0x4
3005a3f4:	e3a01001 	mov	r1, #1	; 0x1
3005a3f8:	ebfffe7a 	bl	30059de8 <TimerIsReloadSet>
3005a3fc:	e3a00004 	mov	r0, #4	; 0x4
3005a400:	e3a01001 	mov	r1, #1	; 0x1
3005a404:	ebffff62 	bl	3005a194 <TimerStartStop>
3005a408:	e3a0000e 	mov	r0, #14	; 0xe
3005a40c:	ebffe4bb 	bl	30053700 <ClearPending>
3005a410:	e3a0000e 	mov	r0, #14	; 0xe
3005a414:	ebffe496 	bl	30053674 <EnableIrq>
3005a418:	e24bd004 	sub	sp, fp, #4	; 0x4
3005a41c:	e8bd4800 	pop	{fp, lr}
3005a420:	e12fff1e 	bx	lr
3005a424:	30064658 	.word	0x30064658
3005a428:	3006465c 	.word	0x3006465c
3005a42c:	30064660 	.word	0x30064660

3005a430 <DelayMs>:
3005a430:	e92d4800 	push	{fp, lr}
3005a434:	e28db004 	add	fp, sp, #4	; 0x4
3005a438:	e24dd008 	sub	sp, sp, #8	; 0x8
3005a43c:	e50b0008 	str	r0, [fp, #-8]
3005a440:	e50b100c 	str	r1, [fp, #-12]
3005a444:	e59f2078 	ldr	r2, [pc, #120]	; 3005a4c4 <DelayMs+0x94>
3005a448:	e3a03000 	mov	r3, #0	; 0x0
3005a44c:	e5823000 	str	r3, [r2]
3005a450:	e59f2070 	ldr	r2, [pc, #112]	; 3005a4c8 <DelayMs+0x98>
3005a454:	e51b300c 	ldr	r3, [fp, #-12]
3005a458:	e5823000 	str	r3, [r2]
3005a45c:	e59f2068 	ldr	r2, [pc, #104]	; 3005a4cc <DelayMs+0x9c>
3005a460:	e3a03000 	mov	r3, #0	; 0x0
3005a464:	e5823000 	str	r3, [r2]
3005a468:	e3a00001 	mov	r0, #1	; 0x1
3005a46c:	e3a01031 	mov	r1, #49	; 0x31
3005a470:	ebfffd54 	bl	300599c8 <PrescalerSet>
3005a474:	e3a00004 	mov	r0, #4	; 0x4
3005a478:	e3a01003 	mov	r1, #3	; 0x3
3005a47c:	ebfffd7e 	bl	30059a7c <DividerSet>
3005a480:	e3a00004 	mov	r0, #4	; 0x4
3005a484:	e3a01000 	mov	r1, #0	; 0x0
3005a488:	e3a0203f 	mov	r2, #63	; 0x3f
3005a48c:	ebfffdc9 	bl	30059bb8 <TimerSetOriginalVal>
3005a490:	e3a00004 	mov	r0, #4	; 0x4
3005a494:	e3a01001 	mov	r1, #1	; 0x1
3005a498:	ebfffe52 	bl	30059de8 <TimerIsReloadSet>
3005a49c:	e3a00004 	mov	r0, #4	; 0x4
3005a4a0:	e3a01001 	mov	r1, #1	; 0x1
3005a4a4:	ebffff3a 	bl	3005a194 <TimerStartStop>
3005a4a8:	e3a0000e 	mov	r0, #14	; 0xe
3005a4ac:	ebffe493 	bl	30053700 <ClearPending>
3005a4b0:	e3a0000e 	mov	r0, #14	; 0xe
3005a4b4:	ebffe46e 	bl	30053674 <EnableIrq>
3005a4b8:	e24bd004 	sub	sp, fp, #4	; 0x4
3005a4bc:	e8bd4800 	pop	{fp, lr}
3005a4c0:	e12fff1e 	bx	lr
3005a4c4:	30064658 	.word	0x30064658
3005a4c8:	3006465c 	.word	0x3006465c
3005a4cc:	30064660 	.word	0x30064660

3005a4d0 <isTimeOut>:
3005a4d0:	e52db004 	push	{fp}		; (str fp, [sp, #-4]!)
3005a4d4:	e28db000 	add	fp, sp, #0	; 0x0
3005a4d8:	e24dd014 	sub	sp, sp, #20	; 0x14
3005a4dc:	e50b0010 	str	r0, [fp, #-16]
3005a4e0:	e3a03000 	mov	r3, #0	; 0x0
3005a4e4:	e50b3008 	str	r3, [fp, #-8]
3005a4e8:	e59f3030 	ldr	r3, [pc, #48]	; 3005a520 <isTimeOut+0x50>
3005a4ec:	e5933000 	ldr	r3, [r3]
3005a4f0:	e3530000 	cmp	r3, #0	; 0x0
3005a4f4:	0a000002 	beq	3005a504 <isTimeOut+0x34>
3005a4f8:	e3a03001 	mov	r3, #1	; 0x1
3005a4fc:	e50b3008 	str	r3, [fp, #-8]
3005a500:	ea000001 	b	3005a50c <isTimeOut+0x3c>
3005a504:	e3a03000 	mov	r3, #0	; 0x0
3005a508:	e50b3008 	str	r3, [fp, #-8]
3005a50c:	e51b3008 	ldr	r3, [fp, #-8]
3005a510:	e1a00003 	mov	r0, r3
3005a514:	e28bd000 	add	sp, fp, #0	; 0x0
3005a518:	e8bd0800 	pop	{fp}
3005a51c:	e12fff1e 	bx	lr
3005a520:	30064660 	.word	0x30064660

3005a524 <Timer0Interrupt>:
3005a524:	e92d4800 	push	{fp, lr}
3005a528:	e28db004 	add	fp, sp, #4	; 0x4
3005a52c:	e3a0000a 	mov	r0, #10	; 0xa
3005a530:	ebffe472 	bl	30053700 <ClearPending>
3005a534:	e59f3040 	ldr	r3, [pc, #64]	; 3005a57c <Timer0Interrupt+0x58>
3005a538:	e5933000 	ldr	r3, [r3]
3005a53c:	e2033001 	and	r3, r3, #1	; 0x1
3005a540:	e3530000 	cmp	r3, #0	; 0x0
3005a544:	1a000002 	bne	3005a554 <Timer0Interrupt+0x30>
3005a548:	e3a00000 	mov	r0, #0	; 0x0
3005a54c:	ebffe506 	bl	3005396c <light_led>
3005a550:	ea000001 	b	3005a55c <Timer0Interrupt+0x38>
3005a554:	e3a00000 	mov	r0, #0	; 0x0
3005a558:	ebffe536 	bl	30053a38 <put_out_led>
3005a55c:	e59f3018 	ldr	r3, [pc, #24]	; 3005a57c <Timer0Interrupt+0x58>
3005a560:	e5933000 	ldr	r3, [r3]
3005a564:	e2832001 	add	r2, r3, #1	; 0x1
3005a568:	e59f300c 	ldr	r3, [pc, #12]	; 3005a57c <Timer0Interrupt+0x58>
3005a56c:	e5832000 	str	r2, [r3]
3005a570:	e24bd004 	sub	sp, fp, #4	; 0x4
3005a574:	e8bd4800 	pop	{fp, lr}
3005a578:	e12fff1e 	bx	lr
3005a57c:	30064628 	.word	0x30064628

3005a580 <Timer1Interrupt>:
3005a580:	e52db004 	push	{fp}		; (str fp, [sp, #-4]!)
3005a584:	e28db000 	add	fp, sp, #0	; 0x0
3005a588:	e28bd000 	add	sp, fp, #0	; 0x0
3005a58c:	e8bd0800 	pop	{fp}
3005a590:	e12fff1e 	bx	lr

3005a594 <Timer2Interrupt>:
3005a594:	e52db004 	push	{fp}		; (str fp, [sp, #-4]!)
3005a598:	e28db000 	add	fp, sp, #0	; 0x0
3005a59c:	e28bd000 	add	sp, fp, #0	; 0x0
3005a5a0:	e8bd0800 	pop	{fp}
3005a5a4:	e12fff1e 	bx	lr

3005a5a8 <Timer3Interrupt>:
3005a5a8:	e52db004 	push	{fp}		; (str fp, [sp, #-4]!)
3005a5ac:	e28db000 	add	fp, sp, #0	; 0x0
3005a5b0:	e28bd000 	add	sp, fp, #0	; 0x0
3005a5b4:	e8bd0800 	pop	{fp}
3005a5b8:	e12fff1e 	bx	lr

3005a5bc <Timer4Interrupt>:
3005a5bc:	e92d4800 	push	{fp, lr}
3005a5c0:	e28db004 	add	fp, sp, #4	; 0x4
3005a5c4:	e3a0000e 	mov	r0, #14	; 0xe
3005a5c8:	ebffe44c 	bl	30053700 <ClearPending>
3005a5cc:	e59f3098 	ldr	r3, [pc, #152]	; 3005a66c <Timer4Interrupt+0xb0>
3005a5d0:	e5933000 	ldr	r3, [r3]
3005a5d4:	e2033001 	and	r3, r3, #1	; 0x1
3005a5d8:	e3530000 	cmp	r3, #0	; 0x0
3005a5dc:	1a000002 	bne	3005a5ec <Timer4Interrupt+0x30>
3005a5e0:	e3a00000 	mov	r0, #0	; 0x0
3005a5e4:	ebffe4e0 	bl	3005396c <light_led>
3005a5e8:	ea000001 	b	3005a5f4 <Timer4Interrupt+0x38>
3005a5ec:	e3a00000 	mov	r0, #0	; 0x0
3005a5f0:	ebffe510 	bl	30053a38 <put_out_led>
3005a5f4:	e59f3070 	ldr	r3, [pc, #112]	; 3005a66c <Timer4Interrupt+0xb0>
3005a5f8:	e5932000 	ldr	r2, [r3]
3005a5fc:	e59f306c 	ldr	r3, [pc, #108]	; 3005a670 <Timer4Interrupt+0xb4>
3005a600:	e5933000 	ldr	r3, [r3]
3005a604:	e1520003 	cmp	r2, r3
3005a608:	ba00000c 	blt	3005a640 <Timer4Interrupt+0x84>
3005a60c:	e3a00004 	mov	r0, #4	; 0x4
3005a610:	e3a01000 	mov	r1, #0	; 0x0
3005a614:	ebfffede 	bl	3005a194 <TimerStartStop>
3005a618:	e59f2054 	ldr	r2, [pc, #84]	; 3005a674 <Timer4Interrupt+0xb8>
3005a61c:	e3a03001 	mov	r3, #1	; 0x1
3005a620:	e5823000 	str	r3, [r2]
3005a624:	e59f2044 	ldr	r2, [pc, #68]	; 3005a670 <Timer4Interrupt+0xb4>
3005a628:	e3a03000 	mov	r3, #0	; 0x0
3005a62c:	e5823000 	str	r3, [r2]
3005a630:	e59f2034 	ldr	r2, [pc, #52]	; 3005a66c <Timer4Interrupt+0xb0>
3005a634:	e3a03000 	mov	r3, #0	; 0x0
3005a638:	e5823000 	str	r3, [r2]
3005a63c:	ea000007 	b	3005a660 <Timer4Interrupt+0xa4>
3005a640:	e59f202c 	ldr	r2, [pc, #44]	; 3005a674 <Timer4Interrupt+0xb8>
3005a644:	e3a03000 	mov	r3, #0	; 0x0
3005a648:	e5823000 	str	r3, [r2]
3005a64c:	e59f3018 	ldr	r3, [pc, #24]	; 3005a66c <Timer4Interrupt+0xb0>
3005a650:	e5933000 	ldr	r3, [r3]
3005a654:	e2832001 	add	r2, r3, #1	; 0x1
3005a658:	e59f300c 	ldr	r3, [pc, #12]	; 3005a66c <Timer4Interrupt+0xb0>
3005a65c:	e5832000 	str	r2, [r3]
3005a660:	e24bd004 	sub	sp, fp, #4	; 0x4
3005a664:	e8bd4800 	pop	{fp, lr}
3005a668:	e12fff1e 	bx	lr
3005a66c:	30064658 	.word	0x30064658
3005a670:	3006465c 	.word	0x3006465c
3005a674:	30064660 	.word	0x30064660

3005a678 <TimerTest>:
3005a678:	e92d4800 	push	{fp, lr}
3005a67c:	e28db004 	add	fp, sp, #4	; 0x4
3005a680:	e24dd010 	sub	sp, sp, #16	; 0x10
3005a684:	e50b0010 	str	r0, [fp, #-16]
3005a688:	e50b1014 	str	r1, [fp, #-20]
3005a68c:	e3a03014 	mov	r3, #20	; 0x14
3005a690:	e50b300c 	str	r3, [fp, #-12]
3005a694:	e3a03000 	mov	r3, #0	; 0x0
3005a698:	e50b3008 	str	r3, [fp, #-8]
3005a69c:	e3a00004 	mov	r0, #4	; 0x4
3005a6a0:	e3a0100a 	mov	r1, #10	; 0xa
3005a6a4:	ebffff38 	bl	3005a38c <DelaySeconds>
3005a6a8:	ea000003 	b	3005a6bc <TimerTest+0x44>
3005a6ac:	e3a00ffa 	mov	r0, #1000	; 0x3e8
3005a6b0:	ebffda13 	bl	30050f04 <delay>
3005a6b4:	e59f00a4 	ldr	r0, [pc, #164]	; 3005a760 <TimerTest+0xe8>
3005a6b8:	ebffe981 	bl	30054cc4 <printf_string>
3005a6bc:	e3a00004 	mov	r0, #4	; 0x4
3005a6c0:	ebffff82 	bl	3005a4d0 <isTimeOut>
3005a6c4:	e1a03000 	mov	r3, r0
3005a6c8:	e3530000 	cmp	r3, #0	; 0x0
3005a6cc:	0afffff6 	beq	3005a6ac <TimerTest+0x34>
3005a6d0:	e3a00004 	mov	r0, #4	; 0x4
3005a6d4:	e3a01000 	mov	r1, #0	; 0x0
3005a6d8:	ebfffead 	bl	3005a194 <TimerStartStop>
3005a6dc:	e3a00004 	mov	r0, #4	; 0x4
3005a6e0:	e3a01d4e 	mov	r1, #4992	; 0x1380
3005a6e4:	e2811008 	add	r1, r1, #8	; 0x8
3005a6e8:	ebffff50 	bl	3005a430 <DelayMs>
3005a6ec:	ea00000e 	b	3005a72c <TimerTest+0xb4>
3005a6f0:	e59f306c 	ldr	r3, [pc, #108]	; 3005a764 <TimerTest+0xec>
3005a6f4:	e5933000 	ldr	r3, [r3]
3005a6f8:	e59f0068 	ldr	r0, [pc, #104]	; 3005a768 <TimerTest+0xf0>
3005a6fc:	e1a01003 	mov	r1, r3
3005a700:	ebffe96f 	bl	30054cc4 <printf_string>
3005a704:	e59f3060 	ldr	r3, [pc, #96]	; 3005a76c <TimerTest+0xf4>
3005a708:	e5933000 	ldr	r3, [r3]
3005a70c:	e59f005c 	ldr	r0, [pc, #92]	; 3005a770 <TimerTest+0xf8>
3005a710:	e1a01003 	mov	r1, r3
3005a714:	ebffe96a 	bl	30054cc4 <printf_string>
3005a718:	e59f3054 	ldr	r3, [pc, #84]	; 3005a774 <TimerTest+0xfc>
3005a71c:	e5933000 	ldr	r3, [r3]
3005a720:	e59f0050 	ldr	r0, [pc, #80]	; 3005a778 <TimerTest+0x100>
3005a724:	e1a01003 	mov	r1, r3
3005a728:	ebffe965 	bl	30054cc4 <printf_string>
3005a72c:	e3a00004 	mov	r0, #4	; 0x4
3005a730:	ebffff66 	bl	3005a4d0 <isTimeOut>
3005a734:	e1a03000 	mov	r3, r0
3005a738:	e3530000 	cmp	r3, #0	; 0x0
3005a73c:	0affffeb 	beq	3005a6f0 <TimerTest+0x78>
3005a740:	e3a00004 	mov	r0, #4	; 0x4
3005a744:	e3a01000 	mov	r1, #0	; 0x0
3005a748:	ebfffe91 	bl	3005a194 <TimerStartStop>
3005a74c:	e51b3008 	ldr	r3, [fp, #-8]
3005a750:	e1a00003 	mov	r0, r3
3005a754:	e24bd004 	sub	sp, fp, #4	; 0x4
3005a758:	e8bd4800 	pop	{fp, lr}
3005a75c:	e12fff1e 	bx	lr
3005a760:	3005ce28 	.word	0x3005ce28
3005a764:	30064658 	.word	0x30064658
3005a768:	3005ce50 	.word	0x3005ce50
3005a76c:	3006465c 	.word	0x3006465c
3005a770:	3005ce68 	.word	0x3005ce68
3005a774:	30064660 	.word	0x30064660
3005a778:	3005ce7c 	.word	0x3005ce7c

3005a77c <TestLinkList>:
	int command;
} COMMAND_LIST_NODE;


void TestLinkList()
{
3005a77c:	e92d4810 	push	{r4, fp, lr}
3005a780:	e28db008 	add	fp, sp, #8	; 0x8
3005a784:	e24dd014 	sub	sp, sp, #20	; 0x14
	void* commandLink = LinkList_Create();
3005a788:	ebffe13e 	bl	30052c88 <LinkList_Create>
3005a78c:	e1a03000 	mov	r3, r0
3005a790:	e50b3014 	str	r3, [fp, #-20]
	
	COMMAND_LIST_NODE note1;
	note1.command = 23;
3005a794:	e3a03017 	mov	r3, #23	; 0x17
3005a798:	e50b3018 	str	r3, [fp, #-24]
	
	
	COMMAND_LIST_NODE *noteGet1 = NULL;
3005a79c:	e3a03000 	mov	r3, #0	; 0x0
3005a7a0:	e50b3010 	str	r3, [fp, #-16]
	

	LinkList_Insert(commandLink, (LinkListNode*)&note1, LinkList_Length(commandLink));
3005a7a4:	e24b401c 	sub	r4, fp, #28	; 0x1c
3005a7a8:	e51b0014 	ldr	r0, [fp, #-20]
3005a7ac:	ebffe165 	bl	30052d48 <LinkList_Length>
3005a7b0:	e1a03000 	mov	r3, r0
3005a7b4:	e51b0014 	ldr	r0, [fp, #-20]
3005a7b8:	e1a01004 	mov	r1, r4
3005a7bc:	e1a02003 	mov	r2, r3
3005a7c0:	ebffe173 	bl	30052d94 <LinkList_Insert>

	noteGet1 = (COMMAND_LIST_NODE*)LinkList_Get(commandLink, 0);
3005a7c4:	e51b0014 	ldr	r0, [fp, #-20]
3005a7c8:	e3a01000 	mov	r1, #0	; 0x0
3005a7cc:	ebffe1b1 	bl	30052e98 <LinkList_Get>
3005a7d0:	e1a03000 	mov	r3, r0
3005a7d4:	e50b3010 	str	r3, [fp, #-16]
	
	printf_string("noteGet1->command = %x\n\n", noteGet1->command);
3005a7d8:	e51b3010 	ldr	r3, [fp, #-16]
3005a7dc:	e5933004 	ldr	r3, [r3, #4]
3005a7e0:	e59f0020 	ldr	r0, [pc, #32]	; 3005a808 <TestLinkList+0x8c>
3005a7e4:	e1a01003 	mov	r1, r3
3005a7e8:	ebffe935 	bl	30054cc4 <printf_string>
	
	LinkList_Clear(commandLink);
3005a7ec:	e51b0014 	ldr	r0, [fp, #-20]
3005a7f0:	ebffe142 	bl	30052d00 <LinkList_Clear>
	LinkList_Destroy(commandLink);
3005a7f4:	e51b0014 	ldr	r0, [fp, #-20]
3005a7f8:	ebffe137 	bl	30052cdc <LinkList_Destroy>
}
3005a7fc:	e24bd008 	sub	sp, fp, #8	; 0x8
3005a800:	e8bd4810 	pop	{r4, fp, lr}
3005a804:	e12fff1e 	bx	lr
3005a808:	3005ce94 	.word	0x3005ce94

3005a80c <arp_request>:
3005a80c:	e92d4800 	push	{fp, lr}
3005a810:	e28db004 	add	fp, sp, #4	; 0x4
3005a814:	e24dd040 	sub	sp, sp, #64	; 0x40
3005a818:	e59f3164 	ldr	r3, [pc, #356]	; 3005a984 <arp_request+0x178>
3005a81c:	e24b2034 	sub	r2, fp, #52	; 0x34
3005a820:	e3a0c004 	mov	ip, #4	; 0x4
3005a824:	e1a00002 	mov	r0, r2
3005a828:	e1a01003 	mov	r1, r3
3005a82c:	e1a0200c 	mov	r2, ip
3005a830:	ebffda87 	bl	30051254 <memcpy>
3005a834:	e59f314c 	ldr	r3, [pc, #332]	; 3005a988 <arp_request+0x17c>
3005a838:	e24b2038 	sub	r2, fp, #56	; 0x38
3005a83c:	e3a0c004 	mov	ip, #4	; 0x4
3005a840:	e1a00002 	mov	r0, r2
3005a844:	e1a01003 	mov	r1, r3
3005a848:	e1a0200c 	mov	r2, ip
3005a84c:	ebffda80 	bl	30051254 <memcpy>
3005a850:	e59f3134 	ldr	r3, [pc, #308]	; 3005a98c <arp_request+0x180>
3005a854:	e24b203e 	sub	r2, fp, #62	; 0x3e
3005a858:	e3a0c006 	mov	ip, #6	; 0x6
3005a85c:	e1a00002 	mov	r0, r2
3005a860:	e1a01003 	mov	r1, r3
3005a864:	e1a0200c 	mov	r2, ip
3005a868:	ebffda79 	bl	30051254 <memcpy>
3005a86c:	e3a03000 	mov	r3, #0	; 0x0
3005a870:	e54b3005 	strb	r3, [fp, #-5]
3005a874:	e59f3114 	ldr	r3, [pc, #276]	; 3005a990 <arp_request+0x184>
3005a878:	e24b2044 	sub	r2, fp, #68	; 0x44
3005a87c:	e3a0c006 	mov	ip, #6	; 0x6
3005a880:	e1a00002 	mov	r0, r2
3005a884:	e1a01003 	mov	r1, r3
3005a888:	e1a0200c 	mov	r2, ip
3005a88c:	ebffda70 	bl	30051254 <memcpy>
3005a890:	e24b3030 	sub	r3, fp, #48	; 0x30
3005a894:	e24b203e 	sub	r2, fp, #62	; 0x3e
3005a898:	e1a00003 	mov	r0, r3
3005a89c:	e1a01002 	mov	r1, r2
3005a8a0:	e3a02006 	mov	r2, #6	; 0x6
3005a8a4:	ebffda6a 	bl	30051254 <memcpy>
3005a8a8:	e24b3030 	sub	r3, fp, #48	; 0x30
3005a8ac:	e2833006 	add	r3, r3, #6	; 0x6
3005a8b0:	e24b2044 	sub	r2, fp, #68	; 0x44
3005a8b4:	e1a00003 	mov	r0, r3
3005a8b8:	e1a01002 	mov	r1, r2
3005a8bc:	e3a02006 	mov	r2, #6	; 0x6
3005a8c0:	ebffda63 	bl	30051254 <memcpy>
3005a8c4:	e3a03c06 	mov	r3, #1536	; 0x600
3005a8c8:	e2833008 	add	r3, r3, #8	; 0x8
3005a8cc:	e14b32b4 	strh	r3, [fp, #-36]
3005a8d0:	e3a03c01 	mov	r3, #256	; 0x100
3005a8d4:	e14b32b2 	strh	r3, [fp, #-34]
3005a8d8:	e3a03008 	mov	r3, #8	; 0x8
3005a8dc:	e14b32b0 	strh	r3, [fp, #-32]
3005a8e0:	e3a03006 	mov	r3, #6	; 0x6
3005a8e4:	e54b301e 	strb	r3, [fp, #-30]
3005a8e8:	e3a03004 	mov	r3, #4	; 0x4
3005a8ec:	e54b301d 	strb	r3, [fp, #-29]
3005a8f0:	e3a03c01 	mov	r3, #256	; 0x100
3005a8f4:	e14b31bc 	strh	r3, [fp, #-28]
3005a8f8:	e24b3030 	sub	r3, fp, #48	; 0x30
3005a8fc:	e2833016 	add	r3, r3, #22	; 0x16
3005a900:	e24b2044 	sub	r2, fp, #68	; 0x44
3005a904:	e1a00003 	mov	r0, r3
3005a908:	e1a01002 	mov	r1, r2
3005a90c:	e3a02006 	mov	r2, #6	; 0x6
3005a910:	ebffda4f 	bl	30051254 <memcpy>
3005a914:	e24b3030 	sub	r3, fp, #48	; 0x30
3005a918:	e283301c 	add	r3, r3, #28	; 0x1c
3005a91c:	e24b2038 	sub	r2, fp, #56	; 0x38
3005a920:	e1a00003 	mov	r0, r3
3005a924:	e1a01002 	mov	r1, r2
3005a928:	e3a02004 	mov	r2, #4	; 0x4
3005a92c:	ebffda48 	bl	30051254 <memcpy>
3005a930:	e24b3030 	sub	r3, fp, #48	; 0x30
3005a934:	e2833020 	add	r3, r3, #32	; 0x20
3005a938:	e24b203e 	sub	r2, fp, #62	; 0x3e
3005a93c:	e1a00003 	mov	r0, r3
3005a940:	e1a01002 	mov	r1, r2
3005a944:	e3a02006 	mov	r2, #6	; 0x6
3005a948:	ebffda41 	bl	30051254 <memcpy>
3005a94c:	e24b3030 	sub	r3, fp, #48	; 0x30
3005a950:	e2833026 	add	r3, r3, #38	; 0x26
3005a954:	e24b2034 	sub	r2, fp, #52	; 0x34
3005a958:	e1a00003 	mov	r0, r3
3005a95c:	e1a01002 	mov	r1, r2
3005a960:	e3a02004 	mov	r2, #4	; 0x4
3005a964:	ebffda3a 	bl	30051254 <memcpy>
3005a968:	e24b3030 	sub	r3, fp, #48	; 0x30
3005a96c:	e1a00003 	mov	r0, r3
3005a970:	e3a0102a 	mov	r1, #42	; 0x2a
3005a974:	ebfff7af 	bl	30058838 <dm9000_send>
3005a978:	e24bd004 	sub	sp, fp, #4	; 0x4
3005a97c:	e8bd4800 	pop	{fp, lr}
3005a980:	e12fff1e 	bx	lr
3005a984:	3005cec0 	.word	0x3005cec0
3005a988:	3005cebc 	.word	0x3005cebc
3005a98c:	3005ceb6 	.word	0x3005ceb6
3005a990:	3005ceb0 	.word	0x3005ceb0

3005a994 <arp_process>:
3005a994:	e92d4800 	push	{fp, lr}
3005a998:	e28db004 	add	fp, sp, #4	; 0x4
3005a99c:	e24dd060 	sub	sp, sp, #96	; 0x60
3005a9a0:	e50b0058 	str	r0, [fp, #-88]
3005a9a4:	e50b105c 	str	r1, [fp, #-92]
3005a9a8:	e3a03000 	mov	r3, #0	; 0x0
3005a9ac:	e50b3010 	str	r3, [fp, #-16]
3005a9b0:	e3a03000 	mov	r3, #0	; 0x0
3005a9b4:	e50b300c 	str	r3, [fp, #-12]
3005a9b8:	e51b3058 	ldr	r3, [fp, #-88]
3005a9bc:	e50b3008 	str	r3, [fp, #-8]
3005a9c0:	e59f3264 	ldr	r3, [pc, #612]	; 3005ac2c <arp_process+0x298>
3005a9c4:	e24b2016 	sub	r2, fp, #22	; 0x16
3005a9c8:	e3a0c006 	mov	ip, #6	; 0x6
3005a9cc:	e1a00002 	mov	r0, r2
3005a9d0:	e1a01003 	mov	r1, r3
3005a9d4:	e1a0200c 	mov	r2, ip
3005a9d8:	ebffda1d 	bl	30051254 <memcpy>
3005a9dc:	e59f324c 	ldr	r3, [pc, #588]	; 3005ac30 <arp_process+0x29c>
3005a9e0:	e24b201a 	sub	r2, fp, #26	; 0x1a
3005a9e4:	e3a0c004 	mov	ip, #4	; 0x4
3005a9e8:	e1a00002 	mov	r0, r2
3005a9ec:	e1a01003 	mov	r1, r3
3005a9f0:	e1a0200c 	mov	r2, ip
3005a9f4:	ebffda16 	bl	30051254 <memcpy>
3005a9f8:	e51b3008 	ldr	r3, [fp, #-8]
3005a9fc:	e1d331b4 	ldrh	r3, [r3, #20]
3005aa00:	e1a03403 	lsl	r3, r3, #8
3005aa04:	e1a02803 	lsl	r2, r3, #16
3005aa08:	e1a02822 	lsr	r2, r2, #16
3005aa0c:	e51b3008 	ldr	r3, [fp, #-8]
3005aa10:	e1d331b4 	ldrh	r3, [r3, #20]
3005aa14:	e1a03423 	lsr	r3, r3, #8
3005aa18:	e1a03803 	lsl	r3, r3, #16
3005aa1c:	e1a03823 	lsr	r3, r3, #16
3005aa20:	e1822003 	orr	r2, r2, r3
3005aa24:	e50b2060 	str	r2, [fp, #-96]
3005aa28:	e51b1060 	ldr	r1, [fp, #-96]
3005aa2c:	e3510001 	cmp	r1, #1	; 0x1
3005aa30:	0a000003 	beq	3005aa44 <arp_process+0xb0>
3005aa34:	e51b3060 	ldr	r3, [fp, #-96]
3005aa38:	e3530002 	cmp	r3, #2	; 0x2
3005aa3c:	0a00003f 	beq	3005ab40 <arp_process+0x1ac>
3005aa40:	ea000076 	b	3005ac20 <arp_process+0x28c>
3005aa44:	e51b3008 	ldr	r3, [fp, #-8]
3005aa48:	e2832016 	add	r2, r3, #22	; 0x16
3005aa4c:	e24b3044 	sub	r3, fp, #68	; 0x44
3005aa50:	e1a00003 	mov	r0, r3
3005aa54:	e1a01002 	mov	r1, r2
3005aa58:	e3a02006 	mov	r2, #6	; 0x6
3005aa5c:	ebffd9fc 	bl	30051254 <memcpy>
3005aa60:	e51b3008 	ldr	r3, [fp, #-8]
3005aa64:	e2832020 	add	r2, r3, #32	; 0x20
3005aa68:	e24b3044 	sub	r3, fp, #68	; 0x44
3005aa6c:	e2833006 	add	r3, r3, #6	; 0x6
3005aa70:	e1a00003 	mov	r0, r3
3005aa74:	e1a01002 	mov	r1, r2
3005aa78:	e3a02006 	mov	r2, #6	; 0x6
3005aa7c:	ebffd9f4 	bl	30051254 <memcpy>
3005aa80:	e3a03c06 	mov	r3, #1536	; 0x600
3005aa84:	e2833008 	add	r3, r3, #8	; 0x8
3005aa88:	e14b33b8 	strh	r3, [fp, #-56]
3005aa8c:	e3a03c01 	mov	r3, #256	; 0x100
3005aa90:	e14b33b6 	strh	r3, [fp, #-54]
3005aa94:	e3a03008 	mov	r3, #8	; 0x8
3005aa98:	e14b33b4 	strh	r3, [fp, #-52]
3005aa9c:	e3a03006 	mov	r3, #6	; 0x6
3005aaa0:	e54b3032 	strb	r3, [fp, #-50]
3005aaa4:	e3a03004 	mov	r3, #4	; 0x4
3005aaa8:	e54b3031 	strb	r3, [fp, #-49]
3005aaac:	e3a03c02 	mov	r3, #512	; 0x200
3005aab0:	e14b33b0 	strh	r3, [fp, #-48]
3005aab4:	e24b3044 	sub	r3, fp, #68	; 0x44
3005aab8:	e2833016 	add	r3, r3, #22	; 0x16
3005aabc:	e24b2016 	sub	r2, fp, #22	; 0x16
3005aac0:	e1a00003 	mov	r0, r3
3005aac4:	e1a01002 	mov	r1, r2
3005aac8:	e3a02006 	mov	r2, #6	; 0x6
3005aacc:	ebffd9e0 	bl	30051254 <memcpy>
3005aad0:	e24b3044 	sub	r3, fp, #68	; 0x44
3005aad4:	e283301c 	add	r3, r3, #28	; 0x1c
3005aad8:	e24b201a 	sub	r2, fp, #26	; 0x1a
3005aadc:	e1a00003 	mov	r0, r3
3005aae0:	e1a01002 	mov	r1, r2
3005aae4:	e3a02004 	mov	r2, #4	; 0x4
3005aae8:	ebffd9d9 	bl	30051254 <memcpy>
3005aaec:	e51b3008 	ldr	r3, [fp, #-8]
3005aaf0:	e2832016 	add	r2, r3, #22	; 0x16
3005aaf4:	e24b3044 	sub	r3, fp, #68	; 0x44
3005aaf8:	e2833020 	add	r3, r3, #32	; 0x20
3005aafc:	e1a00003 	mov	r0, r3
3005ab00:	e1a01002 	mov	r1, r2
3005ab04:	e3a02006 	mov	r2, #6	; 0x6
3005ab08:	ebffd9d1 	bl	30051254 <memcpy>
3005ab0c:	e51b3008 	ldr	r3, [fp, #-8]
3005ab10:	e283201c 	add	r2, r3, #28	; 0x1c
3005ab14:	e24b3044 	sub	r3, fp, #68	; 0x44
3005ab18:	e2833026 	add	r3, r3, #38	; 0x26
3005ab1c:	e1a00003 	mov	r0, r3
3005ab20:	e1a01002 	mov	r1, r2
3005ab24:	e3a02004 	mov	r2, #4	; 0x4
3005ab28:	ebffd9c9 	bl	30051254 <memcpy>
3005ab2c:	e24b3044 	sub	r3, fp, #68	; 0x44
3005ab30:	e1a00003 	mov	r0, r3
3005ab34:	e3a0102a 	mov	r1, #42	; 0x2a
3005ab38:	ebfff73e 	bl	30058838 <dm9000_send>
3005ab3c:	ea000037 	b	3005ac20 <arp_process+0x28c>
3005ab40:	e51b3008 	ldr	r3, [fp, #-8]
3005ab44:	e283201c 	add	r2, r3, #28	; 0x1c
3005ab48:	e24b3048 	sub	r3, fp, #72	; 0x48
3005ab4c:	e1a00003 	mov	r0, r3
3005ab50:	e1a01002 	mov	r1, r2
3005ab54:	e3a02004 	mov	r2, #4	; 0x4
3005ab58:	ebffd9bd 	bl	30051254 <memcpy>
3005ab5c:	e51b3008 	ldr	r3, [fp, #-8]
3005ab60:	e2832016 	add	r2, r3, #22	; 0x16
3005ab64:	e24b304e 	sub	r3, fp, #78	; 0x4e
3005ab68:	e1a00003 	mov	r0, r3
3005ab6c:	e1a01002 	mov	r1, r2
3005ab70:	e3a02006 	mov	r2, #6	; 0x6
3005ab74:	ebffd9b6 	bl	30051254 <memcpy>
3005ab78:	e59f00b4 	ldr	r0, [pc, #180]	; 3005ac34 <arp_process+0x2a0>
3005ab7c:	ebffe4fe 	bl	30053f7c <print_string>
3005ab80:	e3a03000 	mov	r3, #0	; 0x0
3005ab84:	e50b3010 	str	r3, [fp, #-16]
3005ab88:	ea00000b 	b	3005abbc <arp_process+0x228>
3005ab8c:	e51b3010 	ldr	r3, [fp, #-16]
3005ab90:	e3e02043 	mvn	r2, #67	; 0x43
3005ab94:	e24b1004 	sub	r1, fp, #4	; 0x4
3005ab98:	e0813003 	add	r3, r1, r3
3005ab9c:	e0833002 	add	r3, r3, r2
3005aba0:	e5d33000 	ldrb	r3, [r3]
3005aba4:	e59f008c 	ldr	r0, [pc, #140]	; 3005ac38 <arp_process+0x2a4>
3005aba8:	e1a01003 	mov	r1, r3
3005abac:	ebffe844 	bl	30054cc4 <printf_string>
3005abb0:	e51b3010 	ldr	r3, [fp, #-16]
3005abb4:	e2833001 	add	r3, r3, #1	; 0x1
3005abb8:	e50b3010 	str	r3, [fp, #-16]
3005abbc:	e51b3010 	ldr	r3, [fp, #-16]
3005abc0:	e3530003 	cmp	r3, #3	; 0x3
3005abc4:	9afffff0 	bls	3005ab8c <arp_process+0x1f8>
3005abc8:	e59f006c 	ldr	r0, [pc, #108]	; 3005ac3c <arp_process+0x2a8>
3005abcc:	ebffe4ea 	bl	30053f7c <print_string>
3005abd0:	e3a03000 	mov	r3, #0	; 0x0
3005abd4:	e50b3010 	str	r3, [fp, #-16]
3005abd8:	ea00000b 	b	3005ac0c <arp_process+0x278>
3005abdc:	e51b3010 	ldr	r3, [fp, #-16]
3005abe0:	e3e02049 	mvn	r2, #73	; 0x49
3005abe4:	e24b1004 	sub	r1, fp, #4	; 0x4
3005abe8:	e0813003 	add	r3, r1, r3
3005abec:	e0833002 	add	r3, r3, r2
3005abf0:	e5d33000 	ldrb	r3, [r3]
3005abf4:	e59f0044 	ldr	r0, [pc, #68]	; 3005ac40 <arp_process+0x2ac>
3005abf8:	e1a01003 	mov	r1, r3
3005abfc:	ebffe830 	bl	30054cc4 <printf_string>
3005ac00:	e51b3010 	ldr	r3, [fp, #-16]
3005ac04:	e2833001 	add	r3, r3, #1	; 0x1
3005ac08:	e50b3010 	str	r3, [fp, #-16]
3005ac0c:	e51b3010 	ldr	r3, [fp, #-16]
3005ac10:	e3530005 	cmp	r3, #5	; 0x5
3005ac14:	9afffff0 	bls	3005abdc <arp_process+0x248>
3005ac18:	e59f0024 	ldr	r0, [pc, #36]	; 3005ac44 <arp_process+0x2b0>
3005ac1c:	ebffe4d6 	bl	30053f7c <print_string>
3005ac20:	e24bd004 	sub	sp, fp, #4	; 0x4
3005ac24:	e8bd4800 	pop	{fp, lr}
3005ac28:	e12fff1e 	bx	lr
3005ac2c:	3005cec8 	.word	0x3005cec8
3005ac30:	3005cec4 	.word	0x3005cec4
3005ac34:	3005ced0 	.word	0x3005ced0
3005ac38:	3005cedc 	.word	0x3005cedc
3005ac3c:	3005cee0 	.word	0x3005cee0
3005ac40:	3005cef0 	.word	0x3005cef0
3005ac44:	3005cef4 	.word	0x3005cef4

3005ac48 <arp_test>:
3005ac48:	e92d4800 	push	{fp, lr}
3005ac4c:	e28db004 	add	fp, sp, #4	; 0x4
3005ac50:	e24dd0e0 	sub	sp, sp, #224	; 0xe0
3005ac54:	e50b00e0 	str	r0, [fp, #-224]
3005ac58:	e50b10e4 	str	r1, [fp, #-228]
3005ac5c:	e3a03000 	mov	r3, #0	; 0x0
3005ac60:	e50b3010 	str	r3, [fp, #-16]
3005ac64:	e3a03000 	mov	r3, #0	; 0x0
3005ac68:	e50b300c 	str	r3, [fp, #-12]
3005ac6c:	e24b30d8 	sub	r3, fp, #216	; 0xd8
3005ac70:	e3a020c8 	mov	r2, #200	; 0xc8
3005ac74:	e1a00003 	mov	r0, r3
3005ac78:	e3a01000 	mov	r1, #0	; 0x0
3005ac7c:	ebffd9b2 	bl	3005134c <memset>
3005ac80:	e3a0300a 	mov	r3, #10	; 0xa
3005ac84:	e50b3008 	str	r3, [fp, #-8]
3005ac88:	ebfff63a 	bl	30058578 <dm9000_init>
3005ac8c:	e59f0060 	ldr	r0, [pc, #96]	; 3005acf4 <arp_test+0xac>
3005ac90:	ebffe4b9 	bl	30053f7c <print_string>
3005ac94:	e3a0093d 	mov	r0, #999424	; 0xf4000
3005ac98:	e2800d09 	add	r0, r0, #576	; 0x240
3005ac9c:	ebffd898 	bl	30050f04 <delay>
3005aca0:	ea000003 	b	3005acb4 <arp_test+0x6c>
3005aca4:	ebfffed8 	bl	3005a80c <arp_request>
3005aca8:	e3a00bc3 	mov	r0, #199680	; 0x30c00
3005acac:	e2800d05 	add	r0, r0, #320	; 0x140
3005acb0:	ebffd893 	bl	30050f04 <delay>
3005acb4:	e51b3008 	ldr	r3, [fp, #-8]
3005acb8:	e3530000 	cmp	r3, #0	; 0x0
3005acbc:	03a03000 	moveq	r3, #0	; 0x0
3005acc0:	13a03001 	movne	r3, #1	; 0x1
3005acc4:	e20320ff 	and	r2, r3, #255	; 0xff
3005acc8:	e51b3008 	ldr	r3, [fp, #-8]
3005accc:	e2433001 	sub	r3, r3, #1	; 0x1
3005acd0:	e50b3008 	str	r3, [fp, #-8]
3005acd4:	e3520000 	cmp	r2, #0	; 0x0
3005acd8:	1afffff1 	bne	3005aca4 <arp_test+0x5c>
3005acdc:	ebfff56e 	bl	3005829c <dm9000_int_clear>
3005ace0:	e51b3010 	ldr	r3, [fp, #-16]
3005ace4:	e1a00003 	mov	r0, r3
3005ace8:	e24bd004 	sub	sp, fp, #4	; 0x4
3005acec:	e8bd4800 	pop	{fp, lr}
3005acf0:	e12fff1e 	bx	lr
3005acf4:	3005cef8 	.word	0x3005cef8

3005acf8 <checksum>:
3005acf8:	e52db004 	push	{fp}		; (str fp, [sp, #-4]!)
3005acfc:	e28db000 	add	fp, sp, #0	; 0x0
3005ad00:	e24dd014 	sub	sp, sp, #20	; 0x14
3005ad04:	e50b0010 	str	r0, [fp, #-16]
3005ad08:	e50b1014 	str	r1, [fp, #-20]
3005ad0c:	e3a03000 	mov	r3, #0	; 0x0
3005ad10:	e50b300c 	str	r3, [fp, #-12]
3005ad14:	e51b3010 	ldr	r3, [fp, #-16]
3005ad18:	e50b3008 	str	r3, [fp, #-8]
3005ad1c:	ea00000b 	b	3005ad50 <checksum+0x58>
3005ad20:	e51b3008 	ldr	r3, [fp, #-8]
3005ad24:	e1d330b0 	ldrh	r3, [r3]
3005ad28:	e1a02003 	mov	r2, r3
3005ad2c:	e51b300c 	ldr	r3, [fp, #-12]
3005ad30:	e0833002 	add	r3, r3, r2
3005ad34:	e50b300c 	str	r3, [fp, #-12]
3005ad38:	e51b3008 	ldr	r3, [fp, #-8]
3005ad3c:	e2833002 	add	r3, r3, #2	; 0x2
3005ad40:	e50b3008 	str	r3, [fp, #-8]
3005ad44:	e51b3014 	ldr	r3, [fp, #-20]
3005ad48:	e2433002 	sub	r3, r3, #2	; 0x2
3005ad4c:	e50b3014 	str	r3, [fp, #-20]
3005ad50:	e51b3014 	ldr	r3, [fp, #-20]
3005ad54:	e3530001 	cmp	r3, #1	; 0x1
3005ad58:	cafffff0 	bgt	3005ad20 <checksum+0x28>
3005ad5c:	e51b3014 	ldr	r3, [fp, #-20]
3005ad60:	e3530001 	cmp	r3, #1	; 0x1
3005ad64:	1a00000d 	bne	3005ada0 <checksum+0xa8>
3005ad68:	e51b3008 	ldr	r3, [fp, #-8]
3005ad6c:	e5d33000 	ldrb	r3, [r3]
3005ad70:	e1a02003 	mov	r2, r3
3005ad74:	e51b300c 	ldr	r3, [fp, #-12]
3005ad78:	e0833002 	add	r3, r3, r2
3005ad7c:	e50b300c 	str	r3, [fp, #-12]
3005ad80:	ea000006 	b	3005ada0 <checksum+0xa8>
3005ad84:	e51b300c 	ldr	r3, [fp, #-12]
3005ad88:	e1a03803 	lsl	r3, r3, #16
3005ad8c:	e1a03823 	lsr	r3, r3, #16
3005ad90:	e51b200c 	ldr	r2, [fp, #-12]
3005ad94:	e1a02822 	lsr	r2, r2, #16
3005ad98:	e0833002 	add	r3, r3, r2
3005ad9c:	e50b300c 	str	r3, [fp, #-12]
3005ada0:	e51b300c 	ldr	r3, [fp, #-12]
3005ada4:	e1a03823 	lsr	r3, r3, #16
3005ada8:	e3530000 	cmp	r3, #0	; 0x0
3005adac:	1afffff4 	bne	3005ad84 <checksum+0x8c>
3005adb0:	e51b300c 	ldr	r3, [fp, #-12]
3005adb4:	e1a03803 	lsl	r3, r3, #16
3005adb8:	e1a03823 	lsr	r3, r3, #16
3005adbc:	e1e03003 	mvn	r3, r3
3005adc0:	e1a03803 	lsl	r3, r3, #16
3005adc4:	e1a03823 	lsr	r3, r3, #16
3005adc8:	e1a00003 	mov	r0, r3
3005adcc:	e28bd000 	add	sp, fp, #0	; 0x0
3005add0:	e8bd0800 	pop	{fp}
3005add4:	e12fff1e 	bx	lr

3005add8 <tftp_send_request>:
3005add8:	e92d4810 	push	{r4, fp, lr}
3005addc:	e28db008 	add	fp, sp, #8	; 0x8
3005ade0:	e24dd034 	sub	sp, sp, #52	; 0x34
3005ade4:	e50b0038 	str	r0, [fp, #-56]
3005ade8:	e59f3364 	ldr	r3, [pc, #868]	; 3005b154 <tftp_send_request+0x37c>
3005adec:	e50b301c 	str	r3, [fp, #-28]
3005adf0:	e3a03000 	mov	r3, #0	; 0x0
3005adf4:	e50b3018 	str	r3, [fp, #-24]
3005adf8:	e3a03000 	mov	r3, #0	; 0x0
3005adfc:	e50b3014 	str	r3, [fp, #-20]
3005ae00:	e3a03000 	mov	r3, #0	; 0x0
3005ae04:	e50b3010 	str	r3, [fp, #-16]
3005ae08:	e59f3348 	ldr	r3, [pc, #840]	; 3005b158 <tftp_send_request+0x380>
3005ae0c:	e24b2022 	sub	r2, fp, #34	; 0x22
3005ae10:	e3a0c006 	mov	ip, #6	; 0x6
3005ae14:	e1a00002 	mov	r0, r2
3005ae18:	e1a01003 	mov	r1, r3
3005ae1c:	e1a0200c 	mov	r2, ip
3005ae20:	ebffd90b 	bl	30051254 <memcpy>
3005ae24:	e59f3330 	ldr	r3, [pc, #816]	; 3005b15c <tftp_send_request+0x384>
3005ae28:	e24b2028 	sub	r2, fp, #40	; 0x28
3005ae2c:	e3a0c006 	mov	ip, #6	; 0x6
3005ae30:	e1a00002 	mov	r0, r2
3005ae34:	e1a01003 	mov	r1, r3
3005ae38:	e1a0200c 	mov	r2, ip
3005ae3c:	ebffd904 	bl	30051254 <memcpy>
3005ae40:	e59f3318 	ldr	r3, [pc, #792]	; 3005b160 <tftp_send_request+0x388>
3005ae44:	e24b202c 	sub	r2, fp, #44	; 0x2c
3005ae48:	e3a0c004 	mov	ip, #4	; 0x4
3005ae4c:	e1a00002 	mov	r0, r2
3005ae50:	e1a01003 	mov	r1, r3
3005ae54:	e1a0200c 	mov	r2, ip
3005ae58:	ebffd8fd 	bl	30051254 <memcpy>
3005ae5c:	e59f3300 	ldr	r3, [pc, #768]	; 3005b164 <tftp_send_request+0x38c>
3005ae60:	e24b2030 	sub	r2, fp, #48	; 0x30
3005ae64:	e3a0c004 	mov	ip, #4	; 0x4
3005ae68:	e1a00002 	mov	r0, r2
3005ae6c:	e1a01003 	mov	r1, r3
3005ae70:	e1a0200c 	mov	r2, ip
3005ae74:	ebffd8f6 	bl	30051254 <memcpy>
3005ae78:	e51b201c 	ldr	r2, [fp, #-28]
3005ae7c:	e3a03000 	mov	r3, #0	; 0x0
3005ae80:	e5c23000 	strb	r3, [r2]
3005ae84:	e51b301c 	ldr	r3, [fp, #-28]
3005ae88:	e2832001 	add	r2, r3, #1	; 0x1
3005ae8c:	e3a03001 	mov	r3, #1	; 0x1
3005ae90:	e5c23000 	strb	r3, [r2]
3005ae94:	e51b3018 	ldr	r3, [fp, #-24]
3005ae98:	e2833002 	add	r3, r3, #2	; 0x2
3005ae9c:	e50b3018 	str	r3, [fp, #-24]
3005aea0:	e51b201c 	ldr	r2, [fp, #-28]
3005aea4:	e51b3018 	ldr	r3, [fp, #-24]
3005aea8:	e0824003 	add	r4, r2, r3
3005aeac:	e51b0038 	ldr	r0, [fp, #-56]
3005aeb0:	ebffd8ab 	bl	30051164 <strlen>
3005aeb4:	e1a03000 	mov	r3, r0
3005aeb8:	e1a00004 	mov	r0, r4
3005aebc:	e51b1038 	ldr	r1, [fp, #-56]
3005aec0:	e1a02003 	mov	r2, r3
3005aec4:	ebffd8e2 	bl	30051254 <memcpy>
3005aec8:	e51b0038 	ldr	r0, [fp, #-56]
3005aecc:	ebffd8a4 	bl	30051164 <strlen>
3005aed0:	e1a03000 	mov	r3, r0
3005aed4:	e1a02003 	mov	r2, r3
3005aed8:	e51b3018 	ldr	r3, [fp, #-24]
3005aedc:	e0833002 	add	r3, r3, r2
3005aee0:	e50b3018 	str	r3, [fp, #-24]
3005aee4:	e51b201c 	ldr	r2, [fp, #-28]
3005aee8:	e51b3018 	ldr	r3, [fp, #-24]
3005aeec:	e0822003 	add	r2, r2, r3
3005aef0:	e3a03000 	mov	r3, #0	; 0x0
3005aef4:	e5c23000 	strb	r3, [r2]
3005aef8:	e51b3018 	ldr	r3, [fp, #-24]
3005aefc:	e2833001 	add	r3, r3, #1	; 0x1
3005af00:	e50b3018 	str	r3, [fp, #-24]
3005af04:	e51b201c 	ldr	r2, [fp, #-28]
3005af08:	e51b3018 	ldr	r3, [fp, #-24]
3005af0c:	e0824003 	add	r4, r2, r3
3005af10:	e59f0250 	ldr	r0, [pc, #592]	; 3005b168 <tftp_send_request+0x390>
3005af14:	ebffd892 	bl	30051164 <strlen>
3005af18:	e1a03000 	mov	r3, r0
3005af1c:	e1a00004 	mov	r0, r4
3005af20:	e59f1240 	ldr	r1, [pc, #576]	; 3005b168 <tftp_send_request+0x390>
3005af24:	e1a02003 	mov	r2, r3
3005af28:	ebffd8c9 	bl	30051254 <memcpy>
3005af2c:	e59f0234 	ldr	r0, [pc, #564]	; 3005b168 <tftp_send_request+0x390>
3005af30:	ebffd88b 	bl	30051164 <strlen>
3005af34:	e1a03000 	mov	r3, r0
3005af38:	e1a02003 	mov	r2, r3
3005af3c:	e51b3018 	ldr	r3, [fp, #-24]
3005af40:	e0833002 	add	r3, r3, r2
3005af44:	e50b3018 	str	r3, [fp, #-24]
3005af48:	e51b201c 	ldr	r2, [fp, #-28]
3005af4c:	e51b3018 	ldr	r3, [fp, #-24]
3005af50:	e0822003 	add	r2, r2, r3
3005af54:	e3a03000 	mov	r3, #0	; 0x0
3005af58:	e5c23000 	strb	r3, [r2]
3005af5c:	e51b3018 	ldr	r3, [fp, #-24]
3005af60:	e2833001 	add	r3, r3, #1	; 0x1
3005af64:	e50b3018 	str	r3, [fp, #-24]
3005af68:	e51b301c 	ldr	r3, [fp, #-28]
3005af6c:	e243302a 	sub	r3, r3, #42	; 0x2a
3005af70:	e50b3014 	str	r3, [fp, #-20]
3005af74:	e51b301c 	ldr	r3, [fp, #-28]
3005af78:	e243301c 	sub	r3, r3, #28	; 0x1c
3005af7c:	e50b3010 	str	r3, [fp, #-16]
3005af80:	e51b2014 	ldr	r2, [fp, #-20]
3005af84:	e3a03d4e 	mov	r3, #4992	; 0x1380
3005af88:	e283303f 	add	r3, r3, #63	; 0x3f
3005af8c:	e1c232b2 	strh	r3, [r2, #34]
3005af90:	e51b2014 	ldr	r2, [fp, #-20]
3005af94:	e3a03c45 	mov	r3, #17664	; 0x4500
3005af98:	e1c232b4 	strh	r3, [r2, #36]
3005af9c:	e51b3018 	ldr	r3, [fp, #-24]
3005afa0:	e1a03803 	lsl	r3, r3, #16
3005afa4:	e1a03823 	lsr	r3, r3, #16
3005afa8:	e2833008 	add	r3, r3, #8	; 0x8
3005afac:	e1a03803 	lsl	r3, r3, #16
3005afb0:	e1a03823 	lsr	r3, r3, #16
3005afb4:	e1a03403 	lsl	r3, r3, #8
3005afb8:	e1a03803 	lsl	r3, r3, #16
3005afbc:	e1a02823 	lsr	r2, r3, #16
3005afc0:	e51b3018 	ldr	r3, [fp, #-24]
3005afc4:	e2833008 	add	r3, r3, #8	; 0x8
3005afc8:	e2033cff 	and	r3, r3, #65280	; 0xff00
3005afcc:	e1a03423 	lsr	r3, r3, #8
3005afd0:	e1a03803 	lsl	r3, r3, #16
3005afd4:	e1a03823 	lsr	r3, r3, #16
3005afd8:	e1823003 	orr	r3, r2, r3
3005afdc:	e1a03803 	lsl	r3, r3, #16
3005afe0:	e1a02823 	lsr	r2, r3, #16
3005afe4:	e51b3014 	ldr	r3, [fp, #-20]
3005afe8:	e1c322b6 	strh	r2, [r3, #38]
3005afec:	e51b2014 	ldr	r2, [fp, #-20]
3005aff0:	e3a03000 	mov	r3, #0	; 0x0
3005aff4:	e1c232b8 	strh	r3, [r2, #40]
3005aff8:	e51b2014 	ldr	r2, [fp, #-20]
3005affc:	e3a03045 	mov	r3, #69	; 0x45
3005b000:	e5c2300e 	strb	r3, [r2, #14]
3005b004:	e51b2014 	ldr	r2, [fp, #-20]
3005b008:	e3a03000 	mov	r3, #0	; 0x0
3005b00c:	e5c2300f 	strb	r3, [r2, #15]
3005b010:	e51b3018 	ldr	r3, [fp, #-24]
3005b014:	e1a03803 	lsl	r3, r3, #16
3005b018:	e1a03823 	lsr	r3, r3, #16
3005b01c:	e283301c 	add	r3, r3, #28	; 0x1c
3005b020:	e1a03803 	lsl	r3, r3, #16
3005b024:	e1a03823 	lsr	r3, r3, #16
3005b028:	e1a03403 	lsl	r3, r3, #8
3005b02c:	e1a03803 	lsl	r3, r3, #16
3005b030:	e1a02823 	lsr	r2, r3, #16
3005b034:	e51b3018 	ldr	r3, [fp, #-24]
3005b038:	e283301c 	add	r3, r3, #28	; 0x1c
3005b03c:	e2033cff 	and	r3, r3, #65280	; 0xff00
3005b040:	e1a03423 	lsr	r3, r3, #8
3005b044:	e1a03803 	lsl	r3, r3, #16
3005b048:	e1a03823 	lsr	r3, r3, #16
3005b04c:	e1823003 	orr	r3, r2, r3
3005b050:	e1a03803 	lsl	r3, r3, #16
3005b054:	e1a02823 	lsr	r2, r3, #16
3005b058:	e51b3014 	ldr	r3, [fp, #-20]
3005b05c:	e1c321b0 	strh	r2, [r3, #16]
3005b060:	e51b2014 	ldr	r2, [fp, #-20]
3005b064:	e3a03000 	mov	r3, #0	; 0x0
3005b068:	e1c231b2 	strh	r3, [r2, #18]
3005b06c:	e51b2014 	ldr	r2, [fp, #-20]
3005b070:	e3a03040 	mov	r3, #64	; 0x40
3005b074:	e1c231b4 	strh	r3, [r2, #20]
3005b078:	e51b2014 	ldr	r2, [fp, #-20]
3005b07c:	e3e03000 	mvn	r3, #0	; 0x0
3005b080:	e5c23016 	strb	r3, [r2, #22]
3005b084:	e51b2014 	ldr	r2, [fp, #-20]
3005b088:	e3a03011 	mov	r3, #17	; 0x11
3005b08c:	e5c23017 	strb	r3, [r2, #23]
3005b090:	e51b3014 	ldr	r3, [fp, #-20]
3005b094:	e283301a 	add	r3, r3, #26	; 0x1a
3005b098:	e24b202c 	sub	r2, fp, #44	; 0x2c
3005b09c:	e1a00003 	mov	r0, r3
3005b0a0:	e1a01002 	mov	r1, r2
3005b0a4:	e3a02004 	mov	r2, #4	; 0x4
3005b0a8:	ebffd869 	bl	30051254 <memcpy>
3005b0ac:	e51b3014 	ldr	r3, [fp, #-20]
3005b0b0:	e283301e 	add	r3, r3, #30	; 0x1e
3005b0b4:	e24b2030 	sub	r2, fp, #48	; 0x30
3005b0b8:	e1a00003 	mov	r0, r3
3005b0bc:	e1a01002 	mov	r1, r2
3005b0c0:	e3a02004 	mov	r2, #4	; 0x4
3005b0c4:	ebffd862 	bl	30051254 <memcpy>
3005b0c8:	e51b2014 	ldr	r2, [fp, #-20]
3005b0cc:	e3a03000 	mov	r3, #0	; 0x0
3005b0d0:	e1c231b8 	strh	r3, [r2, #24]
3005b0d4:	e51b0010 	ldr	r0, [fp, #-16]
3005b0d8:	e3a01014 	mov	r1, #20	; 0x14
3005b0dc:	ebffff05 	bl	3005acf8 <checksum>
3005b0e0:	e1a03000 	mov	r3, r0
3005b0e4:	e1a02003 	mov	r2, r3
3005b0e8:	e51b3014 	ldr	r3, [fp, #-20]
3005b0ec:	e1c321b8 	strh	r2, [r3, #24]
3005b0f0:	e51b3014 	ldr	r3, [fp, #-20]
3005b0f4:	e2833006 	add	r3, r3, #6	; 0x6
3005b0f8:	e24b2022 	sub	r2, fp, #34	; 0x22
3005b0fc:	e1a00003 	mov	r0, r3
3005b100:	e1a01002 	mov	r1, r2
3005b104:	e3a02006 	mov	r2, #6	; 0x6
3005b108:	ebffd851 	bl	30051254 <memcpy>
3005b10c:	e51b3014 	ldr	r3, [fp, #-20]
3005b110:	e24b2028 	sub	r2, fp, #40	; 0x28
3005b114:	e1a00003 	mov	r0, r3
3005b118:	e1a01002 	mov	r1, r2
3005b11c:	e3a02006 	mov	r2, #6	; 0x6
3005b120:	ebffd84b 	bl	30051254 <memcpy>
3005b124:	e51b2014 	ldr	r2, [fp, #-20]
3005b128:	e3a03008 	mov	r3, #8	; 0x8
3005b12c:	e1c230bc 	strh	r3, [r2, #12]
3005b130:	e51b2014 	ldr	r2, [fp, #-20]
3005b134:	e51b3018 	ldr	r3, [fp, #-24]
3005b138:	e283302a 	add	r3, r3, #42	; 0x2a
3005b13c:	e1a00002 	mov	r0, r2
3005b140:	e1a01003 	mov	r1, r3
3005b144:	ebfff5bb 	bl	30058838 <dm9000_send>
3005b148:	e24bd008 	sub	sp, fp, #8	; 0x8
3005b14c:	e8bd4810 	pop	{r4, fp, lr}
3005b150:	e12fff1e 	bx	lr
3005b154:	30089f38 	.word	0x30089f38
3005b158:	3005cf12 	.word	0x3005cf12
3005b15c:	3005cf0c 	.word	0x3005cf0c
3005b160:	3005cf08 	.word	0x3005cf08
3005b164:	3005cf04 	.word	0x3005cf04
3005b168:	3005cf18 	.word	0x3005cf18

3005b16c <tftp_send_ack>:
3005b16c:	e92d4800 	push	{fp, lr}
3005b170:	e28db004 	add	fp, sp, #4	; 0x4
3005b174:	e24dd030 	sub	sp, sp, #48	; 0x30
3005b178:	e1a03000 	mov	r3, r0
3005b17c:	e1a02001 	mov	r2, r1
3005b180:	e14b32be 	strh	r3, [fp, #-46]
3005b184:	e14b23b0 	strh	r2, [fp, #-48]
3005b188:	e59f330c 	ldr	r3, [pc, #780]	; 3005b49c <tftp_send_ack+0x330>
3005b18c:	e50b3014 	str	r3, [fp, #-20]
3005b190:	e3a03000 	mov	r3, #0	; 0x0
3005b194:	e50b3010 	str	r3, [fp, #-16]
3005b198:	e3a03000 	mov	r3, #0	; 0x0
3005b19c:	e50b300c 	str	r3, [fp, #-12]
3005b1a0:	e3a03000 	mov	r3, #0	; 0x0
3005b1a4:	e50b3008 	str	r3, [fp, #-8]
3005b1a8:	e59f32f0 	ldr	r3, [pc, #752]	; 3005b4a0 <tftp_send_ack+0x334>
3005b1ac:	e24b201a 	sub	r2, fp, #26	; 0x1a
3005b1b0:	e3a0c006 	mov	ip, #6	; 0x6
3005b1b4:	e1a00002 	mov	r0, r2
3005b1b8:	e1a01003 	mov	r1, r3
3005b1bc:	e1a0200c 	mov	r2, ip
3005b1c0:	ebffd823 	bl	30051254 <memcpy>
3005b1c4:	e59f32d8 	ldr	r3, [pc, #728]	; 3005b4a4 <tftp_send_ack+0x338>
3005b1c8:	e24b2020 	sub	r2, fp, #32	; 0x20
3005b1cc:	e3a0c006 	mov	ip, #6	; 0x6
3005b1d0:	e1a00002 	mov	r0, r2
3005b1d4:	e1a01003 	mov	r1, r3
3005b1d8:	e1a0200c 	mov	r2, ip
3005b1dc:	ebffd81c 	bl	30051254 <memcpy>
3005b1e0:	e59f32c0 	ldr	r3, [pc, #704]	; 3005b4a8 <tftp_send_ack+0x33c>
3005b1e4:	e24b2024 	sub	r2, fp, #36	; 0x24
3005b1e8:	e3a0c004 	mov	ip, #4	; 0x4
3005b1ec:	e1a00002 	mov	r0, r2
3005b1f0:	e1a01003 	mov	r1, r3
3005b1f4:	e1a0200c 	mov	r2, ip
3005b1f8:	ebffd815 	bl	30051254 <memcpy>
3005b1fc:	e59f32a8 	ldr	r3, [pc, #680]	; 3005b4ac <tftp_send_ack+0x340>
3005b200:	e24b2028 	sub	r2, fp, #40	; 0x28
3005b204:	e3a0c004 	mov	ip, #4	; 0x4
3005b208:	e1a00002 	mov	r0, r2
3005b20c:	e1a01003 	mov	r1, r3
3005b210:	e1a0200c 	mov	r2, ip
3005b214:	ebffd80e 	bl	30051254 <memcpy>
3005b218:	e51b2014 	ldr	r2, [fp, #-20]
3005b21c:	e3a03000 	mov	r3, #0	; 0x0
3005b220:	e5c23000 	strb	r3, [r2]
3005b224:	e51b3014 	ldr	r3, [fp, #-20]
3005b228:	e2832001 	add	r2, r3, #1	; 0x1
3005b22c:	e3a03004 	mov	r3, #4	; 0x4
3005b230:	e5c23000 	strb	r3, [r2]
3005b234:	e51b3010 	ldr	r3, [fp, #-16]
3005b238:	e2833002 	add	r3, r3, #2	; 0x2
3005b23c:	e50b3010 	str	r3, [fp, #-16]
3005b240:	e51b3014 	ldr	r3, [fp, #-20]
3005b244:	e2832002 	add	r2, r3, #2	; 0x2
3005b248:	e15b32be 	ldrh	r3, [fp, #-46]
3005b24c:	e1a03423 	lsr	r3, r3, #8
3005b250:	e1a03803 	lsl	r3, r3, #16
3005b254:	e1a03823 	lsr	r3, r3, #16
3005b258:	e20330ff 	and	r3, r3, #255	; 0xff
3005b25c:	e5c23000 	strb	r3, [r2]
3005b260:	e51b3014 	ldr	r3, [fp, #-20]
3005b264:	e2832003 	add	r2, r3, #3	; 0x3
3005b268:	e15b32be 	ldrh	r3, [fp, #-46]
3005b26c:	e20330ff 	and	r3, r3, #255	; 0xff
3005b270:	e5c23000 	strb	r3, [r2]
3005b274:	e51b3010 	ldr	r3, [fp, #-16]
3005b278:	e2833002 	add	r3, r3, #2	; 0x2
3005b27c:	e50b3010 	str	r3, [fp, #-16]
3005b280:	e51b3014 	ldr	r3, [fp, #-20]
3005b284:	e243302a 	sub	r3, r3, #42	; 0x2a
3005b288:	e50b300c 	str	r3, [fp, #-12]
3005b28c:	e51b3014 	ldr	r3, [fp, #-20]
3005b290:	e243301c 	sub	r3, r3, #28	; 0x1c
3005b294:	e50b3008 	str	r3, [fp, #-8]
3005b298:	e51b200c 	ldr	r2, [fp, #-12]
3005b29c:	e3a03d4e 	mov	r3, #4992	; 0x1380
3005b2a0:	e283303f 	add	r3, r3, #63	; 0x3f
3005b2a4:	e1c232b2 	strh	r3, [r2, #34]
3005b2a8:	e15b33b0 	ldrh	r3, [fp, #-48]
3005b2ac:	e1a03403 	lsl	r3, r3, #8
3005b2b0:	e1a03803 	lsl	r3, r3, #16
3005b2b4:	e1a02823 	lsr	r2, r3, #16
3005b2b8:	e15b33b0 	ldrh	r3, [fp, #-48]
3005b2bc:	e1a03423 	lsr	r3, r3, #8
3005b2c0:	e1a03803 	lsl	r3, r3, #16
3005b2c4:	e1a03823 	lsr	r3, r3, #16
3005b2c8:	e1823003 	orr	r3, r2, r3
3005b2cc:	e1a03803 	lsl	r3, r3, #16
3005b2d0:	e1a03823 	lsr	r3, r3, #16
3005b2d4:	e1a03803 	lsl	r3, r3, #16
3005b2d8:	e1a02823 	lsr	r2, r3, #16
3005b2dc:	e51b300c 	ldr	r3, [fp, #-12]
3005b2e0:	e1c322b4 	strh	r2, [r3, #36]
3005b2e4:	e51b3010 	ldr	r3, [fp, #-16]
3005b2e8:	e1a03803 	lsl	r3, r3, #16
3005b2ec:	e1a03823 	lsr	r3, r3, #16
3005b2f0:	e2833008 	add	r3, r3, #8	; 0x8
3005b2f4:	e1a03803 	lsl	r3, r3, #16
3005b2f8:	e1a03823 	lsr	r3, r3, #16
3005b2fc:	e1a03403 	lsl	r3, r3, #8
3005b300:	e1a03803 	lsl	r3, r3, #16
3005b304:	e1a02823 	lsr	r2, r3, #16
3005b308:	e51b3010 	ldr	r3, [fp, #-16]
3005b30c:	e2833008 	add	r3, r3, #8	; 0x8
3005b310:	e2033cff 	and	r3, r3, #65280	; 0xff00
3005b314:	e1a03423 	lsr	r3, r3, #8
3005b318:	e1a03803 	lsl	r3, r3, #16
3005b31c:	e1a03823 	lsr	r3, r3, #16
3005b320:	e1823003 	orr	r3, r2, r3
3005b324:	e1a03803 	lsl	r3, r3, #16
3005b328:	e1a02823 	lsr	r2, r3, #16
3005b32c:	e51b300c 	ldr	r3, [fp, #-12]
3005b330:	e1c322b6 	strh	r2, [r3, #38]
3005b334:	e51b200c 	ldr	r2, [fp, #-12]
3005b338:	e3a03000 	mov	r3, #0	; 0x0
3005b33c:	e1c232b8 	strh	r3, [r2, #40]
3005b340:	e51b200c 	ldr	r2, [fp, #-12]
3005b344:	e3a03045 	mov	r3, #69	; 0x45
3005b348:	e5c2300e 	strb	r3, [r2, #14]
3005b34c:	e51b200c 	ldr	r2, [fp, #-12]
3005b350:	e3a03000 	mov	r3, #0	; 0x0
3005b354:	e5c2300f 	strb	r3, [r2, #15]
3005b358:	e51b3010 	ldr	r3, [fp, #-16]
3005b35c:	e1a03803 	lsl	r3, r3, #16
3005b360:	e1a03823 	lsr	r3, r3, #16
3005b364:	e283301c 	add	r3, r3, #28	; 0x1c
3005b368:	e1a03803 	lsl	r3, r3, #16
3005b36c:	e1a03823 	lsr	r3, r3, #16
3005b370:	e1a03403 	lsl	r3, r3, #8
3005b374:	e1a03803 	lsl	r3, r3, #16
3005b378:	e1a02823 	lsr	r2, r3, #16
3005b37c:	e51b3010 	ldr	r3, [fp, #-16]
3005b380:	e283301c 	add	r3, r3, #28	; 0x1c
3005b384:	e2033cff 	and	r3, r3, #65280	; 0xff00
3005b388:	e1a03423 	lsr	r3, r3, #8
3005b38c:	e1a03803 	lsl	r3, r3, #16
3005b390:	e1a03823 	lsr	r3, r3, #16
3005b394:	e1823003 	orr	r3, r2, r3
3005b398:	e1a03803 	lsl	r3, r3, #16
3005b39c:	e1a02823 	lsr	r2, r3, #16
3005b3a0:	e51b300c 	ldr	r3, [fp, #-12]
3005b3a4:	e1c321b0 	strh	r2, [r3, #16]
3005b3a8:	e51b200c 	ldr	r2, [fp, #-12]
3005b3ac:	e3a03000 	mov	r3, #0	; 0x0
3005b3b0:	e1c231b2 	strh	r3, [r2, #18]
3005b3b4:	e51b200c 	ldr	r2, [fp, #-12]
3005b3b8:	e3a03040 	mov	r3, #64	; 0x40
3005b3bc:	e1c231b4 	strh	r3, [r2, #20]
3005b3c0:	e51b200c 	ldr	r2, [fp, #-12]
3005b3c4:	e3e03000 	mvn	r3, #0	; 0x0
3005b3c8:	e5c23016 	strb	r3, [r2, #22]
3005b3cc:	e51b200c 	ldr	r2, [fp, #-12]
3005b3d0:	e3a03011 	mov	r3, #17	; 0x11
3005b3d4:	e5c23017 	strb	r3, [r2, #23]
3005b3d8:	e51b300c 	ldr	r3, [fp, #-12]
3005b3dc:	e283301a 	add	r3, r3, #26	; 0x1a
3005b3e0:	e24b2024 	sub	r2, fp, #36	; 0x24
3005b3e4:	e1a00003 	mov	r0, r3
3005b3e8:	e1a01002 	mov	r1, r2
3005b3ec:	e3a02004 	mov	r2, #4	; 0x4
3005b3f0:	ebffd797 	bl	30051254 <memcpy>
3005b3f4:	e51b300c 	ldr	r3, [fp, #-12]
3005b3f8:	e283301e 	add	r3, r3, #30	; 0x1e
3005b3fc:	e24b2028 	sub	r2, fp, #40	; 0x28
3005b400:	e1a00003 	mov	r0, r3
3005b404:	e1a01002 	mov	r1, r2
3005b408:	e3a02004 	mov	r2, #4	; 0x4
3005b40c:	ebffd790 	bl	30051254 <memcpy>
3005b410:	e51b200c 	ldr	r2, [fp, #-12]
3005b414:	e3a03000 	mov	r3, #0	; 0x0
3005b418:	e1c231b8 	strh	r3, [r2, #24]
3005b41c:	e51b0008 	ldr	r0, [fp, #-8]
3005b420:	e3a01014 	mov	r1, #20	; 0x14
3005b424:	ebfffe33 	bl	3005acf8 <checksum>
3005b428:	e1a03000 	mov	r3, r0
3005b42c:	e1a02003 	mov	r2, r3
3005b430:	e51b300c 	ldr	r3, [fp, #-12]
3005b434:	e1c321b8 	strh	r2, [r3, #24]
3005b438:	e51b300c 	ldr	r3, [fp, #-12]
3005b43c:	e2833006 	add	r3, r3, #6	; 0x6
3005b440:	e24b201a 	sub	r2, fp, #26	; 0x1a
3005b444:	e1a00003 	mov	r0, r3
3005b448:	e1a01002 	mov	r1, r2
3005b44c:	e3a02006 	mov	r2, #6	; 0x6
3005b450:	ebffd77f 	bl	30051254 <memcpy>
3005b454:	e51b300c 	ldr	r3, [fp, #-12]
3005b458:	e24b2020 	sub	r2, fp, #32	; 0x20
3005b45c:	e1a00003 	mov	r0, r3
3005b460:	e1a01002 	mov	r1, r2
3005b464:	e3a02006 	mov	r2, #6	; 0x6
3005b468:	ebffd779 	bl	30051254 <memcpy>
3005b46c:	e51b200c 	ldr	r2, [fp, #-12]
3005b470:	e3a03008 	mov	r3, #8	; 0x8
3005b474:	e1c230bc 	strh	r3, [r2, #12]
3005b478:	e51b200c 	ldr	r2, [fp, #-12]
3005b47c:	e51b3010 	ldr	r3, [fp, #-16]
3005b480:	e283302a 	add	r3, r3, #42	; 0x2a
3005b484:	e1a00002 	mov	r0, r2
3005b488:	e1a01003 	mov	r1, r3
3005b48c:	ebfff4e9 	bl	30058838 <dm9000_send>
3005b490:	e24bd004 	sub	sp, fp, #4	; 0x4
3005b494:	e8bd4800 	pop	{fp, lr}
3005b498:	e12fff1e 	bx	lr
3005b49c:	30089f38 	.word	0x30089f38
3005b4a0:	3005cf2c 	.word	0x3005cf2c
3005b4a4:	3005cf26 	.word	0x3005cf26
3005b4a8:	3005cf22 	.word	0x3005cf22
3005b4ac:	3005cf1e 	.word	0x3005cf1e

3005b4b0 <tftp_process>:
3005b4b0:	e92d4800 	push	{fp, lr}
3005b4b4:	e28db004 	add	fp, sp, #4	; 0x4
3005b4b8:	e24dd020 	sub	sp, sp, #32	; 0x20
3005b4bc:	e50b0018 	str	r0, [fp, #-24]
3005b4c0:	e50b101c 	str	r1, [fp, #-28]
3005b4c4:	e1a03002 	mov	r3, r2
3005b4c8:	e14b31be 	strh	r3, [fp, #-30]
3005b4cc:	e51b3018 	ldr	r3, [fp, #-24]
3005b4d0:	e283302a 	add	r3, r3, #42	; 0x2a
3005b4d4:	e50b3010 	str	r3, [fp, #-16]
3005b4d8:	e3a03000 	mov	r3, #0	; 0x0
3005b4dc:	e50b300c 	str	r3, [fp, #-12]
3005b4e0:	e51b301c 	ldr	r3, [fp, #-28]
3005b4e4:	e243302a 	sub	r3, r3, #42	; 0x2a
3005b4e8:	e50b3008 	str	r3, [fp, #-8]
3005b4ec:	e51b3010 	ldr	r3, [fp, #-16]
3005b4f0:	e1d330b0 	ldrh	r3, [r3]
3005b4f4:	e1a03403 	lsl	r3, r3, #8
3005b4f8:	e1a02803 	lsl	r2, r3, #16
3005b4fc:	e1a02822 	lsr	r2, r2, #16
3005b500:	e51b3010 	ldr	r3, [fp, #-16]
3005b504:	e1d330b0 	ldrh	r3, [r3]
3005b508:	e1a03423 	lsr	r3, r3, #8
3005b50c:	e1a03803 	lsl	r3, r3, #16
3005b510:	e1a03823 	lsr	r3, r3, #16
3005b514:	e1823003 	orr	r3, r2, r3
3005b518:	e3530003 	cmp	r3, #3	; 0x3
3005b51c:	1a00004f 	bne	3005b660 <tftp_process+0x1b0>
3005b520:	e51b3010 	ldr	r3, [fp, #-16]
3005b524:	e1d330b2 	ldrh	r3, [r3, #2]
3005b528:	e1a03403 	lsl	r3, r3, #8
3005b52c:	e1a02803 	lsl	r2, r3, #16
3005b530:	e1a02822 	lsr	r2, r2, #16
3005b534:	e51b3010 	ldr	r3, [fp, #-16]
3005b538:	e1d330b2 	ldrh	r3, [r3, #2]
3005b53c:	e1a03423 	lsr	r3, r3, #8
3005b540:	e1a03803 	lsl	r3, r3, #16
3005b544:	e1a03823 	lsr	r3, r3, #16
3005b548:	e1822003 	orr	r2, r2, r3
3005b54c:	e59f3118 	ldr	r3, [pc, #280]	; 3005b66c <tftp_process+0x1bc>
3005b550:	e1d330b0 	ldrh	r3, [r3]
3005b554:	e1520003 	cmp	r2, r3
3005b558:	1a000040 	bne	3005b660 <tftp_process+0x1b0>
3005b55c:	e3a03000 	mov	r3, #0	; 0x0
3005b560:	e50b300c 	str	r3, [fp, #-12]
3005b564:	ea00000c 	b	3005b59c <tftp_process+0xec>
3005b568:	e59f3100 	ldr	r3, [pc, #256]	; 3005b670 <tftp_process+0x1c0>
3005b56c:	e5932000 	ldr	r2, [r3]
3005b570:	e51b300c 	ldr	r3, [fp, #-12]
3005b574:	e0821003 	add	r1, r2, r3
3005b578:	e51b3010 	ldr	r3, [fp, #-16]
3005b57c:	e2832004 	add	r2, r3, #4	; 0x4
3005b580:	e51b300c 	ldr	r3, [fp, #-12]
3005b584:	e0823003 	add	r3, r2, r3
3005b588:	e5d33000 	ldrb	r3, [r3]
3005b58c:	e5c13000 	strb	r3, [r1]
3005b590:	e51b300c 	ldr	r3, [fp, #-12]
3005b594:	e2833001 	add	r3, r3, #1	; 0x1
3005b598:	e50b300c 	str	r3, [fp, #-12]
3005b59c:	e51b3008 	ldr	r3, [fp, #-8]
3005b5a0:	e2432008 	sub	r2, r3, #8	; 0x8
3005b5a4:	e51b300c 	ldr	r3, [fp, #-12]
3005b5a8:	e1520003 	cmp	r2, r3
3005b5ac:	8affffed 	bhi	3005b568 <tftp_process+0xb8>
3005b5b0:	e51b3010 	ldr	r3, [fp, #-16]
3005b5b4:	e1d330b2 	ldrh	r3, [r3, #2]
3005b5b8:	e1a03403 	lsl	r3, r3, #8
3005b5bc:	e1a03803 	lsl	r3, r3, #16
3005b5c0:	e1a02823 	lsr	r2, r3, #16
3005b5c4:	e51b3010 	ldr	r3, [fp, #-16]
3005b5c8:	e1d330b2 	ldrh	r3, [r3, #2]
3005b5cc:	e1a03423 	lsr	r3, r3, #8
3005b5d0:	e1a03803 	lsl	r3, r3, #16
3005b5d4:	e1a03823 	lsr	r3, r3, #16
3005b5d8:	e1823003 	orr	r3, r2, r3
3005b5dc:	e1a03803 	lsl	r3, r3, #16
3005b5e0:	e1a03823 	lsr	r3, r3, #16
3005b5e4:	e1a03803 	lsl	r3, r3, #16
3005b5e8:	e1a03823 	lsr	r3, r3, #16
3005b5ec:	e15b21be 	ldrh	r2, [fp, #-30]
3005b5f0:	e1a00003 	mov	r0, r3
3005b5f4:	e1a01002 	mov	r1, r2
3005b5f8:	ebfffedb 	bl	3005b16c <tftp_send_ack>
3005b5fc:	e59f306c 	ldr	r3, [pc, #108]	; 3005b670 <tftp_process+0x1c0>
3005b600:	e5932000 	ldr	r2, [r3]
3005b604:	e51b3008 	ldr	r3, [fp, #-8]
3005b608:	e2433008 	sub	r3, r3, #8	; 0x8
3005b60c:	e0822003 	add	r2, r2, r3
3005b610:	e59f3058 	ldr	r3, [pc, #88]	; 3005b670 <tftp_process+0x1c0>
3005b614:	e5832000 	str	r2, [r3]
3005b618:	e51b3008 	ldr	r3, [fp, #-8]
3005b61c:	e2432008 	sub	r2, r3, #8	; 0x8
3005b620:	e3a03f7f 	mov	r3, #508	; 0x1fc
3005b624:	e2833003 	add	r3, r3, #3	; 0x3
3005b628:	e1520003 	cmp	r2, r3
3005b62c:	8a000004 	bhi	3005b644 <tftp_process+0x194>
3005b630:	e59f303c 	ldr	r3, [pc, #60]	; 3005b674 <tftp_process+0x1c4>
3005b634:	e3a02001 	mov	r2, #1	; 0x1
3005b638:	e5c32000 	strb	r2, [r3]
3005b63c:	e59f0034 	ldr	r0, [pc, #52]	; 3005b678 <tftp_process+0x1c8>
3005b640:	ebffe24d 	bl	30053f7c <print_string>
3005b644:	e59f3020 	ldr	r3, [pc, #32]	; 3005b66c <tftp_process+0x1bc>
3005b648:	e1d330b0 	ldrh	r3, [r3]
3005b64c:	e2833001 	add	r3, r3, #1	; 0x1
3005b650:	e1a03803 	lsl	r3, r3, #16
3005b654:	e1a02823 	lsr	r2, r3, #16
3005b658:	e59f300c 	ldr	r3, [pc, #12]	; 3005b66c <tftp_process+0x1bc>
3005b65c:	e1c320b0 	strh	r2, [r3]
3005b660:	e24bd004 	sub	sp, fp, #4	; 0x4
3005b664:	e8bd4800 	pop	{fp, lr}
3005b668:	e12fff1e 	bx	lr
3005b66c:	3005eda4 	.word	0x3005eda4
3005b670:	3005eda0 	.word	0x3005eda0
3005b674:	30064664 	.word	0x30064664
3005b678:	3005cf34 	.word	0x3005cf34

3005b67c <tftp_test>:
3005b67c:	e92d4800 	push	{fp, lr}
3005b680:	e28db004 	add	fp, sp, #4	; 0x4
3005b684:	e24dd010 	sub	sp, sp, #16	; 0x10
3005b688:	e50b0010 	str	r0, [fp, #-16]
3005b68c:	e50b1014 	str	r1, [fp, #-20]
3005b690:	e3a03000 	mov	r3, #0	; 0x0
3005b694:	e50b3008 	str	r3, [fp, #-8]
3005b698:	e59f205c 	ldr	r2, [pc, #92]	; 3005b6fc <tftp_test+0x80>
3005b69c:	e3a03000 	mov	r3, #0	; 0x0
3005b6a0:	e5c23000 	strb	r3, [r2]
3005b6a4:	ebfff3b3 	bl	30058578 <dm9000_init>
3005b6a8:	e3a00f7d 	mov	r0, #500	; 0x1f4
3005b6ac:	ebffd614 	bl	30050f04 <delay>
3005b6b0:	e59f0048 	ldr	r0, [pc, #72]	; 3005b700 <tftp_test+0x84>
3005b6b4:	ebfffdc7 	bl	3005add8 <tftp_send_request>
3005b6b8:	e3a00064 	mov	r0, #100	; 0x64
3005b6bc:	ebffd610 	bl	30050f04 <delay>
3005b6c0:	e3a00a7a 	mov	r0, #499712	; 0x7a000
3005b6c4:	e2800e12 	add	r0, r0, #288	; 0x120
3005b6c8:	ebffd60d 	bl	30050f04 <delay>
3005b6cc:	e59f0030 	ldr	r0, [pc, #48]	; 3005b704 <tftp_test+0x88>
3005b6d0:	ebffe57b 	bl	30054cc4 <printf_string>
3005b6d4:	e59f3020 	ldr	r3, [pc, #32]	; 3005b6fc <tftp_test+0x80>
3005b6d8:	e5d33000 	ldrb	r3, [r3]
3005b6dc:	e3530000 	cmp	r3, #0	; 0x0
3005b6e0:	0afffff6 	beq	3005b6c0 <tftp_test+0x44>
3005b6e4:	ebfff2ec 	bl	3005829c <dm9000_int_clear>
3005b6e8:	e51b3008 	ldr	r3, [fp, #-8]
3005b6ec:	e1a00003 	mov	r0, r3
3005b6f0:	e24bd004 	sub	sp, fp, #4	; 0x4
3005b6f4:	e8bd4800 	pop	{fp, lr}
3005b6f8:	e12fff1e 	bx	lr
3005b6fc:	30064664 	.word	0x30064664
3005b700:	3005cf3c 	.word	0x3005cf3c
3005b704:	3005cf44 	.word	0x3005cf44

3005b708 <udp_process>:
3005b708:	e92d4800 	push	{fp, lr}
3005b70c:	e28db004 	add	fp, sp, #4	; 0x4
3005b710:	e24dd010 	sub	sp, sp, #16	; 0x10
3005b714:	e50b0010 	str	r0, [fp, #-16]
3005b718:	e50b1014 	str	r1, [fp, #-20]
3005b71c:	e51b3010 	ldr	r3, [fp, #-16]
3005b720:	e50b3008 	str	r3, [fp, #-8]
3005b724:	e51b3008 	ldr	r3, [fp, #-8]
3005b728:	e1d332b2 	ldrh	r3, [r3, #34]
3005b72c:	e1a03403 	lsl	r3, r3, #8
3005b730:	e1a02803 	lsl	r2, r3, #16
3005b734:	e1a02822 	lsr	r2, r2, #16
3005b738:	e51b3008 	ldr	r3, [fp, #-8]
3005b73c:	e1d332b2 	ldrh	r3, [r3, #34]
3005b740:	e1a03423 	lsr	r3, r3, #8
3005b744:	e1a03803 	lsl	r3, r3, #16
3005b748:	e1a03823 	lsr	r3, r3, #16
3005b74c:	e1823003 	orr	r3, r2, r3
3005b750:	e51b0010 	ldr	r0, [fp, #-16]
3005b754:	e51b1014 	ldr	r1, [fp, #-20]
3005b758:	e1a02003 	mov	r2, r3
3005b75c:	ebffff53 	bl	3005b4b0 <tftp_process>
3005b760:	e24bd004 	sub	sp, fp, #4	; 0x4
3005b764:	e8bd4800 	pop	{fp, lr}
3005b768:	e12fff1e 	bx	lr

3005b76c <ip_process>:
3005b76c:	e92d4800 	push	{fp, lr}
3005b770:	e28db004 	add	fp, sp, #4	; 0x4
3005b774:	e24dd010 	sub	sp, sp, #16	; 0x10
3005b778:	e50b0010 	str	r0, [fp, #-16]
3005b77c:	e50b1014 	str	r1, [fp, #-20]
3005b780:	e51b3010 	ldr	r3, [fp, #-16]
3005b784:	e50b3008 	str	r3, [fp, #-8]
3005b788:	e51b3008 	ldr	r3, [fp, #-8]
3005b78c:	e5d33017 	ldrb	r3, [r3, #23]
3005b790:	e3530011 	cmp	r3, #17	; 0x11
3005b794:	1a000002 	bne	3005b7a4 <ip_process+0x38>
3005b798:	e51b0010 	ldr	r0, [fp, #-16]
3005b79c:	e51b1014 	ldr	r1, [fp, #-20]
3005b7a0:	ebffffd8 	bl	3005b708 <udp_process>
3005b7a4:	e24bd004 	sub	sp, fp, #4	; 0x4
3005b7a8:	e8bd4800 	pop	{fp, lr}
3005b7ac:	e12fff1e 	bx	lr

3005b7b0 <net_handle>:
3005b7b0:	e92d4800 	push	{fp, lr}
3005b7b4:	e28db004 	add	fp, sp, #4	; 0x4
3005b7b8:	e24dd018 	sub	sp, sp, #24	; 0x18
3005b7bc:	e50b0010 	str	r0, [fp, #-16]
3005b7c0:	e50b1014 	str	r1, [fp, #-20]
3005b7c4:	e51b3010 	ldr	r3, [fp, #-16]
3005b7c8:	e50b3008 	str	r3, [fp, #-8]
3005b7cc:	e51b3008 	ldr	r3, [fp, #-8]
3005b7d0:	e1d330bc 	ldrh	r3, [r3, #12]
3005b7d4:	e1a03403 	lsl	r3, r3, #8
3005b7d8:	e1a02803 	lsl	r2, r3, #16
3005b7dc:	e1a02822 	lsr	r2, r2, #16
3005b7e0:	e51b3008 	ldr	r3, [fp, #-8]
3005b7e4:	e1d330bc 	ldrh	r3, [r3, #12]
3005b7e8:	e1a03423 	lsr	r3, r3, #8
3005b7ec:	e1a03803 	lsl	r3, r3, #16
3005b7f0:	e1a03823 	lsr	r3, r3, #16
3005b7f4:	e1822003 	orr	r2, r2, r3
3005b7f8:	e50b2018 	str	r2, [fp, #-24]
3005b7fc:	e51b2018 	ldr	r2, [fp, #-24]
3005b800:	e3520b02 	cmp	r2, #2048	; 0x800
3005b804:	0a000008 	beq	3005b82c <net_handle+0x7c>
3005b808:	e3a03b02 	mov	r3, #2048	; 0x800
3005b80c:	e2833006 	add	r3, r3, #6	; 0x6
3005b810:	e51b2018 	ldr	r2, [fp, #-24]
3005b814:	e1520003 	cmp	r2, r3
3005b818:	1a000006 	bne	3005b838 <net_handle+0x88>
3005b81c:	e51b0010 	ldr	r0, [fp, #-16]
3005b820:	e51b1014 	ldr	r1, [fp, #-20]
3005b824:	ebfffc5a 	bl	3005a994 <arp_process>
3005b828:	ea000002 	b	3005b838 <net_handle+0x88>
3005b82c:	e51b0010 	ldr	r0, [fp, #-16]
3005b830:	e51b1014 	ldr	r1, [fp, #-20]
3005b834:	ebffffcc 	bl	3005b76c <ip_process>
3005b838:	e3a03000 	mov	r3, #0	; 0x0
3005b83c:	e1a00003 	mov	r0, r3
3005b840:	e24bd004 	sub	sp, fp, #4	; 0x4
3005b844:	e8bd4800 	pop	{fp, lr}
3005b848:	e12fff1e 	bx	lr

3005b84c <__aeabi_uidiv>:
3005b84c:	e2512001 	subs	r2, r1, #1	; 0x1
3005b850:	012fff1e 	bxeq	lr
3005b854:	3a000036 	bcc	3005b934 <__aeabi_uidiv+0xe8>
3005b858:	e1500001 	cmp	r0, r1
3005b85c:	9a000022 	bls	3005b8ec <__aeabi_uidiv+0xa0>
3005b860:	e1110002 	tst	r1, r2
3005b864:	0a000023 	beq	3005b8f8 <__aeabi_uidiv+0xac>
3005b868:	e311020e 	tst	r1, #-536870912	; 0xe0000000
3005b86c:	01a01181 	lsleq	r1, r1, #3
3005b870:	03a03008 	moveq	r3, #8	; 0x8
3005b874:	13a03001 	movne	r3, #1	; 0x1
3005b878:	e3510201 	cmp	r1, #268435456	; 0x10000000
3005b87c:	31510000 	cmpcc	r1, r0
3005b880:	31a01201 	lslcc	r1, r1, #4
3005b884:	31a03203 	lslcc	r3, r3, #4
3005b888:	3afffffa 	bcc	3005b878 <__aeabi_uidiv+0x2c>
3005b88c:	e3510102 	cmp	r1, #-2147483648	; 0x80000000
3005b890:	31510000 	cmpcc	r1, r0
3005b894:	31a01081 	lslcc	r1, r1, #1
3005b898:	31a03083 	lslcc	r3, r3, #1
3005b89c:	3afffffa 	bcc	3005b88c <__aeabi_uidiv+0x40>
3005b8a0:	e3a02000 	mov	r2, #0	; 0x0
3005b8a4:	e1500001 	cmp	r0, r1
3005b8a8:	20400001 	subcs	r0, r0, r1
3005b8ac:	21822003 	orrcs	r2, r2, r3
3005b8b0:	e15000a1 	cmp	r0, r1, lsr #1
3005b8b4:	204000a1 	subcs	r0, r0, r1, lsr #1
3005b8b8:	218220a3 	orrcs	r2, r2, r3, lsr #1
3005b8bc:	e1500121 	cmp	r0, r1, lsr #2
3005b8c0:	20400121 	subcs	r0, r0, r1, lsr #2
3005b8c4:	21822123 	orrcs	r2, r2, r3, lsr #2
3005b8c8:	e15001a1 	cmp	r0, r1, lsr #3
3005b8cc:	204001a1 	subcs	r0, r0, r1, lsr #3
3005b8d0:	218221a3 	orrcs	r2, r2, r3, lsr #3
3005b8d4:	e3500000 	cmp	r0, #0	; 0x0
3005b8d8:	11b03223 	lsrsne	r3, r3, #4
3005b8dc:	11a01221 	lsrne	r1, r1, #4
3005b8e0:	1affffef 	bne	3005b8a4 <__aeabi_uidiv+0x58>
3005b8e4:	e1a00002 	mov	r0, r2
3005b8e8:	e12fff1e 	bx	lr
3005b8ec:	03a00001 	moveq	r0, #1	; 0x1
3005b8f0:	13a00000 	movne	r0, #0	; 0x0
3005b8f4:	e12fff1e 	bx	lr
3005b8f8:	e3510801 	cmp	r1, #65536	; 0x10000
3005b8fc:	21a01821 	lsrcs	r1, r1, #16
3005b900:	23a02010 	movcs	r2, #16	; 0x10
3005b904:	33a02000 	movcc	r2, #0	; 0x0
3005b908:	e3510c01 	cmp	r1, #256	; 0x100
3005b90c:	21a01421 	lsrcs	r1, r1, #8
3005b910:	22822008 	addcs	r2, r2, #8	; 0x8
3005b914:	e3510010 	cmp	r1, #16	; 0x10
3005b918:	21a01221 	lsrcs	r1, r1, #4
3005b91c:	22822004 	addcs	r2, r2, #4	; 0x4
3005b920:	e3510004 	cmp	r1, #4	; 0x4
3005b924:	82822003 	addhi	r2, r2, #3	; 0x3
3005b928:	908220a1 	addls	r2, r2, r1, lsr #1
3005b92c:	e1a00230 	lsr	r0, r0, r2
3005b930:	e12fff1e 	bx	lr
3005b934:	e3500000 	cmp	r0, #0	; 0x0
3005b938:	13e00000 	mvnne	r0, #0	; 0x0
3005b93c:	ea000059 	b	3005baa8 <__aeabi_idiv0>

3005b940 <__aeabi_uidivmod>:
3005b940:	e3510000 	cmp	r1, #0	; 0x0
3005b944:	0afffffa 	beq	3005b934 <__aeabi_uidiv+0xe8>
3005b948:	e92d4003 	push	{r0, r1, lr}
3005b94c:	ebffffbe 	bl	3005b84c <__aeabi_uidiv>
3005b950:	e8bd4006 	pop	{r1, r2, lr}
3005b954:	e0030092 	mul	r3, r2, r0
3005b958:	e0411003 	sub	r1, r1, r3
3005b95c:	e12fff1e 	bx	lr

3005b960 <__aeabi_idiv>:
3005b960:	e3510000 	cmp	r1, #0	; 0x0
3005b964:	0a000043 	beq	3005ba78 <.divsi3_nodiv0+0x110>

3005b968 <.divsi3_nodiv0>:
3005b968:	e020c001 	eor	ip, r0, r1
3005b96c:	42611000 	rsbmi	r1, r1, #0	; 0x0
3005b970:	e2512001 	subs	r2, r1, #1	; 0x1
3005b974:	0a000027 	beq	3005ba18 <.divsi3_nodiv0+0xb0>
3005b978:	e1b03000 	movs	r3, r0
3005b97c:	42603000 	rsbmi	r3, r0, #0	; 0x0
3005b980:	e1530001 	cmp	r3, r1
3005b984:	9a000026 	bls	3005ba24 <.divsi3_nodiv0+0xbc>
3005b988:	e1110002 	tst	r1, r2
3005b98c:	0a000028 	beq	3005ba34 <.divsi3_nodiv0+0xcc>
3005b990:	e311020e 	tst	r1, #-536870912	; 0xe0000000
3005b994:	01a01181 	lsleq	r1, r1, #3
3005b998:	03a02008 	moveq	r2, #8	; 0x8
3005b99c:	13a02001 	movne	r2, #1	; 0x1
3005b9a0:	e3510201 	cmp	r1, #268435456	; 0x10000000
3005b9a4:	31510003 	cmpcc	r1, r3
3005b9a8:	31a01201 	lslcc	r1, r1, #4
3005b9ac:	31a02202 	lslcc	r2, r2, #4
3005b9b0:	3afffffa 	bcc	3005b9a0 <.divsi3_nodiv0+0x38>
3005b9b4:	e3510102 	cmp	r1, #-2147483648	; 0x80000000
3005b9b8:	31510003 	cmpcc	r1, r3
3005b9bc:	31a01081 	lslcc	r1, r1, #1
3005b9c0:	31a02082 	lslcc	r2, r2, #1
3005b9c4:	3afffffa 	bcc	3005b9b4 <.divsi3_nodiv0+0x4c>
3005b9c8:	e3a00000 	mov	r0, #0	; 0x0
3005b9cc:	e1530001 	cmp	r3, r1
3005b9d0:	20433001 	subcs	r3, r3, r1
3005b9d4:	21800002 	orrcs	r0, r0, r2
3005b9d8:	e15300a1 	cmp	r3, r1, lsr #1
3005b9dc:	204330a1 	subcs	r3, r3, r1, lsr #1
3005b9e0:	218000a2 	orrcs	r0, r0, r2, lsr #1
3005b9e4:	e1530121 	cmp	r3, r1, lsr #2
3005b9e8:	20433121 	subcs	r3, r3, r1, lsr #2
3005b9ec:	21800122 	orrcs	r0, r0, r2, lsr #2
3005b9f0:	e15301a1 	cmp	r3, r1, lsr #3
3005b9f4:	204331a1 	subcs	r3, r3, r1, lsr #3
3005b9f8:	218001a2 	orrcs	r0, r0, r2, lsr #3
3005b9fc:	e3530000 	cmp	r3, #0	; 0x0
3005ba00:	11b02222 	lsrsne	r2, r2, #4
3005ba04:	11a01221 	lsrne	r1, r1, #4
3005ba08:	1affffef 	bne	3005b9cc <.divsi3_nodiv0+0x64>
3005ba0c:	e35c0000 	cmp	ip, #0	; 0x0
3005ba10:	42600000 	rsbmi	r0, r0, #0	; 0x0
3005ba14:	e12fff1e 	bx	lr
3005ba18:	e13c0000 	teq	ip, r0
3005ba1c:	42600000 	rsbmi	r0, r0, #0	; 0x0
3005ba20:	e12fff1e 	bx	lr
3005ba24:	33a00000 	movcc	r0, #0	; 0x0
3005ba28:	01a00fcc 	asreq	r0, ip, #31
3005ba2c:	03800001 	orreq	r0, r0, #1	; 0x1
3005ba30:	e12fff1e 	bx	lr
3005ba34:	e3510801 	cmp	r1, #65536	; 0x10000
3005ba38:	21a01821 	lsrcs	r1, r1, #16
3005ba3c:	23a02010 	movcs	r2, #16	; 0x10
3005ba40:	33a02000 	movcc	r2, #0	; 0x0
3005ba44:	e3510c01 	cmp	r1, #256	; 0x100
3005ba48:	21a01421 	lsrcs	r1, r1, #8
3005ba4c:	22822008 	addcs	r2, r2, #8	; 0x8
3005ba50:	e3510010 	cmp	r1, #16	; 0x10
3005ba54:	21a01221 	lsrcs	r1, r1, #4
3005ba58:	22822004 	addcs	r2, r2, #4	; 0x4
3005ba5c:	e3510004 	cmp	r1, #4	; 0x4
3005ba60:	82822003 	addhi	r2, r2, #3	; 0x3
3005ba64:	908220a1 	addls	r2, r2, r1, lsr #1
3005ba68:	e35c0000 	cmp	ip, #0	; 0x0
3005ba6c:	e1a00233 	lsr	r0, r3, r2
3005ba70:	42600000 	rsbmi	r0, r0, #0	; 0x0
3005ba74:	e12fff1e 	bx	lr
3005ba78:	e3500000 	cmp	r0, #0	; 0x0
3005ba7c:	c3e00102 	mvngt	r0, #-2147483648	; 0x80000000
3005ba80:	b3a00102 	movlt	r0, #-2147483648	; 0x80000000
3005ba84:	ea000007 	b	3005baa8 <__aeabi_idiv0>

3005ba88 <__aeabi_idivmod>:
3005ba88:	e3510000 	cmp	r1, #0	; 0x0
3005ba8c:	0afffff9 	beq	3005ba78 <.divsi3_nodiv0+0x110>
3005ba90:	e92d4003 	push	{r0, r1, lr}
3005ba94:	ebffffb3 	bl	3005b968 <.divsi3_nodiv0>
3005ba98:	e8bd4006 	pop	{r1, r2, lr}
3005ba9c:	e0030092 	mul	r3, r2, r0
3005baa0:	e0411003 	sub	r1, r1, r3
3005baa4:	e12fff1e 	bx	lr

3005baa8 <__aeabi_idiv0>:
3005baa8:	e92d4002 	push	{r1, lr}
3005baac:	e3a00008 	mov	r0, #8	; 0x8
3005bab0:	ebffd1d0 	bl	300501f8 <raise>
3005bab4:	e8bd4002 	pop	{r1, lr}
3005bab8:	e12fff1e 	bx	lr
Disassembly of section .rodata:

3005babc <C.3.1348-0x13f4>:
3005babc:	2d2d2d0a 	stccs	13, cr2, [sp, #-40]!
3005bac0:	2d2d2d2d 	stccs	13, cr2, [sp, #-180]!
3005bac4:	2d2d2d2d 	stccs	13, cr2, [sp, #-180]!
3005bac8:	2d2d2d2d 	stccs	13, cr2, [sp, #-180]!
3005bacc:	694d202d 	stmdbvs	sp, {r0, r2, r3, r5, sp}^
3005bad0:	3432696e 	ldrtcc	r6, [r2], #-2414
3005bad4:	44203034 	strtmi	r3, [r0], #-52
3005bad8:	73676169 	cmnvc	r7, #1073741850	; 0x4000001a
3005badc:	2d2d2d20 	stccs	13, cr2, [sp, #-128]!
3005bae0:	2d2d2d2d 	stccs	13, cr2, [sp, #-180]!
3005bae4:	2d2d2d2d 	stccs	13, cr2, [sp, #-180]!
3005bae8:	2d2d2d2d 	stccs	13, cr2, [sp, #-180]!
3005baec:	00000a2d 	andeq	r0, r0, sp, lsr #20
3005baf0:	5f737362 	svcpl	0x00737362
3005baf4:	72617473 	.word	0x72617473
3005baf8:	203d2074 	eorscs	r2, sp, r4, ror r0
3005bafc:	78257830 	stmdavc	r5!, {r4, r5, fp, ip, sp, lr}
3005bb00:	0000000a 	.word	0x0000000a
3005bb04:	5f737362 	svcpl	0x00737362
3005bb08:	20646e65 	rsbcs	r6, r4, r5, ror #28
3005bb0c:	7830203d 	.word	0x7830203d
3005bb10:	000a7825 	andeq	r7, sl, r5, lsr #16
3005bb14:	20292d3a 	eorcs	r2, r9, sl, lsr sp
3005bb18:	00000000 	.word	0x00000000
3005bb1c:	00726576 	rsbseq	r6, r2, r6, ror r5
3005bb20:	67616944 	strbvs	r6, [r1, -r4, asr #18]!
3005bb24:	65562073 	ldrbvs	r2, [r6, #-115]
3005bb28:	6f697372 	.word	0x6f697372
3005bb2c:	0000006e 	andeq	r0, r0, lr, rrx
3005bb30:	00006e73 	andeq	r6, r0, r3, ror lr
3005bb34:	67616944 	.word	0x67616944
3005bb38:	6e532073 	mrcvs	0, 2, r2, cr3, cr3, {3}
3005bb3c:	00000000 	andeq	r0, r0, r0
3005bb40:	0064656c 	.word	0x0064656c
3005bb44:	2064654c 	rsbcs	r6, r4, ip, asr #10
3005bb48:	74736554 	ldrbtvc	r6, [r3], #-1364
3005bb4c:	00000000 	.word	0x00000000
3005bb50:	646e616e 	strbtvs	r6, [lr], #-366
3005bb54:	00000000 	andeq	r0, r0, r0
3005bb58:	646e614e 	.word	0x646e614e
3005bb5c:	73657420 	cmnvc	r5, #536870912	; 0x20000000
3005bb60:	2d090a74 	fstscs	s0, [r9, #-464]
3005bb64:	203a2072 	.word	0x203a2072
3005bb68:	64616552 	strbtvs	r6, [r1], #-1362
3005bb6c:	70206120 	eorvc	r6, r0, r0, lsr #2
3005bb70:	2e656761 	cdpcs	7, 6, cr6, cr5, cr1, {3}
3005bb74:	6e616e20 	cdpvs	14, 6, cr6, cr1, cr0, {1}
3005bb78:	722d2064 	eorvc	r2, sp, #100	; 0x64
3005bb7c:	67617020 	.word	0x67617020
3005bb80:	64644165 	strbtvs	r4, [r4], #-357
3005bb84:	73736572 	cmnvc	r3, #478150656	; 0x1c800000
3005bb88:	78656828 	.word	0x78656828
3005bb8c:	2d090a29 	fstscs	s0, [r9, #-164]
3005bb90:	203a2070 	eorscs	r2, sl, r0, ror r0
3005bb94:	74697257 	.word	0x74697257
3005bb98:	20612065 	rsbcs	r2, r1, r5, rrx
3005bb9c:	65676170 	strbvs	r6, [r7, #-368]!
3005bba0:	616e202e 	.word	0x616e202e
3005bba4:	2d20646e 	cfstrscs	mvf6, [r0, #-440]!
3005bba8:	61702070 	cmnvs	r0, r0, ror r0
3005bbac:	64416567 	.word	0x64416567
3005bbb0:	73657264 	cmnvc	r5, #1073741830	; 0x40000006
3005bbb4:	65682873 	.word	0x65682873
3005bbb8:	76202978 	undefined
3005bbbc:	65756c61 	ldrbvs	r6, [r5, #-3169]!
3005bbc0:	78656828 	.word	0x78656828
3005bbc4:	2d090a29 	fstscs	s0, [r9, #-164]
3005bbc8:	203a2065 	.word	0x203a2065
3005bbcc:	73617245 	cmnvc	r1, #1342177284	; 0x50000004
3005bbd0:	20612065 	rsbcs	r2, r1, r5, rrx
3005bbd4:	636f6c62 	.word	0x636f6c62
3005bbd8:	6e202e6b 	cdpvs	14, 2, cr2, cr0, cr11, {3}
3005bbdc:	20646e61 	.word	0x20646e61
3005bbe0:	7020652d 	eorvc	r6, r0, sp, lsr #10
3005bbe4:	41656761 	cmnmi	r5, r1, ror #14
3005bbe8:	65726464 	.word	0x65726464
3005bbec:	68287373 	stmdavs	r8!, {r0, r1, r4, r5, r6, r8, r9, ip, sp, lr}
3005bbf0:	0a297865 	.word	0x0a297865
3005bbf4:	20742d09 	rsbscs	r2, r4, r9, lsl #26
3005bbf8:	6152203a 	cmpvs	r2, sl, lsr r0
3005bbfc:	6d6f646e 	cfstrdvs	mvd6, [pc, #-440]!
3005bc00:	61657220 	.word	0x61657220
3005bc04:	6e202e64 	cdpvs	14, 2, cr2, cr0, cr4, {3}
3005bc08:	20646e61 	.word	0x20646e61
3005bc0c:	6120742d 	teqvs	r0, sp, lsr #8
3005bc10:	65726464 	ldrbvs	r6, [r2, #-1124]!
3005bc14:	68287373 	.word	0x68287373
3005bc18:	0a297865 	beq	30ab9db4 <bss_end+0xa2fb44>
3005bc1c:	20612d09 	rsbcs	r2, r1, r9, lsl #26
3005bc20:	6152203a 	cmpvs	r2, sl, lsr r0
3005bc24:	6d6f646e 	.word	0x6d6f646e
3005bc28:	69727720 	ldmdbvs	r2!, {r5, r8, r9, sl, ip, sp, lr}^
3005bc2c:	202e6574 	eorcs	r6, lr, r4, ror r5
3005bc30:	646e616e 	.word	0x646e616e
3005bc34:	20612d20 	rsbcs	r2, r1, r0, lsr #26
3005bc38:	72646461 	rsbvc	r6, r4, #1627389952	; 0x61000000
3005bc3c:	28737365 	ldmdacs	r3!, {r0, r2, r5, r6, r8, r9, ip, sp, lr}^
3005bc40:	29786568 	ldmdbcs	r8!, {r3, r5, r6, r8, sl, sp, lr}^
3005bc44:	6c617620 	stclvs	6, cr7, [r1], #-128
3005bc48:	68286575 	stmdavs	r8!, {r0, r2, r4, r5, r6, r8, sl, sp, lr}
3005bc4c:	0a297865 	.word	0x0a297865
3005bc50:	20692d09 	rsbcs	r2, r9, r9, lsl #26
3005bc54:	6552203a 	ldrbvs	r2, [r2, #-58]
3005bc58:	6e206461 	cdpvs	4, 2, cr6, cr0, cr1, {3}
3005bc5c:	20646e61 	.word	0x20646e61
3005bc60:	202e4449 	eorcs	r4, lr, r9, asr #8
3005bc64:	646e616e 	strbtvs	r6, [lr], #-366
3005bc68:	0a692d20 	.word	0x0a692d20
3005bc6c:	20632d09 	rsbcs	r2, r3, r9, lsl #26
3005bc70:	6142203a 	cmpvs	r2, sl, lsr r0
3005bc74:	6c622064 	.word	0x6c622064
3005bc78:	206b636f 	rsbcs	r6, fp, pc, ror #6
3005bc7c:	63656863 	cmnvs	r5, #6488064	; 0x630000
3005bc80:	6e202e6b 	.word	0x6e202e6b
3005bc84:	20646e61 	rsbcs	r6, r4, r1, ror #28
3005bc88:	0009632d 	andeq	r6, r9, sp, lsr #6
3005bc8c:	0064636c 	.word	0x0064636c
3005bc90:	2064634c 	rsbcs	r6, r4, ip, asr #6
3005bc94:	74736554 	ldrbtvc	r6, [r3], #-1364
3005bc98:	00000000 	andeq	r0, r0, r0
3005bc9c:	30396d64 	eorscc	r6, r9, r4, ror #26
3005bca0:	00003030 	.word	0x00003030
3005bca4:	30394d44 	eorscc	r4, r9, r4, asr #26
3005bca8:	54203030 	.word	0x54203030
3005bcac:	00747365 	rsbseq	r7, r4, r5, ror #6
3005bcb0:	00707261 	rsbseq	r7, r0, r1, ror #4
3005bcb4:	20707241 	.word	0x20707241
3005bcb8:	74736554 	ldrbtvc	r6, [r3], #-1364
3005bcbc:	00000000 	andeq	r0, r0, r0
3005bcc0:	70746674 	.word	0x70746674
3005bcc4:	00000000 	andeq	r0, r0, r0
3005bcc8:	70746654 	rsbsvc	r6, r4, r4, asr r6
3005bccc:	73655420 	.word	0x73655420
3005bcd0:	00000074 	andeq	r0, r0, r4, ror r0
3005bcd4:	746f6f62 	strbtvc	r6, [pc], #3938	; 3005bcdc <__aeabi_idiv0+0x234>
3005bcd8:	0000006d 	.word	0x0000006d
3005bcdc:	746f6f42 	strbtvc	r6, [pc], #3906	; 3005bce4 <__aeabi_idiv0+0x23c>
3005bce0:	6e694c20 	cdpvs	12, 6, cr4, cr9, cr0, {1}
3005bce4:	6b207875 	blvs	30879ec0 <bss_end+0x7efc50>
3005bce8:	656e7265 	strbvs	r7, [lr, #-613]!
3005bcec:	0000006c 	andeq	r0, r0, ip, rrx
3005bcf0:	74747562 	ldrbtvc	r7, [r4], #-1378
3005bcf4:	00006e6f 	andeq	r6, r0, pc, ror #28
3005bcf8:	74747542 	.word	0x74747542
3005bcfc:	54206e6f 	strtpl	r6, [r0], #-3695
3005bd00:	00747365 	rsbseq	r7, r4, r5, ror #6
3005bd04:	00633269 	.word	0x00633269
3005bd08:	20633249 	rsbcs	r3, r3, r9, asr #4
3005bd0c:	74736554 	ldrbtvc	r6, [r3], #-1364
3005bd10:	00000000 	andeq	r0, r0, r0
3005bd14:	00616d64 	rsbeq	r6, r1, r4, ror #26
3005bd18:	20616d44 	rsbcs	r6, r1, r4, asr #26
3005bd1c:	74736554 	ldrbtvc	r6, [r3], #-1364
3005bd20:	00676e69 	rsbeq	r6, r7, r9, ror #28
3005bd24:	74736574 	.word	0x74736574
3005bd28:	00000000 	andeq	r0, r0, r0
3005bd2c:	20726f46 	rsbscs	r6, r2, r6, asr #30
3005bd30:	74736554 	ldrbtvc	r6, [r3], #-1364
3005bd34:	00676e69 	.word	0x00676e69
3005bd38:	656d6974 	strbvs	r6, [sp, #-2420]!
3005bd3c:	00000072 	andeq	r0, r0, r2, ror r0
3005bd40:	656d6954 	.word	0x656d6954
3005bd44:	65542072 	ldrbvs	r2, [r4, #-114]
3005bd48:	6e697473 	mcrvs	4, 3, r7, cr9, cr3, {3}
3005bd4c:	00000067 	.word	0x00000067
3005bd50:	65736572 	ldrbvs	r6, [r3, #-1394]!
3005bd54:	00000074 	andeq	r0, r0, r4, ror r0
3005bd58:	74737953 	.word	0x74737953
3005bd5c:	72206d65 	eorvc	r6, r0, #6464	; 0x1940
3005bd60:	74657365 	strbtvc	r7, [r5], #-869
3005bd64:	00000000 	.word	0x00000000
3005bd68:	706c6568 	rsbvc	r6, ip, r8, ror #10
3005bd6c:	00000000 	andeq	r0, r0, r0
3005bd70:	706c6548 	.word	0x706c6548
3005bd74:	73654d20 	cmnvc	r5, #2048	; 0x800
3005bd78:	65676173 	strbvs	r6, [r7, #-371]!
3005bd7c:	00000000 	.word	0x00000000
3005bd80:	3a726556 	bcc	31cf52e0 <bss_end+0x1c6b070>
3005bd84:	31303220 	teqcc	r0, r0, lsr #4
3005bd88:	32333037 	.word	0x32333037
3005bd8c:	00000a32 	andeq	r0, r0, r2, lsr sl
3005bd90:	203a4e53 	eorscs	r4, sl, r3, asr lr
3005bd94:	48393343 	.word	0x48393343
3005bd98:	30474647 	subcc	r4, r7, r7, asr #12
3005bd9c:	0a464630 	beq	311ed664 <bss_end+0x11633f4>
3005bda0:	00000000 	.word	0x00000000
3005bda4:	0009093a 	andeq	r0, r9, sl, lsr r9
3005bda8:	0000000a 	andeq	r0, r0, sl
3005bdac:	0000093a 	andeq	r0, r0, sl, lsr r9
3005bdb0:	6e696f6e 	cdpvs	15, 6, cr6, cr9, cr14, {3}
3005bdb4:	64727469 	.word	0x64727469
3005bdb8:	6f6f7220 	svcvs	0x006f7220
3005bdbc:	642f3d74 	strtvs	r3, [pc], #3444	; 3005bdc4 <__aeabi_idiv0+0x31c>
3005bdc0:	6e2f7665 	.word	0x6e2f7665
3005bdc4:	72207366 	eorvc	r7, r0, #-1744830463	; 0x98000001
3005bdc8:	666e2077 	undefined
3005bdcc:	6f6f7273 	.word	0x6f6f7273
3005bdd0:	39313d74 	ldmdbcc	r1!, {r2, r4, r5, r6, r8, sl, fp, ip, sp}
3005bdd4:	36312e32 	undefined
3005bdd8:	2e312e38 	.word	0x2e312e38
3005bddc:	3a343031 	bcc	30d67ea8 <bss_end+0xcddc38>
3005bde0:	73666e2f 	cmnvc	r6, #752	; 0x2f0
3005bde4:	746f6f72 	.word	0x746f6f72
3005bde8:	6f6f722f 	svcvs	0x006f722f
3005bdec:	20736674 	rsbscs	r6, r3, r4, ror r6
3005bdf0:	313d7069 	.word	0x313d7069
3005bdf4:	312e3239 	teqcc	lr, r9, lsr r2
3005bdf8:	312e3836 	teqcc	lr, r6, lsr r8
3005bdfc:	3a39392e 	.word	0x3a39392e
3005be00:	2e323931 	mrccs	9, 1, r3, cr2, cr1, {1}
3005be04:	2e383631 	mrccs	6, 1, r3, cr8, cr1, {1}
3005be08:	30312e31 	.word	0x30312e31
3005be0c:	323a3a34 	eorscc	r3, sl, #212992	; 0x34000
3005be10:	322e3535 	eorcc	r3, lr, #222298112	; 0xd400000
3005be14:	322e3535 	eorcc	r3, lr, #222298112	; 0xd400000
3005be18:	302e3535 	eorcc	r3, lr, r5, lsr r5
3005be1c:	6e6f6320 	.word	0x6e6f6320
3005be20:	656c6f73 	strbvs	r6, [ip, #-3955]!
3005be24:	7974743d 	ldmdbvc	r4!, {r0, r2, r3, r4, r5, sl, ip, sp, lr}^
3005be28:	30434153 	subcc	r4, r3, r3, asr r1
3005be2c:	3531312c 	.word	0x3531312c
3005be30:	20303032 	eorscs	r3, r0, r2, lsr r0
3005be34:	74696e69 	.word	0x74696e69
3005be38:	696c2f3d 	stmdbvs	ip!, {r0, r2, r3, r4, r5, r8, r9, sl, fp, sp}^
3005be3c:	7278756e 	rsbsvc	r7, r8, #461373440	; 0x1b800000
3005be40:	656d2063 	strbvs	r2, [sp, #-99]!
3005be44:	34363d6d 	.word	0x34363d6d
3005be48:	0000004d 	andeq	r0, r0, sp, asr #32
3005be4c:	63637553 	cmnvs	r3, #348127232	; 0x14c00000
3005be50:	0a737365 	.word	0x0a737365
3005be54:	00000000 	andeq	r0, r0, r0
3005be58:	61766e49 	cmnvs	r6, r9, asr #28
3005be5c:	2064696c 	.word	0x2064696c
3005be60:	61726170 	cmnvs	r2, r0, ror r1
3005be64:	6574656d 	ldrbvs	r6, [r4, #-1389]!
3005be68:	00000a72 	.word	0x00000a72
3005be6c:	6568744f 	strbvs	r7, [r8, #-1103]!
3005be70:	72652072 	rsbvc	r2, r5, #114	; 0x72
3005be74:	0a726f72 	.word	0x0a726f72
3005be78:	00000000 	andeq	r0, r0, r0
3005be7c:	614d6726 	cmpvs	sp, r6, lsr #14
3005be80:	636f6c6c 	.word	0x636f6c6c
3005be84:	6c6f6f50 	stclvs	15, cr6, [pc], #-320
3005be88:	25203d20 	strcs	r3, [r0, #-3360]!
3005be8c:	000a0a78 	.word	0x000a0a78
3005be90:	6c6c614d 	stfvse	f6, [ip], #-308
3005be94:	6c20636f 	stcvs	3, cr6, [r0], #-444
3005be98:	74676e65 	.word	0x74676e65
3005be9c:	203e2068 	eorscs	r2, lr, r8, rrx
3005bea0:	4c4c414d 	stfmie	f4, [ip], {77}
3005bea4:	505f434f 	.word	0x505f434f
3005bea8:	5f4c4f4f 	svcpl	0x004c4f4f
3005beac:	455a4953 	ldrbmi	r4, [sl, #-2387]
3005beb0:	616d202c 	cmnvs	sp, ip, lsr #32
3005beb4:	636f6c6c 	cmnvs	pc, #27648	; 0x6c00
3005beb8:	69616620 	stmdbvs	r1!, {r5, r9, sl, sp, lr}^
3005bebc:	00000a6c 	andeq	r0, r0, ip, ror #20
3005bec0:	65657246 	.word	0x65657246
3005bec4:	614d6720 	cmpvs	sp, r0, lsr #14
3005bec8:	636f6c6c 	cmnvs	pc, #27648	; 0x6c00
3005becc:	5b6f6f50 	blpl	31c37c14 <bss_end+0x1bad9a4>
3005bed0:	0a5d6425 	.word	0x0a5d6425
3005bed4:	00000000 	andeq	r0, r0, r0
3005bed8:	65657246 	strbvs	r7, [r5, #-582]!
3005bedc:	61662064 	cmnvs	r6, r4, rrx
3005bee0:	64656c69 	strbtvs	r6, [r5], #-3177
3005bee4:	554e202c 	strbpl	r2, [lr, #-44]
3005bee8:	70204c4c 	eorvc	r4, r0, ip, asr #24
3005beec:	746e696f 	strbtvc	r6, [lr], #-2415
3005bef0:	69207265 	stmdbvs	r0!, {r0, r2, r5, r6, r9, ip, sp, lr}
3005bef4:	7475706e 	ldrbtvc	r7, [r5], #-110
3005bef8:	0000000a 	andeq	r0, r0, sl
3005befc:	66206e49 	strtvs	r6, [r0], -r9, asr #28
3005bf00:	74636e75 	.word	0x74636e75
3005bf04:	206e6f69 	rsbcs	r6, lr, r9, ror #30
3005bf08:	5f746567 	svcpl	0x00746567
3005bf0c:	706d6574 	rsbvc	r6, sp, r4, ror r5
3005bf10:	6574616c 	ldrbvs	r6, [r4, #-364]!
3005bf14:	00000a0a 	andeq	r0, r0, sl, lsl #20
3005bf18:	6f6c6726 	svcvs	0x006c6726
3005bf1c:	5f6c6162 	.word	0x5f6c6162
3005bf20:	69637361 	stmdbvs	r3!, {r0, r5, r6, r8, r9, ip, sp, lr}^
3005bf24:	65745f69 	ldrbvs	r5, [r4, #-3945]!
3005bf28:	616c706d 	.word	0x616c706d
3005bf2c:	3d206574 	cfstr32cc	mvfx6, [r0, #-464]!
3005bf30:	25783020 	ldrbcs	r3, [r8, #-32]!
3005bf34:	000a0a78 	.word	0x000a0a78
3005bf38:	626f6c67 	rsbvs	r6, pc, #26368	; 0x6700
3005bf3c:	615f6c61 	cmpvs	pc, r1, ror #24
3005bf40:	69696373 	.word	0x69696373
3005bf44:	6d65745f 	cfstrdvs	mvd7, [r5, #-380]!
3005bf48:	74616c70 	strbtvc	r6, [r1], #-3184
3005bf4c:	203d2065 	eorscs	r2, sp, r5, rrx
3005bf50:	78257830 	stmdavc	r5!, {r4, r5, fp, ip, sp, lr}
3005bf54:	00000a0a 	andeq	r0, r0, sl, lsl #20
3005bf58:	65646e69 	strbvs	r6, [r4, #-3689]!
3005bf5c:	203d2078 	.word	0x203d2078
3005bf60:	0a0a6425 	beq	302f4ffc <bss_end+0x26ad8c>
3005bf64:	00000000 	andeq	r0, r0, r0
3005bf68:	6c672826 	.word	0x6c672826
3005bf6c:	6c61626f 	sfmvs	f6, 2, [r1], #-444
3005bf70:	6373615f 	cmnvs	r3, #-1073741801	; 0xc0000017
3005bf74:	745f6969 	ldrbvc	r6, [pc], #2409	; 3005bf7c <__aeabi_idiv0+0x4d4>
3005bf78:	6c706d65 	.word	0x6c706d65
3005bf7c:	5b657461 	blpl	319b9108 <bss_end+0x192ee98>
3005bf80:	65646e69 	strbvs	r6, [r4, #-3689]!
3005bf84:	612e5d78 	.word	0x612e5d78
3005bf88:	69696373 	stmdbvs	r9!, {r0, r1, r4, r5, r6, r8, r9, sp, lr}^
3005bf8c:	6d65745f 	cfstrdvs	mvd7, [r5, #-380]!
3005bf90:	74616c70 	.word	0x74616c70
3005bf94:	3d202965 	stccc	9, cr2, [r0, #-404]!
3005bf98:	25783020 	ldrbcs	r3, [r8, #-32]!
3005bf9c:	000a0a78 	.word	0x000a0a78
3005bfa0:	2d2d2d0a 	stccs	13, cr2, [sp, #-40]!
3005bfa4:	2d2d2d2d 	stccs	13, cr2, [sp, #-180]!
3005bfa8:	2d2d2d2d 	.word	0x2d2d2d2d
3005bfac:	2d2d2d2d 	stccs	13, cr2, [sp, #-180]!
3005bfb0:	2d2d2d2d 	stccs	13, cr2, [sp, #-180]!
3005bfb4:	202d2d2d 	eorcs	r2, sp, sp, lsr #26
3005bfb8:	706d7544 	rsbvc	r7, sp, r4, asr #10
3005bfbc:	746e4920 	strbtvc	r4, [lr], #-2336
3005bfc0:	75727265 	ldrbvc	r7, [r2, #-613]!
3005bfc4:	52207470 	eorpl	r7, r0, #1879048192	; 0x70000000
3005bfc8:	73696765 	.word	0x73696765
3005bfcc:	73726574 	cmnvc	r2, #486539264	; 0x1d000000
3005bfd0:	2d2d2d20 	stccs	13, cr2, [sp, #-128]!
3005bfd4:	2d2d2d2d 	stccs	13, cr2, [sp, #-180]!
3005bfd8:	2d2d2d2d 	stccs	13, cr2, [sp, #-180]!
3005bfdc:	2d2d2d2d 	stccs	13, cr2, [sp, #-180]!
3005bfe0:	2d2d2d2d 	stccs	13, cr2, [sp, #-180]!
3005bfe4:	2d2d2d2d 	stccs	13, cr2, [sp, #-180]!
3005bfe8:	0000000a 	.word	0x0000000a
3005bfec:	50435253 	subpl	r5, r3, r3, asr r2
3005bff0:	3d20444e 	cfstrscc	mvf4, [r0, #-312]!
3005bff4:	25783020 	ldrbcs	r3, [r8, #-32]!
3005bff8:	00000a78 	andeq	r0, r0, r8, ror sl
3005bffc:	4d544e49 	ldclmi	14, cr4, [r4, #-292]
3005c000:	3d204b53 	fstmdbxcc	r0!, {d4-d44}
3005c004:	25783020 	ldrbcs	r3, [r8, #-32]!
3005c008:	00000a78 	andeq	r0, r0, r8, ror sl
3005c00c:	50544e49 	subspl	r4, r4, r9, asr #28
3005c010:	3d20444e 	cfstrscc	mvf4, [r0, #-312]!
3005c014:	25783020 	ldrbcs	r3, [r8, #-32]!
3005c018:	00000a78 	andeq	r0, r0, r8, ror sl
3005c01c:	4f544e49 	svcmi	0x00544e49
3005c020:	45534646 	ldrbmi	r4, [r3, #-1606]
3005c024:	203d2054 	eorscs	r2, sp, r4, asr r0
3005c028:	78257830 	stmdavc	r5!, {r4, r5, fp, ip, sp, lr}
3005c02c:	0000000a 	andeq	r0, r0, sl
3005c030:	544e4945 	strbpl	r4, [lr], #-2373
3005c034:	4b53414d 	blmi	3152c570 <bss_end+0x14a2300>
3005c038:	30203d20 	eorcc	r3, r0, r0, lsr #26
3005c03c:	0a782578 	beq	31e65624 <bss_end+0x1ddb3b4>
3005c040:	00000000 	andeq	r0, r0, r0
3005c044:	544e4945 	strbpl	r4, [lr], #-2373
3005c048:	444e4550 	strbmi	r4, [lr], #-1360
3005c04c:	30203d20 	eorcc	r3, r0, r0, lsr #26
3005c050:	0a782578 	beq	31e65638 <bss_end+0x1ddb3c8>
3005c054:	00000000 	andeq	r0, r0, r0
3005c058:	2d2d2d0a 	stccs	13, cr2, [sp, #-40]!
3005c05c:	2d2d2d2d 	stccs	13, cr2, [sp, #-180]!
3005c060:	2d2d2d2d 	stccs	13, cr2, [sp, #-180]!
3005c064:	2d2d2d2d 	stccs	13, cr2, [sp, #-180]!
3005c068:	2d2d2d2d 	stccs	13, cr2, [sp, #-180]!
3005c06c:	2d2d2d2d 	stccs	13, cr2, [sp, #-180]!
3005c070:	2d2d2d2d 	stccs	13, cr2, [sp, #-180]!
3005c074:	2d2d2d2d 	stccs	13, cr2, [sp, #-180]!
3005c078:	2d2d2d2d 	stccs	13, cr2, [sp, #-180]!
3005c07c:	2d2d2d2d 	stccs	13, cr2, [sp, #-180]!
3005c080:	2d2d2d2d 	stccs	13, cr2, [sp, #-180]!
3005c084:	2d2d2d2d 	stccs	13, cr2, [sp, #-180]!
3005c088:	2d2d2d2d 	stccs	13, cr2, [sp, #-180]!
3005c08c:	2d2d2d2d 	stccs	13, cr2, [sp, #-180]!
3005c090:	2d2d2d2d 	stccs	13, cr2, [sp, #-180]!
3005c094:	2d2d2d2d 	stccs	13, cr2, [sp, #-180]!
3005c098:	2d2d2d2d 	stccs	13, cr2, [sp, #-180]!
3005c09c:	2d2d2d2d 	stccs	13, cr2, [sp, #-180]!
3005c0a0:	0000000a 	andeq	r0, r0, sl
3005c0a4:	66206e49 	strtvs	r6, [r0], -r9, asr #28
3005c0a8:	74636e75 	strbtvc	r6, [r3], #-3701
3005c0ac:	206e6f69 	rsbcs	r6, lr, r9, ror #30
3005c0b0:	5f64656c 	svcpl	0x0064656c
3005c0b4:	74736574 	ldrbtvc	r6, [r3], #-1396
3005c0b8:	0000000a 	andeq	r0, r0, sl
3005c0bc:	73676f4c 	cmnvc	r7, #304	; 0x130
3005c0c0:	0000000a 	.word	0x0000000a
3005c0c4:	61656c43 	cmnvs	r5, r3, asr #24
3005c0c8:	3a425272 	bcc	310f0a98 <bss_end+0x1066828>
3005c0cc:	43464e20 	movtmi	r4, #28192	; 0x6e20
3005c0d0:	20544e4f 	subscs	r4, r4, pc, asr #28
3005c0d4:	7830203d 	ldmdavc	r0!, {r0, r2, r3, r4, r5, sp}
3005c0d8:	000a7825 	andeq	r7, sl, r5, lsr #16
3005c0dc:	61656c43 	cmnvs	r5, r3, asr #24
3005c0e0:	3a425272 	bcc	310f0ab0 <bss_end+0x1066840>
3005c0e4:	53464e20 	movtpl	r4, #28192	; 0x6e20
3005c0e8:	20544154 	subscs	r4, r4, r4, asr r1
3005c0ec:	7830203d 	ldmdavc	r0!, {r0, r2, r3, r4, r5, sp}
3005c0f0:	000a7825 	andeq	r7, sl, r5, lsr #16
3005c0f4:	614e0a0a 	cmpvs	lr, sl, lsl #20
3005c0f8:	6152646e 	cmpvs	r2, lr, ror #8
3005c0fc:	6d6f646e 	cfstrdvs	mvd6, [pc, #-440]!
3005c100:	65676150 	strbvs	r6, [r7, #-336]!
3005c104:	64616552 	.word	0x64616552
3005c108:	67617020 	strbvs	r7, [r1, -r0, lsr #32]!
3005c10c:	64644165 	strbtvs	r4, [r4], #-357
3005c110:	73736572 	.word	0x73736572
3005c114:	78656828 	stmdavc	r5!, {r3, r5, fp, sp, lr}^
3005c118:	203d2029 	eorscs	r2, sp, r9, lsr #32
3005c11c:	78257830 	.word	0x78257830
3005c120:	00000a0a 	andeq	r0, r0, sl, lsl #20
3005c124:	614e0a0a 	cmpvs	lr, sl, lsl #20
3005c128:	6152646e 	.word	0x6152646e
3005c12c:	6d6f646e 	cfstrdvs	mvd6, [pc, #-440]!
3005c130:	65676150 	strbvs	r6, [r7, #-336]!
3005c134:	64616552 	.word	0x64616552
3005c138:	6c6f6320 	stclvs	3, cr6, [pc], #-128
3005c13c:	416e6d75 	smcmi	59093
3005c140:	65726464 	ldrbvs	r6, [r2, #-1124]!
3005c144:	68287373 	stmdavs	r8!, {r0, r1, r4, r5, r6, r8, r9, ip, sp, lr}
3005c148:	20297865 	eorcs	r7, r9, r5, ror #16
3005c14c:	7830203d 	ldmdavc	r0!, {r0, r2, r3, r4, r5, sp}
3005c150:	0a0a7825 	beq	302fa1ec <bss_end+0x26ff7c>
3005c154:	00000000 	andeq	r0, r0, r0
3005c158:	614e0a0a 	cmpvs	lr, sl, lsl #20
3005c15c:	6152646e 	cmpvs	r2, lr, ror #8
3005c160:	6d6f646e 	cfstrdvs	mvd6, [pc, #-440]!
3005c164:	65676150 	strbvs	r6, [r7, #-336]!
3005c168:	64616552 	strbtvs	r6, [r1], #-1362
3005c16c:	61657220 	cmnvs	r5, r0, lsr #4
3005c170:	6165526c 	cmnvs	r5, ip, ror #4
3005c174:	6e654c64 	cdpvs	12, 6, cr4, cr5, cr4, {3}
3005c178:	68286874 	stmdavs	r8!, {r2, r4, r5, r6, fp, sp, lr}
3005c17c:	20297865 	eorcs	r7, r9, r5, ror #16
3005c180:	7830203d 	ldmdavc	r0!, {r0, r2, r3, r4, r5, sp}
3005c184:	0a0a7825 	beq	302fa220 <bss_end+0x26ffb0>
3005c188:	00000000 	andeq	r0, r0, r0
3005c18c:	61700a0a 	cmnvs	r0, sl, lsl #20
3005c190:	64416567 	strbvs	r6, [r1], #-1383
3005c194:	73657264 	cmnvc	r5, #1073741830	; 0x40000006
3005c198:	203d2073 	eorscs	r2, sp, r3, ror r0
3005c19c:	78257830 	stmdavc	r5!, {r4, r5, fp, ip, sp, lr}
3005c1a0:	00000a0a 	andeq	r0, r0, sl, lsl #20
3005c1a4:	6f630a0a 	svcvs	0x00630a0a
3005c1a8:	6e6d756c 	cdpvs	5, 6, cr7, cr13, cr12, {3}
3005c1ac:	72646441 	rsbvc	r6, r4, #1090519040	; 0x41000000
3005c1b0:	20737365 	rsbscs	r7, r3, r5, ror #6
3005c1b4:	7830203d 	.word	0x7830203d
3005c1b8:	0a0a7825 	beq	302fa254 <bss_end+0x26ffe4>
3005c1bc:	00000000 	andeq	r0, r0, r0
3005c1c0:	65720a0a 	.word	0x65720a0a
3005c1c4:	72506c61 	subsvc	r6, r0, #24832	; 0x6100
3005c1c8:	6172676f 	cmnvs	r2, pc, ror #14
3005c1cc:	6e654c6d 	.word	0x6e654c6d
3005c1d0:	3d206874 	stccc	8, cr6, [r0, #-464]!
3005c1d4:	25783020 	ldrbcs	r3, [r8, #-32]!
3005c1d8:	000a0a78 	.word	0x000a0a78
3005c1dc:	6e694c0a 	cdpvs	12, 6, cr4, cr9, cr10, {0}
3005c1e0:	20642565 	rsbcs	r2, r4, r5, ror #10
3005c1e4:	0000003a 	.word	0x0000003a
3005c1e8:	43257830 	teqmi	r5, #3145728	; 0x300000
3005c1ec:	00000020 	andeq	r0, r0, r0, lsr #32
3005c1f0:	66410a0a 	strbvs	r0, [r1], -sl, lsl #20
3005c1f4:	20726574 	rsbscs	r6, r2, r4, ror r5
3005c1f8:	766e6f63 	.word	0x766e6f63
3005c1fc:	2c747265 	lfmcs	f7, 2, [r4], #-404
3005c200:	67617020 	strbvs	r7, [r1, -r0, lsr #32]!
3005c204:	64644165 	.word	0x64644165
3005c208:	65682872 	strbvs	r2, [r8, #-2162]!
3005c20c:	3d202978 	stccc	9, cr2, [r0, #-480]!
3005c210:	25783020 	ldrbcs	r3, [r8, #-32]!
3005c214:	000a0a78 	.word	0x000a0a78
3005c218:	66410a0a 	strbvs	r0, [r1], -sl, lsl #20
3005c21c:	20726574 	rsbscs	r6, r2, r4, ror r5
3005c220:	766e6f63 	.word	0x766e6f63
3005c224:	2c747265 	lfmcs	f7, 2, [r4], #-404
3005c228:	6c6f6320 	stclvs	3, cr6, [pc], #-128
3005c22c:	416e6d75 	smcmi	59093
3005c230:	28726464 	.word	0x28726464
3005c234:	29786568 	ldmdbcs	r8!, {r3, r5, r6, r8, sl, sp, lr}^
3005c238:	30203d20 	eorcc	r3, r0, r0, lsr #26
3005c23c:	0a782578 	beq	31e65824 <bss_end+0x1ddb5b4>
3005c240:	0000000a 	.word	0x0000000a
3005c244:	74530a0a 	ldrbvc	r0, [r3], #-2570
3005c248:	20747261 	.word	0x20747261
3005c24c:	64616572 	strbtvs	r6, [r1], #-1394
3005c250:	0a444920 	.word	0x0a444920
3005c254:	0000000a 	andeq	r0, r0, sl
3005c258:	70696863 	.word	0x70696863
3005c25c:	3d204449 	.word	0x3d204449
3005c260:	00000020 	.word	0x00000020
3005c264:	0000000a 	.word	0x0000000a
3005c268:	65520a0a 	.word	0x65520a0a
3005c26c:	49206461 	.word	0x49206461
3005c270:	6f632044 	.word	0x6f632044
3005c274:	656c706d 	.word	0x656c706d
3005c278:	0a0a6574 	.word	0x0a0a6574
3005c27c:	00000000 	.word	0x00000000
3005c280:	614e0a0a 	.word	0x614e0a0a
3005c284:	6c42646e 	.word	0x6c42646e
3005c288:	456b636f 	.word	0x456b636f
3005c28c:	65736172 	.word	0x65736172
3005c290:	74736554 	.word	0x74736554
3005c294:	6461202c 	.word	0x6461202c
3005c298:	73657264 	.word	0x73657264
3005c29c:	65682873 	.word	0x65682873
3005c2a0:	3d202978 	.word	0x3d202978
3005c2a4:	25783020 	.word	0x25783020
3005c2a8:	000a0a78 	.word	0x000a0a78
3005c2ac:	6c420a0a 	.word	0x6c420a0a
3005c2b0:	206b636f 	.word	0x206b636f
3005c2b4:	73617265 	.word	0x73617265
3005c2b8:	6f632065 	.word	0x6f632065
3005c2bc:	656c706d 	.word	0x656c706d
3005c2c0:	0a0a6574 	.word	0x0a0a6574
3005c2c4:	00000000 	andeq	r0, r0, r0
3005c2c8:	614e0a0a 	cmpvs	lr, sl, lsl #20
3005c2cc:	6150646e 	cmpvs	r0, lr, ror #8
3005c2d0:	72576567 	subsvc	r6, r7, #432013312	; 0x19c00000
3005c2d4:	54657469 	strbtpl	r7, [r5], #-1129
3005c2d8:	2c747365 	ldclcs	3, cr7, [r4], #-404
3005c2dc:	64646120 	strbtvs	r6, [r4], #-288
3005c2e0:	73736572 	cmnvc	r3, #478150656	; 0x1c800000
3005c2e4:	78656828 	stmdavc	r5!, {r3, r5, fp, sp, lr}^
3005c2e8:	203d2029 	eorscs	r2, sp, r9, lsr #32
3005c2ec:	78257830 	stmdavc	r5!, {r4, r5, fp, ip, sp, lr}
3005c2f0:	00000a0a 	andeq	r0, r0, sl, lsl #20
3005c2f4:	72500a0a 	subsvc	r0, r0, #40960	; 0xa000
3005c2f8:	6172676f 	cmnvs	r2, pc, ror #14
3005c2fc:	6176206d 	cmnvs	r6, sp, rrx
3005c300:	2865756c 	stmdacs	r5!, {r2, r3, r5, r6, r8, sl, ip, sp, lr}^
3005c304:	29786568 	ldmdbcs	r8!, {r3, r5, r6, r8, sl, sp, lr}^
3005c308:	30203d20 	eorcc	r3, r0, r0, lsr #26
3005c30c:	0a782578 	beq	31e658f4 <bss_end+0x1ddb684>
3005c310:	0000000a 	andeq	r0, r0, sl
3005c314:	61500a0a 	cmpvs	r0, sl, lsl #20
3005c318:	70206567 	eorvc	r6, r0, r7, ror #10
3005c31c:	72676f72 	rsbvc	r6, r7, #456	; 0x1c8
3005c320:	63206d61 	teqvs	r0, #6208	; 0x1840
3005c324:	6c706d6f 	ldclvs	13, cr6, [r0], #-444
3005c328:	0a657465 	beq	319b94c4 <bss_end+0x192f254>
3005c32c:	0000000a 	andeq	r0, r0, sl
3005c330:	614e0a0a 	cmpvs	lr, sl, lsl #20
3005c334:	6150646e 	cmpvs	r0, lr, ror #8
3005c338:	65526567 	ldrbvs	r6, [r2, #-1383]
3005c33c:	65546461 	ldrbvs	r6, [r4, #-1121]
3005c340:	202c7473 	eorcs	r7, ip, r3, ror r4
3005c344:	72646461 	rsbvc	r6, r4, #1627389952	; 0x61000000
3005c348:	28737365 	ldmdacs	r3!, {r0, r2, r5, r6, r8, r9, ip, sp, lr}^
3005c34c:	29786568 	ldmdbcs	r8!, {r3, r5, r6, r8, sl, sp, lr}^
3005c350:	25203d20 	strcs	r3, [r0, #-3360]!
3005c354:	000a0a78 	andeq	r0, sl, r8, ror sl
3005c358:	75440a0a 	strbvc	r0, [r4, #-2570]
3005c35c:	7020706d 	eorvc	r7, r0, sp, rrx
3005c360:	28656761 	stmdacs	r5!, {r0, r5, r6, r8, r9, sl, sp, lr}^
3005c364:	29786568 	ldmdbcs	r8!, {r3, r5, r6, r8, sl, sp, lr}^
3005c368:	20782520 	rsbscs	r2, r8, r0, lsr #10
3005c36c:	756c6176 	strbvc	r6, [ip, #-374]!
3005c370:	0a0a3a65 	beq	302ead0c <bss_end+0x260a9c>
3005c374:	00000000 	andeq	r0, r0, r0
3005c378:	61500a0a 	cmpvs	r0, sl, lsl #20
3005c37c:	72206567 	eorvc	r6, r0, #432013312	; 0x19c00000
3005c380:	20646165 	rsbcs	r6, r4, r5, ror #2
3005c384:	706d6f63 	rsbvc	r6, sp, r3, ror #30
3005c388:	6574656c 	ldrbvs	r6, [r4, #-1388]!
3005c38c:	00000a0a 	andeq	r0, r0, sl, lsl #20
3005c390:	614e0a0a 	cmpvs	lr, sl, lsl #20
3005c394:	5220646e 	eorpl	r6, r0, #1845493760	; 0x6e000000
3005c398:	6f646e61 	svcvs	0x00646e61
3005c39c:	6150206d 	cmpvs	r0, sp, rrx
3005c3a0:	52206567 	eorpl	r6, r0, #432013312	; 0x19c00000
3005c3a4:	2c646165 	stfcse	f6, [r4], #-404
3005c3a8:	64646120 	strbtvs	r6, [r4], #-288
3005c3ac:	73736572 	cmnvc	r3, #478150656	; 0x1c800000
3005c3b0:	78656828 	stmdavc	r5!, {r3, r5, fp, sp, lr}^
3005c3b4:	203d2029 	eorscs	r2, sp, r9, lsr #32
3005c3b8:	78257830 	stmdavc	r5!, {r4, r5, fp, ip, sp, lr}
3005c3bc:	00000a0a 	andeq	r0, r0, sl, lsl #20
3005c3c0:	75440a0a 	strbvc	r0, [r4, #-2570]
3005c3c4:	7020706d 	eorvc	r7, r0, sp, rrx
3005c3c8:	28656761 	stmdacs	r5!, {r0, r5, r6, r8, r9, sl, sp, lr}^
3005c3cc:	29786568 	ldmdbcs	r8!, {r3, r5, r6, r8, sl, sp, lr}^
3005c3d0:	25783020 	ldrbcs	r3, [r8, #-32]!
3005c3d4:	61762078 	cmnvs	r6, r8, ror r0
3005c3d8:	3a65756c 	bcc	319b9990 <bss_end+0x192f720>
3005c3dc:	00000a0a 	andeq	r0, r0, sl, lsl #20
3005c3e0:	61500a0a 	cmpvs	r0, sl, lsl #20
3005c3e4:	72206567 	eorvc	r6, r0, #432013312	; 0x19c00000
3005c3e8:	6f646e61 	svcvs	0x00646e61
3005c3ec:	6572206d 	ldrbvs	r2, [r2, #-109]!
3005c3f0:	63206461 	teqvs	r0, #1627389952	; 0x61000000
3005c3f4:	6c706d6f 	ldclvs	13, cr6, [r0], #-444
3005c3f8:	0a657465 	beq	319b9594 <bss_end+0x192f324>
3005c3fc:	0000000a 	andeq	r0, r0, sl
3005c400:	614e0a0a 	cmpvs	lr, sl, lsl #20
3005c404:	5220646e 	eorpl	r6, r0, #1845493760	; 0x6e000000
3005c408:	6f646e61 	svcvs	0x00646e61
3005c40c:	6150206d 	cmpvs	r0, sp, rrx
3005c410:	70206567 	eorvc	r6, r0, r7, ror #10
3005c414:	72676f72 	rsbvc	r6, r7, #456	; 0x1c8
3005c418:	202c6d61 	eorcs	r6, ip, r1, ror #26
3005c41c:	72646461 	rsbvc	r6, r4, #1627389952	; 0x61000000
3005c420:	28737365 	ldmdacs	r3!, {r0, r2, r5, r6, r8, r9, ip, sp, lr}^
3005c424:	29786568 	ldmdbcs	r8!, {r3, r5, r6, r8, sl, sp, lr}^
3005c428:	30203d20 	eorcc	r3, r0, r0, lsr #26
3005c42c:	0a782578 	beq	31e65a14 <bss_end+0x1ddb7a4>
3005c430:	0000000a 	andeq	r0, r0, sl
3005c434:	61500a0a 	cmpvs	r0, sl, lsl #20
3005c438:	72206567 	eorvc	r6, r0, #432013312	; 0x19c00000
3005c43c:	6f646e61 	svcvs	0x00646e61
3005c440:	7270206d 	rsbsvc	r2, r0, #109	; 0x6d
3005c444:	6172676f 	cmnvs	r2, pc, ror #14
3005c448:	6f63206d 	svcvs	0x0063206d
3005c44c:	656c706d 	strbvs	r7, [ip, #-109]!
3005c450:	0a0a6574 	beq	302f5a28 <bss_end+0x26b7b8>
3005c454:	00000000 	andeq	r0, r0, r0
3005c458:	420a0a0a 	andmi	r0, sl, #40960	; 0xa000
3005c45c:	6b636f6c 	blvs	31938214 <bss_end+0x18adfa4>
3005c460:	25203a20 	strcs	r3, [r0, #-2592]!
3005c464:	0a0a0a78 	beq	302dee4c <bss_end+0x254bdc>
3005c468:	00000000 	andeq	r0, r0, r0
3005c46c:	766e690a 	strbtvc	r6, [lr], -sl, lsl #18
3005c470:	6c466469 	cfstrdvs	mvd6, [r6], {105}
3005c474:	20316761 	eorscs	r6, r1, r1, ror #14
3005c478:	7825203d 	stmdavc	r5!, {r0, r2, r3, r4, r5, sp}
3005c47c:	0000000a 	andeq	r0, r0, sl
3005c480:	766e690a 	strbtvc	r6, [lr], -sl, lsl #18
3005c484:	6c466469 	cfstrdvs	mvd6, [r6], {105}
3005c488:	20326761 	eorscs	r6, r2, r1, ror #14
3005c48c:	7825203d 	stmdavc	r5!, {r0, r2, r3, r4, r5, sp}
3005c490:	0000000a 	andeq	r0, r0, sl
3005c494:	20646142 	rsbcs	r6, r4, r2, asr #2
3005c498:	636f6c62 	cmnvs	pc, #25088	; 0x6200
3005c49c:	00203a6b 	eoreq	r3, r0, fp, ror #20
3005c4a0:	78257830 	stmdavc	r5!, {r4, r5, fp, ip, sp, lr}
3005c4a4:	00000020 	andeq	r0, r0, r0, lsr #32
3005c4a8:	72610a0a 	rsbvc	r0, r1, #40960	; 0xa000
3005c4ac:	3d206367 	stccc	3, cr6, [r0, #-412]!
3005c4b0:	0a642520 	beq	31965938 <bss_end+0x18db6c8>
3005c4b4:	0000000a 	andeq	r0, r0, sl
3005c4b8:	76677261 	strbtvc	r7, [r7], -r1, ror #4
3005c4bc:	5d64255b 	cfstr64pl	mvdx2, [r4, #-364]!
3005c4c0:	25203d20 	strcs	r3, [r0, #-3360]!
3005c4c4:	00000a73 	andeq	r0, r0, r3, ror sl
3005c4c8:	72610a0a 	rsbvc	r0, r1, #40960	; 0xa000
3005c4cc:	6f5b7667 	svcvs	0x005b7667
3005c4d0:	6e497470 	mcrvs	4, 2, r7, cr9, cr0, {3}
3005c4d4:	202b2064 	eorcs	r2, fp, r4, rrx
3005c4d8:	3d205d31 	stccc	13, cr5, [r0, #-196]!
3005c4dc:	0a732520 	beq	31d25964 <bss_end+0x1c9b6f4>
3005c4e0:	0000000a 	andeq	r0, r0, sl
3005c4e4:	72770a0a 	rsbsvc	r0, r7, #40960	; 0xa000
3005c4e8:	20657469 	rsbcs	r7, r5, r9, ror #8
3005c4ec:	756c6176 	strbvc	r6, [ip, #-374]!
3005c4f0:	65682865 	strbvs	r2, [r8, #-2149]!
3005c4f4:	3d202978 	stccc	9, cr2, [r0, #-480]!
3005c4f8:	25783020 	ldrbcs	r3, [r8, #-32]!
3005c4fc:	000a0a78 	andeq	r0, sl, r8, ror sl
3005c500:	72646441 	rsbvc	r6, r4, #1090519040	; 0x41000000
3005c504:	28737365 	ldmdacs	r3!, {r0, r2, r5, r6, r8, r9, ip, sp, lr}^
3005c508:	29786568 	ldmdbcs	r8!, {r3, r5, r6, r8, sl, sp, lr}^
3005c50c:	30203d20 	eorcc	r3, r0, r0, lsr #26
3005c510:	0a782578 	beq	31e65af8 <bss_end+0x1ddb888>
3005c514:	00000000 	andeq	r0, r0, r0
3005c518:	676e654c 	strbvs	r6, [lr, -ip, asr #10]!
3005c51c:	68286874 	stmdavs	r8!, {r2, r4, r5, r6, fp, sp, lr}
3005c520:	20297865 	eorcs	r7, r9, r5, ror #16
3005c524:	7830203d 	ldmdavc	r0!, {r0, r2, r3, r4, r5, sp}
3005c528:	000a7825 	andeq	r7, sl, r5, lsr #16
3005c52c:	72770a0a 	rsbsvc	r0, r7, #40960	; 0xa000
3005c530:	20657469 	rsbcs	r7, r5, r9, ror #8
3005c534:	756c6176 	strbvc	r6, [ip, #-374]!
3005c538:	65682865 	strbvs	r2, [r8, #-2149]!
3005c53c:	3d202978 	stccc	9, cr2, [r0, #-480]!
3005c540:	0a782520 	beq	31e659c8 <bss_end+0x1ddb758>
3005c544:	0000000a 	andeq	r0, r0, sl
3005c548:	61766e49 	cmnvs	r6, r9, asr #28
3005c54c:	2064696c 	rsbcs	r6, r4, ip, ror #18
3005c550:	61726150 	cmnvs	r2, r0, asr r1
3005c554:	6574656d 	ldrbvs	r6, [r4, #-1389]!
3005c558:	00000a72 	andeq	r0, r0, r2, ror sl
3005c55c:	69727065 	ldmdbvs	r2!, {r0, r2, r5, r6, ip, sp, lr}^
3005c560:	00616374 	rsbeq	r6, r1, r4, ror r3
3005c564:	646e614e 	strbtvs	r6, [lr], #-334
3005c568:	73655420 	cmnvc	r5, #536870912	; 0x20000000
3005c56c:	6e652074 	mcrvs	0, 3, r2, cr5, cr4, {3}
3005c570:	00000a64 	andeq	r0, r0, r4, ror #20
3005c574:	706d7544 	rsbvc	r7, sp, r4, asr #10
3005c578:	67657220 	strbvs	r7, [r5, -r0, lsr #4]!
3005c57c:	65747369 	ldrbvs	r7, [r4, #-873]!
3005c580:	000a3a72 	andeq	r3, sl, r2, ror sl
3005c584:	44434c72 	strbmi	r4, [r3], #-3186
3005c588:	314e4f43 	cmpcc	lr, r3, asr #30
3005c58c:	25203d20 	strcs	r3, [r0, #-3360]!
3005c590:	00000a78 	andeq	r0, r0, r8, ror sl
3005c594:	44434c72 	strbmi	r4, [r3], #-3186
3005c598:	324e4f43 	subcc	r4, lr, #268	; 0x10c
3005c59c:	25203d20 	strcs	r3, [r0, #-3360]!
3005c5a0:	00000a78 	andeq	r0, r0, r8, ror sl
3005c5a4:	44434c72 	strbmi	r4, [r3], #-3186
3005c5a8:	334e4f43 	movtcc	r4, #61251	; 0xef43
3005c5ac:	25203d20 	strcs	r3, [r0, #-3360]!
3005c5b0:	00000a78 	andeq	r0, r0, r8, ror sl
3005c5b4:	44434c72 	strbmi	r4, [r3], #-3186
3005c5b8:	344e4f43 	strbcc	r4, [lr], #-3907
3005c5bc:	25203d20 	strcs	r3, [r0, #-3360]!
3005c5c0:	00000a78 	andeq	r0, r0, r8, ror sl
3005c5c4:	44434c72 	strbmi	r4, [r3], #-3186
3005c5c8:	354e4f43 	strbcc	r4, [lr, #-3907]
3005c5cc:	25203d20 	strcs	r3, [r0, #-3360]!
3005c5d0:	00000a78 	andeq	r0, r0, r8, ror sl
3005c5d4:	44434c72 	strbmi	r4, [r3], #-3186
3005c5d8:	44444153 	strbmi	r4, [r4], #-339
3005c5dc:	3d203152 	stfccs	f3, [r0, #-328]!
3005c5e0:	0a782520 	beq	31e65a68 <bss_end+0x1ddb7f8>
3005c5e4:	00000000 	andeq	r0, r0, r0
3005c5e8:	44434c72 	strbmi	r4, [r3], #-3186
3005c5ec:	44444153 	strbmi	r4, [r4], #-339
3005c5f0:	3d203252 	sfmcc	f3, 4, [r0, #-328]!
3005c5f4:	0a782520 	beq	31e65a7c <bss_end+0x1ddb80c>
3005c5f8:	00000000 	andeq	r0, r0, r0
3005c5fc:	44434c72 	strbmi	r4, [r3], #-3186
3005c600:	44444153 	strbmi	r4, [r4], #-339
3005c604:	3d203352 	stccc	3, cr3, [r0, #-328]!
3005c608:	0a782520 	beq	31e65a90 <bss_end+0x1ddb820>
3005c60c:	00000000 	andeq	r0, r0, r0
3005c610:	44434c72 	strbmi	r4, [r3], #-3186
3005c614:	4d544e49 	ldclmi	14, cr4, [r4, #-292]
3005c618:	3d204b53 	fstmdbxcc	r0!, {d4-d44}
3005c61c:	0a782520 	beq	31e65aa4 <bss_end+0x1ddb834>
3005c620:	00000000 	andeq	r0, r0, r0
3005c624:	4f435472 	svcmi	0x00435472
3005c628:	4c45534e 	mcrrmi	3, 4, r5, r5, cr14
3005c62c:	25203d20 	strcs	r3, [r0, #-3360]!
3005c630:	00000a78 	andeq	r0, r0, r8, ror sl
3005c634:	41505472 	cmpmi	r0, r2, ror r4
3005c638:	203d204c 	eorscs	r2, sp, ip, asr #32
3005c63c:	000a7825 	andeq	r7, sl, r5, lsr #16
3005c640:	64636c0a 	strbtvs	r6, [r3], #-3082
3005c644:	6e696c5f 	mcrvs	12, 3, r6, cr9, cr15, {2}
3005c648:	65745f65 	ldrbvs	r5, [r4, #-3941]!
3005c64c:	202c7473 	eorcs	r7, ip, r3, ror r4
3005c650:	72617473 	rsbvc	r7, r1, #1929379840	; 0x73000000
3005c654:	696c5f74 	stmdbvs	ip!, {r2, r4, r5, r6, r8, r9, sl, fp, ip, lr}^
3005c658:	3d20656e 	cfstr32cc	mvfx6, [r0, #-440]!
3005c65c:	2c642520 	cfstr64cs	mvdx2, [r4], #-128
3005c660:	646e6520 	strbtvs	r6, [lr], #-1312
3005c664:	6e696c5f 	mcrvs	12, 3, r6, cr9, cr15, {2}
3005c668:	203d2065 	eorscs	r2, sp, r5, rrx
3005c66c:	000a6425 	andeq	r6, sl, r5, lsr #8
3005c670:	6f6c6f43 	svcvs	0x006c6f43
3005c674:	25203a72 	strcs	r3, [r0, #-2674]!
3005c678:	000a0a64 	andeq	r0, sl, r4, ror #20
3005c67c:	6c6c6946 	stclvs	9, cr6, [ip], #-280
3005c680:	6e696c20 	cdpvs	12, 6, cr6, cr9, cr0, {1}
3005c684:	25203a65 	strcs	r3, [r0, #-2661]!
3005c688:	000a0a64 	andeq	r0, sl, r4, ror #20
3005c68c:	64636c0a 	strbtvs	r6, [r3], #-3082
3005c690:	6c6f635f 	stclvs	3, cr6, [pc], #-380
3005c694:	5f6e6d75 	svcpl	0x006e6d75
3005c698:	74736574 	ldrbtvc	r6, [r3], #-1396
3005c69c:	7473202c 	ldrbtvc	r2, [r3], #-44
3005c6a0:	5f747261 	svcpl	0x00747261
3005c6a4:	756c6f63 	strbvc	r6, [ip, #-3939]!
3005c6a8:	3d206e6d 	stccc	14, cr6, [r0, #-436]!
3005c6ac:	2c642520 	cfstr64cs	mvdx2, [r4], #-128
3005c6b0:	646e6520 	strbtvs	r6, [lr], #-1312
3005c6b4:	6c6f635f 	stclvs	3, cr6, [pc], #-380
3005c6b8:	206e6d75 	rsbcs	r6, lr, r5, ror sp
3005c6bc:	6425203d 	strtvs	r2, [r5], #-61
3005c6c0:	0000000a 	andeq	r0, r0, sl
3005c6c4:	6c6c6946 	stclvs	9, cr6, [ip], #-280
3005c6c8:	6c6f6320 	stclvs	3, cr6, [pc], #-128
3005c6cc:	3a6e6d75 	bcc	31bf7ca8 <bss_end+0x1b6da38>
3005c6d0:	0a642520 	beq	31965b58 <bss_end+0x18db8e8>
3005c6d4:	0000000a 	andeq	r0, r0, sl
3005c6d8:	69640a0a 	stmdbvs	r4!, {r1, r3, r9, fp}^
3005c6dc:	616c7073 	smcvs	50947
3005c6e0:	68635f79 	stmdavs	r3!, {r0, r3, r4, r5, r6, r8, r9, sl, fp, ip, lr}^
3005c6e4:	29287261 	stmdbcs	r8!, {r0, r5, r6, r9, ip, sp, lr}
3005c6e8:	00000a0a 	andeq	r0, r0, sl, lsl #20
3005c6ec:	203d2078 	eorscs	r2, sp, r8, ror r0
3005c6f0:	202c6425 	eorcs	r6, ip, r5, lsr #8
3005c6f4:	203d2079 	eorscs	r2, sp, r9, ror r0
3005c6f8:	0a0a6425 	beq	302f5794 <bss_end+0x26b524>
3005c6fc:	00000000 	andeq	r0, r0, r0
3005c700:	6c6c6946 	stclvs	9, cr6, [ip], #-280
3005c704:	6c6c6120 	stfvse	f6, [ip], #-128
3005c708:	72637320 	rsbvc	r7, r3, #-2147483648	; 0x80000000
3005c70c:	206e6565 	rsbcs	r6, lr, r5, ror #10
3005c710:	74736574 	ldrbtvc	r6, [r3], #-1396
3005c714:	0000000a 	andeq	r0, r0, sl
3005c718:	64636c0a 	strbtvs	r6, [r3], #-3082
3005c71c:	6e696c20 	cdpvs	12, 6, cr6, cr9, cr0, {1}
3005c720:	65742065 	ldrbvs	r2, [r4, #-101]!
3005c724:	000a7473 	andeq	r7, sl, r3, ror r4
3005c728:	64636c0a 	strbtvs	r6, [r3], #-3082
3005c72c:	6c6f6320 	stclvs	3, cr6, [pc], #-128
3005c730:	206e6d75 	rsbcs	r6, lr, r5, ror sp
3005c734:	74736574 	ldrbtvc	r6, [r3], #-1396
3005c738:	0000000a 	andeq	r0, r0, sl
3005c73c:	7369440a 	cmnvc	r9, #167772160	; 0xa000000
3005c740:	79616c70 	stmdbvc	r1!, {r4, r5, r6, sl, fp, sp, lr}^
3005c744:	6d657420 	cfstrdvs	mvd7, [r5, #-128]!
3005c748:	74616c70 	strbtvc	r6, [r1], #-3184
3005c74c:	00000a65 	andeq	r0, r0, r5, ror #20
3005c750:	69637361 	stmdbvs	r3!, {r0, r5, r6, r8, r9, ip, sp, lr}^
3005c754:	65745f69 	ldrbvs	r5, [r4, #-3945]!
3005c758:	616c706d 	cmnvs	ip, sp, rrx
3005c75c:	3d206574 	cfstr32cc	mvfx6, [r0, #-464]!
3005c760:	25783020 	ldrbcs	r3, [r8, #-32]!
3005c764:	00000a78 	andeq	r0, r0, r8, ror sl
3005c768:	6373612a 	cmnvs	r3, #-2147483638	; 0x8000000a
3005c76c:	745f6969 	ldrbvc	r6, [pc], #2409	; 3005c774 <__aeabi_idiv0+0xccc>
3005c770:	6c706d65 	ldclvs	13, cr6, [r0], #-404
3005c774:	20657461 	rsbcs	r7, r5, r1, ror #8
3005c778:	7830203d 	ldmdavc	r0!, {r0, r2, r3, r4, r5, sp}
3005c77c:	000a7825 	andeq	r7, sl, r5, lsr #16
3005c780:	47414944 	strbmi	r4, [r1, -r4, asr #18]
3005c784:	53524556 	cmppl	r2, #360710144	; 0x15800000
3005c788:	004e4f49 	subeq	r4, lr, r9, asr #30
3005c78c:	00004e53 	andeq	r4, r0, r3, asr lr
3005c790:	5444454c 	strbpl	r4, [r4], #-1356
3005c794:	00545345 	subseq	r5, r4, r5, asr #6
3005c798:	5444434c 	strbpl	r4, [r4], #-844
3005c79c:	00545345 	subseq	r5, r4, r5, asr #6
3005c7a0:	444e414e 	strbmi	r4, [lr], #-334
3005c7a4:	54534554 	ldrbpl	r4, [r3], #-1364
3005c7a8:	00000000 	andeq	r0, r0, r0
3005c7ac:	52534944 	subspl	r4, r3, #1114112	; 0x110000
3005c7b0:	20203043 	eorcs	r3, r0, r3, asr #32
3005c7b4:	7830203d 	ldmdavc	r0!, {r0, r2, r3, r4, r5, sp}
3005c7b8:	000a7825 	andeq	r7, sl, r5, lsr #16
3005c7bc:	52534944 	subspl	r4, r3, #1114112	; 0x110000
3005c7c0:	20304343 	eorscs	r4, r0, r3, asr #6
3005c7c4:	7830203d 	ldmdavc	r0!, {r0, r2, r3, r4, r5, sp}
3005c7c8:	000a7825 	andeq	r7, sl, r5, lsr #16
3005c7cc:	53444944 	movtpl	r4, #18756	; 0x4944
3005c7d0:	20203054 	eorcs	r3, r0, r4, asr r0
3005c7d4:	7830203d 	ldmdavc	r0!, {r0, r2, r3, r4, r5, sp}
3005c7d8:	000a7825 	andeq	r7, sl, r5, lsr #16
3005c7dc:	53444944 	movtpl	r4, #18756	; 0x4944
3005c7e0:	20304354 	eorscs	r4, r0, r4, asr r3
3005c7e4:	7830203d 	ldmdavc	r0!, {r0, r2, r3, r4, r5, sp}
3005c7e8:	000a7825 	andeq	r7, sl, r5, lsr #16
3005c7ec:	4e4f4344 	cdpmi	3, 4, cr4, cr15, cr4, {2}
3005c7f0:	20202030 	eorcs	r2, r0, r0, lsr r0
3005c7f4:	7830203d 	ldmdavc	r0!, {r0, r2, r3, r4, r5, sp}
3005c7f8:	000a7825 	andeq	r7, sl, r5, lsr #16
3005c7fc:	41545344 	cmpmi	r4, r4, asr #6
3005c800:	20203054 	eorcs	r3, r0, r4, asr r0
3005c804:	7830203d 	ldmdavc	r0!, {r0, r2, r3, r4, r5, sp}
3005c808:	000a7825 	andeq	r7, sl, r5, lsr #16
3005c80c:	52534344 	subspl	r4, r3, #268435457	; 0x10000001
3005c810:	20203043 	eorcs	r3, r0, r3, asr #32
3005c814:	7830203d 	ldmdavc	r0!, {r0, r2, r3, r4, r5, sp}
3005c818:	000a7825 	andeq	r7, sl, r5, lsr #16
3005c81c:	53414d44 	movtpl	r4, #7492	; 0x1d44
3005c820:	4952544b 	ldmdbmi	r2, {r0, r1, r3, r6, sl, ip, lr}^
3005c824:	3d203047 	stccc	0, cr3, [r0, #-284]!
3005c828:	25783020 	ldrbcs	r3, [r8, #-32]!
3005c82c:	00000a78 	andeq	r0, r0, r8, ror sl
3005c830:	53616d44 	cmnpl	r1, #4352	; 0x1100
3005c834:	65536372 	ldrbvs	r6, [r3, #-882]
3005c838:	49203a74 	stmdbmi	r0!, {r2, r4, r5, r6, r9, fp, ip, sp}
3005c83c:	6c61766e 	stclvs	6, cr7, [r1], #-440
3005c840:	44206469 	strtmi	r6, [r0], #-1129
3005c844:	6320414d 	teqvs	r0, #1073741843	; 0x40000013
3005c848:	6e6e6168 	powvsez	f6, f6, #0.0
3005c84c:	6f206c65 	svcvs	0x00206c65
3005c850:	72732072 	rsbsvc	r2, r3, #114	; 0x72
3005c854:	65722063 	ldrbvs	r2, [r2, #-99]!
3005c858:	73657571 	cmnvc	r5, #473956352	; 0x1c400000
3005c85c:	00000a74 	andeq	r0, r0, r4, ror sl
3005c860:	44616d44 	strbtmi	r6, [r1], #-3396
3005c864:	65537473 	ldrbvs	r7, [r3, #-1139]
3005c868:	49203a74 	stmdbmi	r0!, {r2, r4, r5, r6, r9, fp, ip, sp}
3005c86c:	6c61766e 	stclvs	6, cr7, [r1], #-440
3005c870:	44206469 	strtmi	r6, [r0], #-1129
3005c874:	6320414d 	teqvs	r0, #1073741843	; 0x40000013
3005c878:	6e6e6168 	powvsez	f6, f6, #0.0
3005c87c:	6f206c65 	svcvs	0x00206c65
3005c880:	72732072 	rsbsvc	r2, r3, #114	; 0x72
3005c884:	65722063 	ldrbvs	r2, [r2, #-99]!
3005c888:	73657571 	cmnvc	r5, #473956352	; 0x1c400000
3005c88c:	00000a74 	andeq	r0, r0, r4, ror sl
3005c890:	48616d44 	stmdami	r1!, {r2, r6, r8, sl, fp, sp, lr}^
3005c894:	6c655377 	stclvs	3, cr5, [r5], #-476
3005c898:	6e49203a 	mcrvs	0, 2, r2, cr9, cr10, {1}
3005c89c:	696c6176 	stmdbvs	ip!, {r1, r2, r4, r5, r6, r8, sp, lr}^
3005c8a0:	4d442064 	stclmi	0, cr2, [r4, #-400]
3005c8a4:	68632041 	stmdavs	r3!, {r0, r6, sp}^
3005c8a8:	656e6e61 	strbvs	r6, [lr, #-3681]!
3005c8ac:	6f4e206c 	svcvs	0x004e206c
3005c8b0:	00000a2e 	andeq	r0, r0, lr, lsr #20
3005c8b4:	43616d44 	cmnmi	r1, #4352	; 0x1100
3005c8b8:	65536c74 	ldrbvs	r6, [r3, #-3188]
3005c8bc:	49203a74 	stmdbmi	r0!, {r2, r4, r5, r6, r9, fp, ip, sp}
3005c8c0:	6c61766e 	stclvs	6, cr7, [r1], #-440
3005c8c4:	44206469 	strtmi	r6, [r0], #-1129
3005c8c8:	6320414d 	teqvs	r0, #1073741843	; 0x40000013
3005c8cc:	6e6e6168 	powvsez	f6, f6, #0.0
3005c8d0:	4e206c65 	cdpmi	12, 2, cr6, cr0, cr5, {3}
3005c8d4:	000a2e6f 	andeq	r2, sl, pc, ror #28
3005c8d8:	4f616d44 	svcmi	0x00616d44
3005c8dc:	6e4f6666 	cdpvs	6, 4, cr6, cr15, cr6, {3}
3005c8e0:	6e49203a 	mcrvs	0, 2, r2, cr9, cr10, {1}
3005c8e4:	696c6176 	stmdbvs	ip!, {r1, r2, r4, r5, r6, r8, sp, lr}^
3005c8e8:	4d442064 	stclmi	0, cr2, [r4, #-400]
3005c8ec:	68632041 	stmdavs	r3!, {r0, r6, sp}^
3005c8f0:	656e6e61 	strbvs	r6, [lr, #-3681]!
3005c8f4:	6f4e206c 	svcvs	0x004e206c
3005c8f8:	00000a2e 	andeq	r0, r0, lr, lsr #20
3005c8fc:	61766e49 	cmnvs	r6, r9, asr #28
3005c900:	2064696c 	rsbcs	r6, r4, ip, ror #18
3005c904:	20414d44 	subcs	r4, r1, r4, asr #26
3005c908:	6e616863 	cdpvs	8, 6, cr6, cr1, cr3, {3}
3005c90c:	206c656e 	rsbcs	r6, ip, lr, ror #10
3005c910:	0a2e6f4e 	beq	30bf8650 <bss_end+0xb6e3e0>
3005c914:	00000000 	andeq	r0, r0, r0
3005c918:	2d2d0a0a 	fstmdbscs	sp!, {s0-s9}
3005c91c:	2d2d2d2d 	stccs	13, cr2, [sp, #-180]!
3005c920:	2d2d2d2d 	stccs	13, cr2, [sp, #-180]!
3005c924:	2d2d2d2d 	stccs	13, cr2, [sp, #-180]!
3005c928:	6d756420 	cfldrdvs	mvd6, [r5, #-128]!
3005c92c:	6f745f70 	svcvs	0x00745f70
3005c930:	5f686375 	svcpl	0x00686375
3005c934:	20676572 	rsbcs	r6, r7, r2, ror r5
3005c938:	2d2d2d2d 	stccs	13, cr2, [sp, #-180]!
3005c93c:	2d2d2d2d 	stccs	13, cr2, [sp, #-180]!
3005c940:	2d2d2d2d 	stccs	13, cr2, [sp, #-180]!
3005c944:	2d2d2d2d 	stccs	13, cr2, [sp, #-180]!
3005c948:	2d2d2d2d 	stccs	13, cr2, [sp, #-180]!
3005c94c:	00000a0a 	andeq	r0, r0, sl, lsl #20
3005c950:	43434441 	movtmi	r4, #13377	; 0x3441
3005c954:	3d204e4f 	stccc	14, cr4, [r0, #-316]!
3005c958:	25783020 	ldrbcs	r3, [r8, #-32]!
3005c95c:	00000a78 	andeq	r0, r0, r8, ror sl
3005c960:	54434441 	strbpl	r4, [r3], #-1089
3005c964:	3d204353 	stccc	3, cr4, [r0, #-332]!
3005c968:	25783020 	ldrbcs	r3, [r8, #-32]!
3005c96c:	00000a78 	andeq	r0, r0, r8, ror sl
3005c970:	2d2d0a0a 	fstmdbscs	sp!, {s0-s9}
3005c974:	2d2d2d2d 	stccs	13, cr2, [sp, #-180]!
3005c978:	2d2d2d2d 	stccs	13, cr2, [sp, #-180]!
3005c97c:	2d2d2d2d 	stccs	13, cr2, [sp, #-180]!
3005c980:	2d2d2d2d 	stccs	13, cr2, [sp, #-180]!
3005c984:	2d2d2d2d 	stccs	13, cr2, [sp, #-180]!
3005c988:	2d2d2d2d 	stccs	13, cr2, [sp, #-180]!
3005c98c:	2d2d2d2d 	stccs	13, cr2, [sp, #-180]!
3005c990:	2d2d2d2d 	stccs	13, cr2, [sp, #-180]!
3005c994:	2d2d2d2d 	stccs	13, cr2, [sp, #-180]!
3005c998:	2d2d2d2d 	stccs	13, cr2, [sp, #-180]!
3005c99c:	2d2d2d2d 	stccs	13, cr2, [sp, #-180]!
3005c9a0:	2d2d2d2d 	stccs	13, cr2, [sp, #-180]!
3005c9a4:	2d2d2d2d 	stccs	13, cr2, [sp, #-180]!
3005c9a8:	000a0a2d 	andeq	r0, sl, sp, lsr #20
3005c9ac:	63756f74 	cmnvs	r5, #464	; 0x1d0
3005c9b0:	61685f68 	cmnvs	r8, r8, ror #30
3005c9b4:	656c646e 	strbvs	r6, [ip, #-1134]!
3005c9b8:	00000072 	andeq	r0, r0, r2, ror r0
3005c9bc:	64780a0a 	ldrbtvs	r0, [r8], #-2570
3005c9c0:	20617461 	rsbcs	r7, r1, r1, ror #8
3005c9c4:	6425203d 	strtvs	r2, [r5], #-61
3005c9c8:	6164790a 	cmnvs	r4, sl, lsl #18
3005c9cc:	3d206174 	stfccs	f6, [r0, #-464]!
3005c9d0:	0a642520 	beq	31965e58 <bss_end+0x18dbbe8>
3005c9d4:	0000000a 	andeq	r0, r0, sl
3005c9d8:	30396d64 	eorscc	r6, r9, r4, ror #26
3005c9dc:	695f3030 	ldmdbvs	pc, {r4, r5, ip, sp}^
3005c9e0:	695f746e 	ldmdbvs	pc, {r1, r2, r3, r5, r6, sl, ip, sp, lr}^
3005c9e4:	0a74696e 	beq	31d76fa4 <bss_end+0x1cecd34>
3005c9e8:	00000000 	andeq	r0, r0, r0
3005c9ec:	30394d44 	eorscc	r4, r9, r4, asr #26
3005c9f0:	725f3030 	subsvc	r3, pc, #48	; 0x30
3005c9f4:	74657365 	strbtvc	r7, [r5], #-869
3005c9f8:	0000000a 	andeq	r0, r0, sl
3005c9fc:	4f525245 	svcmi	0x00525245
3005ca00:	72203a52 	eorvc	r3, r0, #335872	; 0x52000
3005ca04:	74657365 	strbtvc	r7, [r5], #-869
3005ca08:	676e6974 	undefined
3005ca0c:	394d4420 	stmdbcc	sp, {r5, sl, lr}^
3005ca10:	20303030 	eorscs	r3, r0, r0, lsr r0
3005ca14:	6e203e2d 	cdpvs	14, 2, cr3, cr0, cr13, {1}
3005ca18:	7220746f 	eorvc	r7, r0, #1862270976	; 0x6f000000
3005ca1c:	6f707365 	svcvs	0x00707365
3005ca20:	6e69646e 	cdpvs	4, 6, cr6, cr9, cr14, {3}
3005ca24:	00000a67 	andeq	r0, r0, r7, ror #20
3005ca28:	30396d64 	eorscc	r6, r9, r4, ror #26
3005ca2c:	70203030 	eorvc	r3, r0, r0, lsr r0
3005ca30:	65626f72 	strbvs	r6, [r2, #-3954]!
3005ca34:	69202c64 	stmdbvs	r0!, {r2, r5, r6, sl, fp, sp}
3005ca38:	206f666e 	rsbcs	r6, pc, lr, ror #12
3005ca3c:	62207361 	eorvs	r7, r0, #-2080374783	; 0x84000001
3005ca40:	776f6c65 	strbvc	r6, [pc, -r5, ror #24]!
3005ca44:	00000a3a 	andeq	r0, r0, sl, lsr sl
3005ca48:	30396d64 	eorscc	r6, r9, r4, ror #26
3005ca4c:	69203030 	stmdbvs	r0!, {r4, r5, ip, sp}
3005ca50:	203a6f2f 	eorscs	r6, sl, pc, lsr #30
3005ca54:	78257830 	stmdavc	r5!, {r4, r5, fp, ip, sp, lr}
3005ca58:	00000a20 	andeq	r0, r0, r0, lsr #20
3005ca5c:	30396d64 	eorscc	r6, r9, r4, ror #26
3005ca60:	69203030 	stmdbvs	r0!, {r4, r5, ip, sp}
3005ca64:	30203a64 	eorcc	r3, r0, r4, ror #20
3005ca68:	20782578 	rsbscs	r2, r8, r8, ror r5
3005ca6c:	0000000a 	andeq	r0, r0, sl
3005ca70:	30396d64 	eorscc	r6, r9, r4, ror #26
3005ca74:	63203030 	teqvs	r0, #48	; 0x30
3005ca78:	5f706968 	svcpl	0x00706968
3005ca7c:	3a766572 	bcc	31df604c <bss_end+0x1d6bddc>
3005ca80:	25783020 	ldrbcs	r3, [r8, #-32]!
3005ca84:	000a2078 	andeq	r2, sl, r8, ror r0
3005ca88:	30396d64 	eorscc	r6, r9, r4, ror #26
3005ca8c:	20203030 	eorcs	r3, r0, r0, lsr r0
3005ca90:	20746f6e 	rsbscs	r6, r4, lr, ror #30
3005ca94:	626f7270 	rsbvs	r7, pc, #7	; 0x7
3005ca98:	000a6465 	andeq	r6, sl, r5, ror #8
3005ca9c:	2d2d2d2d 	stccs	13, cr2, [sp, #-180]!
3005caa0:	2d2d2d2d 	stccs	13, cr2, [sp, #-180]!
3005caa4:	2d2d2d2d 	stccs	13, cr2, [sp, #-180]!
3005caa8:	2d2d2d2d 	stccs	13, cr2, [sp, #-180]!
3005caac:	396d6420 	stmdbcc	sp!, {r5, sl, sp, lr}^
3005cab0:	5f303030 	svcpl	0x00303030
3005cab4:	74696e69 	strbtvc	r6, [r9], #-3689
3005cab8:	2d2d2d20 	stccs	13, cr2, [sp, #-128]!
3005cabc:	2d2d2d2d 	stccs	13, cr2, [sp, #-180]!
3005cac0:	2d2d2d2d 	stccs	13, cr2, [sp, #-180]!
3005cac4:	2d2d2d2d 	stccs	13, cr2, [sp, #-180]!
3005cac8:	000a2d2d 	andeq	r2, sl, sp, lsr #26
3005cacc:	30394d44 	eorscc	r4, r9, r4, asr #26
3005cad0:	203a3030 	eorscs	r3, sl, r0, lsr r0
3005cad4:	6e6e7572 	mcrvs	5, 3, r7, cr14, cr2, {3}
3005cad8:	20676e69 	rsbcs	r6, r7, r9, ror #28
3005cadc:	31206e69 	teqcc	r0, r9, ror #28
3005cae0:	69622036 	stmdbvs	r2!, {r1, r2, r4, r5, sp}^
3005cae4:	6f6d2074 	svcvs	0x006d2074
3005cae8:	000a6564 	andeq	r6, sl, r4, ror #10
3005caec:	30394d44 	eorscc	r4, r9, r4, asr #26
3005caf0:	203a3030 	eorscs	r3, sl, r0, lsr r0
3005caf4:	6e6e7572 	mcrvs	5, 3, r7, cr14, cr2, {3}
3005caf8:	20676e69 	rsbcs	r6, r7, r9, ror #28
3005cafc:	33206e69 	teqcc	r0, #1680	; 0x690
3005cb00:	69622032 	stmdbvs	r2!, {r1, r4, r5, sp}^
3005cb04:	6f6d2074 	svcvs	0x006d2074
3005cb08:	000a6564 	andeq	r6, sl, r4, ror #10
3005cb0c:	30394d44 	eorscc	r4, r9, r4, asr #26
3005cb10:	203a3030 	eorscs	r3, sl, r0, lsr r0
3005cb14:	6e6e7572 	mcrvs	5, 3, r7, cr14, cr2, {3}
3005cb18:	20676e69 	rsbcs	r6, r7, r9, ror #28
3005cb1c:	38206e69 	stmdacc	r0!, {r0, r3, r5, r6, r9, sl, fp, sp, lr}
3005cb20:	74696220 	strbtvc	r6, [r9], #-544
3005cb24:	646f6d20 	strbtvs	r6, [pc], #3360	; 3005cb2c <__aeabi_idiv0+0x1084>
3005cb28:	00000a65 	andeq	r0, r0, r5, ror #20
3005cb2c:	30394d44 	eorscc	r4, r9, r4, asr #26
3005cb30:	203a3030 	eorscs	r3, sl, r0, lsr r0
3005cb34:	65646e55 	strbvs	r6, [r4, #-3669]!
3005cb38:	656e6966 	strbvs	r6, [lr, #-2406]!
3005cb3c:	4f492064 	svcmi	0x00492064
3005cb40:	646f6d2d 	strbtvs	r6, [pc], #3373	; 3005cb48 <__aeabi_idiv0+0x10a0>
3005cb44:	78303a65 	ldmdavc	r0!, {r0, r2, r5, r6, r9, fp, ip, sp}
3005cb48:	000a7825 	andeq	r7, sl, r5, lsr #16
3005cb4c:	206b6e6c 	rsbcs	r6, fp, ip, ror #28
3005cb50:	7830203d 	ldmdavc	r0!, {r0, r2, r3, r4, r5, sp}
3005cb54:	000a7825 	andeq	r7, sl, r5, lsr #16
3005cb58:	7265706f 	rsbvc	r7, r5, #111	; 0x6f
3005cb5c:	6e697461 	cdpvs	4, 6, cr7, cr9, cr1, {3}
3005cb60:	74612067 	strbtvc	r2, [r1], #-103
3005cb64:	00000020 	andeq	r0, r0, r0, lsr #32
3005cb68:	204d3031 	subcs	r3, sp, r1, lsr r0
3005cb6c:	666c6168 	strbtvs	r6, [ip], -r8, ror #2
3005cb70:	70756420 	rsbsvc	r6, r5, r0, lsr #8
3005cb74:	2078656c 	rsbscs	r6, r8, ip, ror #10
3005cb78:	00000000 	andeq	r0, r0, r0
3005cb7c:	204d3031 	subcs	r3, sp, r1, lsr r0
3005cb80:	6c6c7566 	cfstr64vs	mvdx7, [ip], #-408
3005cb84:	70756420 	rsbsvc	r6, r5, r0, lsr #8
3005cb88:	2078656c 	rsbscs	r6, r8, ip, ror #10
3005cb8c:	00000000 	andeq	r0, r0, r0
3005cb90:	4d303031 	ldcmi	0, cr3, [r0, #-196]!
3005cb94:	6c616820 	stclvs	8, cr6, [r1], #-128
3005cb98:	75642066 	strbvc	r2, [r4, #-102]!
3005cb9c:	78656c70 	stmdavc	r5!, {r4, r5, r6, sl, fp, sp, lr}^
3005cba0:	00000020 	andeq	r0, r0, r0, lsr #32
3005cba4:	4d303031 	ldcmi	0, cr3, [r0, #-196]!
3005cba8:	6c756620 	ldclvs	6, cr6, [r5], #-128
3005cbac:	7564206c 	strbvc	r2, [r4, #-108]!
3005cbb0:	78656c70 	stmdavc	r5!, {r4, r5, r6, sl, fp, sp, lr}^
3005cbb4:	00000020 	andeq	r0, r0, r0, lsr #32
3005cbb8:	6e6b6e75 	mcrvs	14, 3, r6, cr11, cr5, {3}
3005cbbc:	3a6e776f 	bcc	31bfa980 <bss_end+0x1b70710>
3005cbc0:	20642520 	rsbcs	r2, r4, r0, lsr #10
3005cbc4:	00000000 	andeq	r0, r0, r0
3005cbc8:	65646f6d 	strbvs	r6, [r4, #-3949]!
3005cbcc:	0000000a 	andeq	r0, r0, sl
3005cbd0:	2d2d2d2d 	stccs	13, cr2, [sp, #-180]!
3005cbd4:	2d2d2d2d 	stccs	13, cr2, [sp, #-180]!
3005cbd8:	2d2d2d2d 	stccs	13, cr2, [sp, #-180]!
3005cbdc:	2d2d2d2d 	stccs	13, cr2, [sp, #-180]!
3005cbe0:	396d6420 	stmdbcc	sp!, {r5, sl, sp, lr}^
3005cbe4:	5f303030 	svcpl	0x00303030
3005cbe8:	74696e69 	strbtvc	r6, [r9], #-3689
3005cbec:	6d6f6320 	stclvs	3, cr6, [pc, #-128]!
3005cbf0:	74656c70 	strbtvc	r6, [r5], #-3184
3005cbf4:	2d2d2065 	stccs	0, cr2, [sp, #-404]!
3005cbf8:	2d2d2d2d 	stccs	13, cr2, [sp, #-180]!
3005cbfc:	2d2d2d2d 	stccs	13, cr2, [sp, #-180]!
3005cc00:	2d2d2d2d 	stccs	13, cr2, [sp, #-180]!
3005cc04:	0a2d2d2d 	beq	30ba80c0 <bss_end+0xb1de50>
3005cc08:	00000000 	andeq	r0, r0, r0
3005cc0c:	0000000a 	andeq	r0, r0, sl
3005cc10:	00204325 	eoreq	r4, r0, r5, lsr #6
3005cc14:	30394d44 	eorscc	r4, r9, r4, asr #26
3005cc18:	74203030 	strtvc	r3, [r0], #-48
3005cc1c:	0a747365 	beq	31d799b8 <bss_end+0x1cef748>
3005cc20:	00000000 	andeq	r0, r0, r0
3005cc24:	74747542 	ldrbtvc	r7, [r4], #-1346
3005cc28:	49206e6f 	stmdbmi	r0!, {r0, r1, r2, r3, r5, r6, r9, sl, fp, sp, lr}
3005cc2c:	49207172 	stmdbmi	r0!, {r1, r4, r5, r6, r8, ip, sp, lr}
3005cc30:	0a74696e 	beq	31d771f0 <bss_end+0x1cecf80>
3005cc34:	00000000 	andeq	r0, r0, r0
3005cc38:	72737043 	rsbsvc	r7, r3, #67	; 0x43
3005cc3c:	30203d20 	eorcc	r3, r0, r0, lsr #26
3005cc40:	0a782578 	beq	31e66228 <bss_end+0x1ddbfb8>
3005cc44:	00000000 	andeq	r0, r0, r0
3005cc48:	61656c43 	cmnvs	r5, r3, asr #24
3005cc4c:	75422072 	strbvc	r2, [r2, #-114]
3005cc50:	6e6f7474 	mcrvs	4, 3, r7, cr15, cr4, {3}
3005cc54:	71724920 	cmnvc	r2, r0, lsr #18
3005cc58:	0000000a 	andeq	r0, r0, sl
3005cc5c:	2d2d2d0a 	stccs	13, cr2, [sp, #-40]!
3005cc60:	2d2d2d2d 	stccs	13, cr2, [sp, #-180]!
3005cc64:	2d2d2d2d 	stccs	13, cr2, [sp, #-180]!
3005cc68:	2d2d2d2d 	stccs	13, cr2, [sp, #-180]!
3005cc6c:	74754220 	ldrbtvc	r4, [r5], #-544
3005cc70:	206e6f74 	rsbcs	r6, lr, r4, ror pc
3005cc74:	74736554 	ldrbtvc	r6, [r3], #-1364
3005cc78:	2d2d2d20 	stccs	13, cr2, [sp, #-128]!
3005cc7c:	2d2d2d2d 	stccs	13, cr2, [sp, #-180]!
3005cc80:	2d2d2d2d 	stccs	13, cr2, [sp, #-180]!
3005cc84:	2d2d2d2d 	stccs	13, cr2, [sp, #-180]!
3005cc88:	00000a2d 	andeq	r0, r0, sp, lsr #20
3005cc8c:	0000002e 	andeq	r0, r0, lr, lsr #32
3005cc90:	2d2d2d0a 	stccs	13, cr2, [sp, #-40]!
3005cc94:	2d2d2d2d 	stccs	13, cr2, [sp, #-180]!
3005cc98:	2d2d2d2d 	stccs	13, cr2, [sp, #-180]!
3005cc9c:	2d2d2d2d 	stccs	13, cr2, [sp, #-180]!
3005cca0:	74754220 	ldrbtvc	r4, [r5], #-544
3005cca4:	206e6f74 	rsbcs	r6, lr, r4, ror pc
3005cca8:	74736554 	ldrbtvc	r6, [r3], #-1364
3005ccac:	65764f20 	ldrbvs	r4, [r6, #-3872]!
3005ccb0:	2d2d2072 	stccs	0, cr2, [sp, #-456]!
3005ccb4:	2d2d2d2d 	stccs	13, cr2, [sp, #-180]!
3005ccb8:	2d2d2d2d 	stccs	13, cr2, [sp, #-180]!
3005ccbc:	2d2d2d2d 	stccs	13, cr2, [sp, #-180]!
3005ccc0:	000a2d2d 	andeq	r2, sl, sp, lsr #26
3005ccc4:	66756264 	ldrbtvs	r6, [r5], -r4, ror #4
3005ccc8:	66656220 	strbtvs	r6, [r5], -r0, lsr #4
3005cccc:	4920726f 	stmdbmi	r0!, {r0, r1, r2, r3, r5, r6, r9, ip, sp, lr}
3005ccd0:	72204332 	eorvc	r4, r0, #-939524096	; 0xc8000000
3005ccd4:	3a646165 	bcc	31975270 <bss_end+0x18eb000>
3005ccd8:	00000a0d 	andeq	r0, r0, sp, lsl #20
3005ccdc:	00000a0d 	andeq	r0, r0, sp, lsl #20
3005cce0:	00096425 	andeq	r6, r9, r5, lsr #8
3005cce4:	20633269 	rsbcs	r3, r3, r9, ror #4
3005cce8:	64616572 	strbtvs	r6, [r1], #-1394
3005ccec:	2c676e69 	stclcs	14, cr6, [r7], #-420
3005ccf0:	656c7020 	strbvs	r7, [ip, #-32]!
3005ccf4:	77206573 	undefined
3005ccf8:	21746961 	cmncs	r4, r1, ror #18
3005ccfc:	00000d0a 	andeq	r0, r0, sl, lsl #26
3005cd00:	66756264 	ldrbtvs	r6, [r5], -r4, ror #4
3005cd04:	74666120 	strbtvc	r6, [r6], #-288
3005cd08:	49207265 	stmdbmi	r0!, {r0, r2, r5, r6, r9, ip, sp, lr}
3005cd0c:	72204332 	eorvc	r4, r0, #-939524096	; 0xc8000000
3005cd10:	3a646165 	bcc	319752ac <bss_end+0x18eb03c>
3005cd14:	00000a0d 	andeq	r0, r0, sp, lsl #20
3005cd18:	2d2d2d2d 	stccs	13, cr2, [sp, #-180]!
3005cd1c:	2d2d2d2d 	stccs	13, cr2, [sp, #-180]!
3005cd20:	2d2d2d2d 	stccs	13, cr2, [sp, #-180]!
3005cd24:	2d2d2d2d 	stccs	13, cr2, [sp, #-180]!
3005cd28:	2d2d2d2d 	stccs	13, cr2, [sp, #-180]!
3005cd2c:	54202d2d 	strtpl	r2, [r0], #-3373
3005cd30:	72656d69 	rsbvc	r6, r5, #6720	; 0x1a40
3005cd34:	67657220 	strbvs	r7, [r5, -r0, lsr #4]!
3005cd38:	65747369 	ldrbvs	r7, [r4, #-873]!
3005cd3c:	2d2d2072 	stccs	0, cr2, [sp, #-456]!
3005cd40:	2d2d2d2d 	stccs	13, cr2, [sp, #-180]!
3005cd44:	2d2d2d2d 	stccs	13, cr2, [sp, #-180]!
3005cd48:	2d2d2d2d 	stccs	13, cr2, [sp, #-180]!
3005cd4c:	2d2d2d2d 	stccs	13, cr2, [sp, #-180]!
3005cd50:	2d2d2d2d 	stccs	13, cr2, [sp, #-180]!
3005cd54:	00000a2d 	andeq	r0, r0, sp, lsr #20
3005cd58:	47464354 	smlsldmi	r4, r6, r4, r3
3005cd5c:	203d2030 	eorscs	r2, sp, r0, lsr r0
3005cd60:	78257830 	stmdavc	r5!, {r4, r5, fp, ip, sp, lr}
3005cd64:	0000000a 	andeq	r0, r0, sl
3005cd68:	47464354 	smlsldmi	r4, r6, r4, r3
3005cd6c:	203d2031 	eorscs	r2, sp, r1, lsr r0
3005cd70:	78257830 	stmdavc	r5!, {r4, r5, fp, ip, sp, lr}
3005cd74:	0000000a 	andeq	r0, r0, sl
3005cd78:	4e4f4354 	mcrmi	3, 2, r4, cr15, cr4, {2}
3005cd7c:	30203d20 	eorcc	r3, r0, r0, lsr #26
3005cd80:	0a782578 	beq	31e66368 <bss_end+0x1ddc0f8>
3005cd84:	00000000 	andeq	r0, r0, r0
3005cd88:	544e4354 	strbpl	r4, [lr], #-852
3005cd8c:	3d203442 	cfstrscc	mvf3, [r0, #-264]!
3005cd90:	25783020 	ldrbcs	r3, [r8, #-32]!
3005cd94:	00000a78 	andeq	r0, r0, r8, ror sl
3005cd98:	2d2d2d2d 	stccs	13, cr2, [sp, #-180]!
3005cd9c:	2d2d2d2d 	stccs	13, cr2, [sp, #-180]!
3005cda0:	2d2d2d2d 	stccs	13, cr2, [sp, #-180]!
3005cda4:	2d2d2d2d 	stccs	13, cr2, [sp, #-180]!
3005cda8:	2d2d2d2d 	stccs	13, cr2, [sp, #-180]!
3005cdac:	2d2d2d2d 	stccs	13, cr2, [sp, #-180]!
3005cdb0:	2d2d2d2d 	stccs	13, cr2, [sp, #-180]!
3005cdb4:	2d2d2d2d 	stccs	13, cr2, [sp, #-180]!
3005cdb8:	2d2d2d2d 	stccs	13, cr2, [sp, #-180]!
3005cdbc:	2d2d2d2d 	stccs	13, cr2, [sp, #-180]!
3005cdc0:	2d2d2d2d 	stccs	13, cr2, [sp, #-180]!
3005cdc4:	2d2d2d2d 	stccs	13, cr2, [sp, #-180]!
3005cdc8:	2d2d2d2d 	stccs	13, cr2, [sp, #-180]!
3005cdcc:	2d2d2d2d 	stccs	13, cr2, [sp, #-180]!
3005cdd0:	2d2d2d2d 	stccs	13, cr2, [sp, #-180]!
3005cdd4:	00000a2d 	andeq	r0, r0, sp, lsr #20
3005cdd8:	656d6954 	strbvs	r6, [sp, #-2388]!
3005cddc:	49203a72 	stmdbmi	r0!, {r1, r4, r5, r6, r9, fp, ip, sp}
3005cde0:	6c61766e 	stclvs	6, cr7, [r1], #-440
3005cde4:	70206469 	eorvc	r6, r0, r9, ror #8
3005cde8:	63736572 	cmnvs	r3, #478150656	; 0x1c800000
3005cdec:	72656c61 	rsbvc	r6, r5, #24832	; 0x6100
3005cdf0:	2e6f4e20 	cdpcs	14, 6, cr4, cr15, cr0, {1}
3005cdf4:	0000000a 	andeq	r0, r0, sl
3005cdf8:	656d6954 	strbvs	r6, [sp, #-2388]!
3005cdfc:	49203a72 	stmdbmi	r0!, {r1, r4, r5, r6, r9, fp, ip, sp}
3005ce00:	6c61766e 	stclvs	6, cr7, [r1], #-440
3005ce04:	74206469 	strtvc	r6, [r0], #-1129
3005ce08:	72656d69 	rsbvc	r6, r5, #6720	; 0x1a40
3005ce0c:	2e6f4e20 	cdpcs	14, 6, cr4, cr15, cr0, {1}
3005ce10:	0000000a 	andeq	r0, r0, sl
3005ce14:	656d6954 	strbvs	r6, [sp, #-2388]!
3005ce18:	4e203a72 	mcrmi	10, 1, r3, cr0, cr2, {3}
3005ce1c:	7320746f 	teqvc	r0, #1862270976	; 0x6f000000
3005ce20:	6f707075 	svcvs	0x00707075
3005ce24:	000a7472 	andeq	r7, sl, r2, ror r4
3005ce28:	656d6954 	strbvs	r6, [sp, #-2388]!
3005ce2c:	73203472 	teqvc	r0, #1912602624	; 0x72000000
3005ce30:	74726174 	ldrbtvc	r6, [r2], #-372
3005ce34:	6e49203a 	mcrvs	0, 2, r2, cr9, cr10, {1}
3005ce38:	72726574 	rsbsvc	r6, r2, #486539264	; 0x1d000000
3005ce3c:	20747075 	rsbscs	r7, r4, r5, ror r0
3005ce40:	20676572 	rsbcs	r6, r7, r2, ror r5
3005ce44:	706d7564 	rsbvc	r7, sp, r4, ror #10
3005ce48:	2d2d2d2d 	stccs	13, cr2, [sp, #-180]!
3005ce4c:	0000000a 	andeq	r0, r0, sl
3005ce50:	656d6974 	strbvs	r6, [sp, #-2420]!
3005ce54:	6e493472 	mcrvs	4, 2, r3, cr9, cr2, {3}
3005ce58:	756f4374 	strbvc	r4, [pc, #-884]!	; 3005caec <__aeabi_idiv0+0x1044>
3005ce5c:	3d20746e 	cfstrscc	mvf7, [r0, #-440]!
3005ce60:	0a642520 	beq	319662e8 <bss_end+0x18dc078>
3005ce64:	00000000 	andeq	r0, r0, r0
3005ce68:	656d6974 	strbvs	r6, [sp, #-2420]!
3005ce6c:	69543472 	ldmdbvs	r4, {r1, r4, r5, r6, sl, ip, sp}^
3005ce70:	754f656d 	strbvc	r6, [pc, #-1389]	; 3005c90b <__aeabi_idiv0+0xe63>
3005ce74:	203d2074 	eorscs	r2, sp, r4, ror r0
3005ce78:	000a6425 	andeq	r6, sl, r5, lsr #8
3005ce7c:	656d6974 	strbvs	r6, [sp, #-2420]!
3005ce80:	69543472 	ldmdbvs	r4, {r1, r4, r5, r6, sl, ip, sp}^
3005ce84:	754f656d 	strbvc	r6, [pc, #-1389]	; 3005c91f <__aeabi_idiv0+0xe77>
3005ce88:	616c4674 	smcvs	50276
3005ce8c:	203d2067 	eorscs	r2, sp, r7, rrx
3005ce90:	000a6425 	andeq	r6, sl, r5, lsr #8
3005ce94:	65746f6e 	ldrbvs	r6, [r4, #-3950]!
3005ce98:	31746547 	cmncc	r4, r7, asr #10
3005ce9c:	6f633e2d 	svcvs	0x00633e2d
3005cea0:	6e616d6d 	cdpvs	13, 6, cr6, cr1, cr13, {3}
3005cea4:	203d2064 	eorscs	r2, sp, r4, rrx
3005cea8:	0a0a7825 	beq	302faf44 <bss_end+0x270cd4>
3005ceac:	00000000 	andeq	r0, r0, r0

3005ceb0 <C.3.1348>:
3005ceb0:	06070809 	.word	0x06070809
3005ceb4:	0405      	.short	0x0405

3005ceb6 <C.2.1347>:
3005ceb6:	ffff      	.short	0xffff
3005ceb8:	ffffffff 	.word	0xffffffff

3005cebc <C.1.1346>:
3005cebc:	1401a8c0 	.word	0x1401a8c0

3005cec0 <C.0.1345>:
3005cec0:	6801a8c0 	.word	0x6801a8c0

3005cec4 <C.5.1385>:
3005cec4:	1401a8c0 	.word	0x1401a8c0

3005cec8 <C.4.1384>:
3005cec8:	06070809 	.word	0x06070809
3005cecc:	00000405 	.word	0x00000405
3005ced0:	736f480a 	.word	0x736f480a
3005ced4:	70692074 	.word	0x70692074
3005ced8:	00203d20 	.word	0x00203d20
3005cedc:	00206425 	.word	0x00206425
3005cee0:	736f480a 	.word	0x736f480a
3005cee4:	616d2074 	.word	0x616d2074
3005cee8:	203d2063 	.word	0x203d2063
3005ceec:	00000000 	.word	0x00000000
3005cef0:	00204325 	.word	0x00204325
3005cef4:	0000000a 	.word	0x0000000a
3005cef8:	5f707261 	.word	0x5f707261
3005cefc:	74736574 	.word	0x74736574
3005cf00:	0000000a 	.word	0x0000000a

3005cf04 <C.4.920>:
3005cf04:	6801a8c0 	.word	0x6801a8c0

3005cf08 <C.3.919>:
3005cf08:	1401a8c0 	.word	0x1401a8c0

3005cf0c <C.2.918>:
3005cf0c:	75290c00 	.word	0x75290c00
3005cf10:	288f      	.short	0x288f

3005cf12 <C.1.917>:
3005cf12:	0809      	.short	0x0809
3005cf14:	04050607 	.word	0x04050607
3005cf18:	6574636f 	.word	0x6574636f
3005cf1c:	0074      	.short	0x0074

3005cf1e <C.9.984>:
3005cf1e:	a8c0      	.short	0xa8c0
3005cf20:	6801      	.short	0x6801

3005cf22 <C.8.983>:
3005cf22:	a8c0      	.short	0xa8c0
3005cf24:	1401      	.short	0x1401

3005cf26 <C.7.982>:
3005cf26:	0c00      	.short	0x0c00
3005cf28:	288f7529 	.word	0x288f7529

3005cf2c <C.6.981>:
3005cf2c:	06070809 	.word	0x06070809
3005cf30:	00000405 	.word	0x00000405
3005cf34:	656e6f44 	.word	0x656e6f44
3005cf38:	0000000a 	.word	0x0000000a
3005cf3c:	616d497a 	.word	0x616d497a
3005cf40:	00006567 	.word	0x00006567
3005cf44:	0000002e 	.word	0x0000002e
Disassembly of section .data:

3005cf48 <gdiags_commonds>:
3005cf48:	3005bb1c 	.word	0x3005bb1c
3005cf4c:	3005bb20 	.word	0x3005bb20
3005cf50:	30050340 	.word	0x30050340
3005cf54:	3005bb30 	.word	0x3005bb30
3005cf58:	3005bb34 	.word	0x3005bb34
3005cf5c:	3005037c 	.word	0x3005037c
3005cf60:	3005bb40 	.word	0x3005bb40
3005cf64:	3005bb44 	.word	0x3005bb44
3005cf68:	30053b00 	.word	0x30053b00
3005cf6c:	3005bb50 	.word	0x3005bb50
3005cf70:	3005bb58 	.word	0x3005bb58
3005cf74:	300560a0 	.word	0x300560a0
3005cf78:	3005bc8c 	.word	0x3005bc8c
3005cf7c:	3005bc90 	.word	0x3005bc90
3005cf80:	30056ea8 	.word	0x30056ea8
3005cf84:	3005bc9c 	.word	0x3005bc9c
3005cf88:	3005bca4 	.word	0x3005bca4
3005cf8c:	30058c5c 	.word	0x30058c5c
3005cf90:	3005bcb0 	.word	0x3005bcb0
3005cf94:	3005bcb4 	.word	0x3005bcb4
3005cf98:	3005ac48 	.word	0x3005ac48
3005cf9c:	3005bcc0 	.word	0x3005bcc0
3005cfa0:	3005bcc8 	.word	0x3005bcc8
3005cfa4:	3005b67c 	.word	0x3005b67c
3005cfa8:	3005bcd4 	.word	0x3005bcd4
3005cfac:	3005bcdc 	.word	0x3005bcdc
3005cfb0:	30050a68 	.word	0x30050a68
3005cfb4:	3005bcf0 	.word	0x3005bcf0
3005cfb8:	3005bcf8 	.word	0x3005bcf8
3005cfbc:	30059034 	.word	0x30059034
3005cfc0:	3005bd04 	.word	0x3005bd04
3005cfc4:	3005bd08 	.word	0x3005bd08
3005cfc8:	300596c8 	.word	0x300596c8
3005cfcc:	3005bd14 	.word	0x3005bd14
3005cfd0:	3005bd18 	.word	0x3005bd18
3005cfd4:	30057d20 	.word	0x30057d20
3005cfd8:	3005bd24 	.word	0x3005bd24
3005cfdc:	3005bd2c 	.word	0x3005bd2c
3005cfe0:	300503b8 	.word	0x300503b8
3005cfe4:	3005bd38 	.word	0x3005bd38
3005cfe8:	3005bd40 	.word	0x3005bd40
3005cfec:	3005a678 	.word	0x3005a678
3005cff0:	3005bd50 	.word	0x3005bd50
3005cff4:	3005bd58 	.word	0x3005bd58
3005cff8:	3005030c 	.word	0x3005030c
3005cffc:	3005bd68 	.word	0x3005bd68
3005d000:	3005bd70 	.word	0x3005bd70
3005d004:	30050404 	.word	0x30050404

3005d008 <cmdline>:
3005d008:	3005bdb0 	.word	0x3005bdb0

3005d00c <deci_convert_table>:
3005d00c:	33323130 	.word	0x33323130
3005d010:	37363534 	.word	0x37363534
3005d014:	3938      	.short	0x3938

3005d016 <hex_convert_table>:
3005d016:	3130      	.short	0x3130
3005d018:	35343332 	.word	0x35343332
3005d01c:	39383736 	.word	0x39383736
3005d020:	44434241 	.word	0x44434241
3005d024:	4645      	.short	0x4645

3005d026 <global_ascii_template>:
3005d026:	0041      	.short	0x0041
3005d028:	00000000 	.word	0x00000000
3005d02c:	f0000000 	.word	0xf0000000
3005d030:	0000f000 	.word	0x0000f000
	...
3005d03c:	f0000000 	.word	0xf0000000
3005d040:	0000f000 	.word	0x0000f000
3005d044:	00000000 	.word	0x00000000
3005d048:	f0000000 	.word	0xf0000000
3005d04c:	0000f000 	.word	0x0000f000
3005d050:	f0000000 	.word	0xf0000000
3005d054:	0000f000 	.word	0x0000f000
3005d058:	f0000000 	.word	0xf0000000
3005d05c:	0000f000 	.word	0x0000f000
3005d060:	f0000000 	.word	0xf0000000
3005d064:	0000f000 	.word	0x0000f000
3005d068:	f0000000 	.word	0xf0000000
3005d06c:	0000f000 	.word	0x0000f000
3005d070:	f0000000 	.word	0xf0000000
3005d074:	0000f000 	.word	0x0000f000
3005d078:	f0000000 	.word	0xf0000000
3005d07c:	0000f000 	.word	0x0000f000
3005d080:	f0000000 	.word	0xf0000000
3005d084:	0000f000 	.word	0x0000f000
3005d088:	f0000000 	.word	0xf0000000
3005d08c:	0000f000 	.word	0x0000f000
3005d090:	f0000000 	.word	0xf0000000
3005d094:	0000f000 	.word	0x0000f000
3005d098:	f0000000 	.word	0xf0000000
3005d09c:	f000f000 	.word	0xf000f000
3005d0a0:	f000f000 	.word	0xf000f000
3005d0a4:	0000f000 	.word	0x0000f000
3005d0a8:	f0000000 	.word	0xf0000000
3005d0ac:	f000f000 	.word	0xf000f000
3005d0b0:	f000f000 	.word	0xf000f000
3005d0b4:	0000f000 	.word	0x0000f000
3005d0b8:	f0000000 	.word	0xf0000000
3005d0bc:	0000f000 	.word	0x0000f000
3005d0c0:	f0000000 	.word	0xf0000000
3005d0c4:	0000f000 	.word	0x0000f000
3005d0c8:	f0000000 	.word	0xf0000000
3005d0cc:	0000f000 	.word	0x0000f000
3005d0d0:	f0000000 	.word	0xf0000000
3005d0d4:	0000f000 	.word	0x0000f000
3005d0d8:	f0000000 	.word	0xf0000000
3005d0dc:	0000f000 	.word	0x0000f000
3005d0e0:	f0000000 	.word	0xf0000000
3005d0e4:	0000f000 	.word	0x0000f000
3005d0e8:	f0000000 	.word	0xf0000000
3005d0ec:	0000f000 	.word	0x0000f000
3005d0f0:	f0000000 	.word	0xf0000000
3005d0f4:	0000f000 	.word	0x0000f000
3005d0f8:	f0000000 	.word	0xf0000000
3005d0fc:	0000f000 	.word	0x0000f000
3005d100:	f0000000 	.word	0xf0000000
3005d104:	0000f000 	.word	0x0000f000
3005d108:	f0000000 	.word	0xf0000000
3005d10c:	0000f000 	.word	0x0000f000
3005d110:	f0000000 	.word	0xf0000000
3005d114:	0000f000 	.word	0x0000f000
3005d118:	f0000000 	.word	0xf0000000
3005d11c:	0000f000 	.word	0x0000f000
3005d120:	f0000000 	.word	0xf0000000
3005d124:	0000f000 	.word	0x0000f000
3005d128:	00000042 	.word	0x00000042
3005d12c:	f000f000 	.word	0xf000f000
3005d130:	f000f000 	.word	0xf000f000
	...
3005d13c:	f000f000 	.word	0xf000f000
3005d140:	f000f000 	.word	0xf000f000
	...
3005d14c:	f000f000 	.word	0xf000f000
3005d150:	00000000 	.word	0x00000000
3005d154:	f000f000 	.word	0xf000f000
3005d158:	00000000 	.word	0x00000000
3005d15c:	f000f000 	.word	0xf000f000
3005d160:	00000000 	.word	0x00000000
3005d164:	f000f000 	.word	0xf000f000
3005d168:	00000000 	.word	0x00000000
3005d16c:	f000f000 	.word	0xf000f000
3005d170:	00000000 	.word	0x00000000
3005d174:	f000f000 	.word	0xf000f000
3005d178:	00000000 	.word	0x00000000
3005d17c:	f000f000 	.word	0xf000f000
3005d180:	00000000 	.word	0x00000000
3005d184:	f000f000 	.word	0xf000f000
3005d188:	00000000 	.word	0x00000000
3005d18c:	f000f000 	.word	0xf000f000
3005d190:	00000000 	.word	0x00000000
3005d194:	f000f000 	.word	0xf000f000
3005d198:	00000000 	.word	0x00000000
3005d19c:	f000f000 	.word	0xf000f000
3005d1a0:	f000f000 	.word	0xf000f000
	...
3005d1ac:	f000f000 	.word	0xf000f000
3005d1b0:	f000f000 	.word	0xf000f000
	...
3005d1bc:	f000f000 	.word	0xf000f000
3005d1c0:	00000000 	.word	0x00000000
3005d1c4:	f000f000 	.word	0xf000f000
3005d1c8:	00000000 	.word	0x00000000
3005d1cc:	f000f000 	.word	0xf000f000
3005d1d0:	00000000 	.word	0x00000000
3005d1d4:	f000f000 	.word	0xf000f000
3005d1d8:	00000000 	.word	0x00000000
3005d1dc:	f000f000 	.word	0xf000f000
3005d1e0:	00000000 	.word	0x00000000
3005d1e4:	f000f000 	.word	0xf000f000
3005d1e8:	00000000 	.word	0x00000000
3005d1ec:	f000f000 	.word	0xf000f000
3005d1f0:	00000000 	.word	0x00000000
3005d1f4:	f000f000 	.word	0xf000f000
3005d1f8:	00000000 	.word	0x00000000
3005d1fc:	f000f000 	.word	0xf000f000
3005d200:	00000000 	.word	0x00000000
3005d204:	f000f000 	.word	0xf000f000
3005d208:	00000000 	.word	0x00000000
3005d20c:	f000f000 	.word	0xf000f000
3005d210:	f000f000 	.word	0xf000f000
	...
3005d21c:	f000f000 	.word	0xf000f000
3005d220:	f000f000 	.word	0xf000f000
3005d224:	00000000 	.word	0x00000000
3005d228:	00430000 	.word	0x00430000
3005d22c:	00000000 	.word	0x00000000
3005d230:	f0000000 	.word	0xf0000000
3005d234:	0000f000 	.word	0x0000f000
	...
3005d240:	f0000000 	.word	0xf0000000
3005d244:	0000f000 	.word	0x0000f000
3005d248:	00000000 	.word	0x00000000
3005d24c:	f0000000 	.word	0xf0000000
3005d250:	0000f000 	.word	0x0000f000
3005d254:	f0000000 	.word	0xf0000000
3005d258:	0000f000 	.word	0x0000f000
3005d25c:	f0000000 	.word	0xf0000000
3005d260:	0000f000 	.word	0x0000f000
3005d264:	f0000000 	.word	0xf0000000
3005d268:	0000f000 	.word	0x0000f000
3005d26c:	f0000000 	.word	0xf0000000
3005d270:	0000f000 	.word	0x0000f000
	...
3005d27c:	f0000000 	.word	0xf0000000
3005d280:	0000f000 	.word	0x0000f000
	...
3005d28c:	f0000000 	.word	0xf0000000
3005d290:	0000f000 	.word	0x0000f000
	...
3005d29c:	f0000000 	.word	0xf0000000
3005d2a0:	0000f000 	.word	0x0000f000
	...
3005d2ac:	f0000000 	.word	0xf0000000
3005d2b0:	0000f000 	.word	0x0000f000
	...
3005d2bc:	f0000000 	.word	0xf0000000
3005d2c0:	0000f000 	.word	0x0000f000
	...
3005d2cc:	f0000000 	.word	0xf0000000
3005d2d0:	0000f000 	.word	0x0000f000
	...
3005d2dc:	f0000000 	.word	0xf0000000
3005d2e0:	0000f000 	.word	0x0000f000
	...
3005d2ec:	f0000000 	.word	0xf0000000
3005d2f0:	0000f000 	.word	0x0000f000
3005d2f4:	f0000000 	.word	0xf0000000
3005d2f8:	0000f000 	.word	0x0000f000
3005d2fc:	f0000000 	.word	0xf0000000
3005d300:	0000f000 	.word	0x0000f000
3005d304:	f0000000 	.word	0xf0000000
3005d308:	0000f000 	.word	0x0000f000
3005d30c:	00000000 	.word	0x00000000
3005d310:	f0000000 	.word	0xf0000000
3005d314:	0000f000 	.word	0x0000f000
	...
3005d320:	f0000000 	.word	0xf0000000
3005d324:	0000f000 	.word	0x0000f000
3005d328:	00000000 	.word	0x00000000
3005d32c:	00000044 	.word	0x00000044
3005d330:	f000f000 	.word	0xf000f000
3005d334:	f000f000 	.word	0xf000f000
	...
3005d340:	f000f000 	.word	0xf000f000
3005d344:	f000f000 	.word	0xf000f000
	...
3005d350:	f000f000 	.word	0xf000f000
3005d354:	00000000 	.word	0x00000000
3005d358:	f000f000 	.word	0xf000f000
3005d35c:	00000000 	.word	0x00000000
3005d360:	f000f000 	.word	0xf000f000
3005d364:	00000000 	.word	0x00000000
3005d368:	f000f000 	.word	0xf000f000
3005d36c:	00000000 	.word	0x00000000
3005d370:	f000f000 	.word	0xf000f000
3005d374:	00000000 	.word	0x00000000
3005d378:	f000f000 	.word	0xf000f000
3005d37c:	00000000 	.word	0x00000000
3005d380:	f000f000 	.word	0xf000f000
3005d384:	00000000 	.word	0x00000000
3005d388:	f000f000 	.word	0xf000f000
3005d38c:	00000000 	.word	0x00000000
3005d390:	f000f000 	.word	0xf000f000
3005d394:	00000000 	.word	0x00000000
3005d398:	f000f000 	.word	0xf000f000
3005d39c:	00000000 	.word	0x00000000
3005d3a0:	f000f000 	.word	0xf000f000
3005d3a4:	00000000 	.word	0x00000000
3005d3a8:	f000f000 	.word	0xf000f000
3005d3ac:	00000000 	.word	0x00000000
3005d3b0:	f000f000 	.word	0xf000f000
3005d3b4:	00000000 	.word	0x00000000
3005d3b8:	f000f000 	.word	0xf000f000
3005d3bc:	00000000 	.word	0x00000000
3005d3c0:	f000f000 	.word	0xf000f000
3005d3c4:	00000000 	.word	0x00000000
3005d3c8:	f000f000 	.word	0xf000f000
3005d3cc:	00000000 	.word	0x00000000
3005d3d0:	f000f000 	.word	0xf000f000
3005d3d4:	00000000 	.word	0x00000000
3005d3d8:	f000f000 	.word	0xf000f000
3005d3dc:	00000000 	.word	0x00000000
3005d3e0:	f000f000 	.word	0xf000f000
3005d3e4:	00000000 	.word	0x00000000
3005d3e8:	f000f000 	.word	0xf000f000
3005d3ec:	00000000 	.word	0x00000000
3005d3f0:	f000f000 	.word	0xf000f000
3005d3f4:	00000000 	.word	0x00000000
3005d3f8:	f000f000 	.word	0xf000f000
3005d3fc:	00000000 	.word	0x00000000
3005d400:	f000f000 	.word	0xf000f000
3005d404:	00000000 	.word	0x00000000
3005d408:	f000f000 	.word	0xf000f000
3005d40c:	00000000 	.word	0x00000000
3005d410:	f000f000 	.word	0xf000f000
3005d414:	f000f000 	.word	0xf000f000
	...
3005d420:	f000f000 	.word	0xf000f000
3005d424:	f000f000 	.word	0xf000f000
3005d428:	00000000 	.word	0x00000000
3005d42c:	00450000 	.word	0x00450000
3005d430:	f0000000 	.word	0xf0000000
3005d434:	f000f000 	.word	0xf000f000
3005d438:	f000f000 	.word	0xf000f000
3005d43c:	0000f000 	.word	0x0000f000
3005d440:	f0000000 	.word	0xf0000000
3005d444:	f000f000 	.word	0xf000f000
3005d448:	f000f000 	.word	0xf000f000
3005d44c:	0000f000 	.word	0x0000f000
3005d450:	f0000000 	.word	0xf0000000
3005d454:	0000f000 	.word	0x0000f000
	...
3005d460:	f0000000 	.word	0xf0000000
3005d464:	0000f000 	.word	0x0000f000
	...
3005d470:	f0000000 	.word	0xf0000000
3005d474:	0000f000 	.word	0x0000f000
	...
3005d480:	f0000000 	.word	0xf0000000
3005d484:	0000f000 	.word	0x0000f000
	...
3005d490:	f0000000 	.word	0xf0000000
3005d494:	0000f000 	.word	0x0000f000
	...
3005d4a0:	f0000000 	.word	0xf0000000
3005d4a4:	f000f000 	.word	0xf000f000
3005d4a8:	f000f000 	.word	0xf000f000
3005d4ac:	0000f000 	.word	0x0000f000
3005d4b0:	f0000000 	.word	0xf0000000
3005d4b4:	f000f000 	.word	0xf000f000
3005d4b8:	f000f000 	.word	0xf000f000
3005d4bc:	0000f000 	.word	0x0000f000
3005d4c0:	f0000000 	.word	0xf0000000
3005d4c4:	0000f000 	.word	0x0000f000
	...
3005d4d0:	f0000000 	.word	0xf0000000
3005d4d4:	0000f000 	.word	0x0000f000
	...
3005d4e0:	f0000000 	.word	0xf0000000
3005d4e4:	0000f000 	.word	0x0000f000
	...
3005d4f0:	f0000000 	.word	0xf0000000
3005d4f4:	0000f000 	.word	0x0000f000
	...
3005d500:	f0000000 	.word	0xf0000000
3005d504:	0000f000 	.word	0x0000f000
	...
3005d510:	f0000000 	.word	0xf0000000
3005d514:	f000f000 	.word	0xf000f000
3005d518:	f000f000 	.word	0xf000f000
3005d51c:	0000f000 	.word	0x0000f000
3005d520:	f0000000 	.word	0xf0000000
3005d524:	f000f000 	.word	0xf000f000
3005d528:	f000f000 	.word	0xf000f000
3005d52c:	0000f000 	.word	0x0000f000
3005d530:	00000046 	.word	0x00000046
3005d534:	f000f000 	.word	0xf000f000
3005d538:	f000f000 	.word	0xf000f000
3005d53c:	f000f000 	.word	0xf000f000
3005d540:	00000000 	.word	0x00000000
3005d544:	f000f000 	.word	0xf000f000
3005d548:	f000f000 	.word	0xf000f000
3005d54c:	f000f000 	.word	0xf000f000
3005d550:	00000000 	.word	0x00000000
3005d554:	f000f000 	.word	0xf000f000
	...
3005d564:	f000f000 	.word	0xf000f000
	...
3005d574:	f000f000 	.word	0xf000f000
	...
3005d584:	f000f000 	.word	0xf000f000
	...
3005d594:	f000f000 	.word	0xf000f000
	...
3005d5a4:	f000f000 	.word	0xf000f000
3005d5a8:	f000f000 	.word	0xf000f000
3005d5ac:	f000f000 	.word	0xf000f000
3005d5b0:	00000000 	.word	0x00000000
3005d5b4:	f000f000 	.word	0xf000f000
3005d5b8:	f000f000 	.word	0xf000f000
3005d5bc:	f000f000 	.word	0xf000f000
3005d5c0:	00000000 	.word	0x00000000
3005d5c4:	f000f000 	.word	0xf000f000
	...
3005d5d4:	f000f000 	.word	0xf000f000
	...
3005d5e4:	f000f000 	.word	0xf000f000
	...
3005d5f4:	f000f000 	.word	0xf000f000
	...
3005d604:	f000f000 	.word	0xf000f000
	...
3005d614:	f000f000 	.word	0xf000f000
	...
3005d624:	f000f000 	.word	0xf000f000
	...
3005d630:	00470000 	.word	0x00470000
3005d634:	00000000 	.word	0x00000000
3005d638:	f0000000 	.word	0xf0000000
3005d63c:	0000f000 	.word	0x0000f000
	...
3005d648:	f0000000 	.word	0xf0000000
3005d64c:	0000f000 	.word	0x0000f000
3005d650:	00000000 	.word	0x00000000
3005d654:	f0000000 	.word	0xf0000000
3005d658:	0000f000 	.word	0x0000f000
3005d65c:	f0000000 	.word	0xf0000000
3005d660:	0000f000 	.word	0x0000f000
3005d664:	f0000000 	.word	0xf0000000
3005d668:	0000f000 	.word	0x0000f000
3005d66c:	f0000000 	.word	0xf0000000
3005d670:	0000f000 	.word	0x0000f000
3005d674:	f0000000 	.word	0xf0000000
3005d678:	0000f000 	.word	0x0000f000
	...
3005d684:	f0000000 	.word	0xf0000000
3005d688:	0000f000 	.word	0x0000f000
	...
3005d694:	f0000000 	.word	0xf0000000
3005d698:	0000f000 	.word	0x0000f000
	...
3005d6a4:	f0000000 	.word	0xf0000000
3005d6a8:	0000f000 	.word	0x0000f000
	...
3005d6b4:	f0000000 	.word	0xf0000000
3005d6b8:	0000f000 	.word	0x0000f000
	...
3005d6c4:	f0000000 	.word	0xf0000000
3005d6c8:	0000f000 	.word	0x0000f000
3005d6cc:	f000f000 	.word	0xf000f000
3005d6d0:	0000f000 	.word	0x0000f000
3005d6d4:	f0000000 	.word	0xf0000000
3005d6d8:	0000f000 	.word	0x0000f000
3005d6dc:	f000f000 	.word	0xf000f000
3005d6e0:	0000f000 	.word	0x0000f000
3005d6e4:	f0000000 	.word	0xf0000000
3005d6e8:	0000f000 	.word	0x0000f000
3005d6ec:	f0000000 	.word	0xf0000000
3005d6f0:	0000f000 	.word	0x0000f000
3005d6f4:	f0000000 	.word	0xf0000000
3005d6f8:	0000f000 	.word	0x0000f000
3005d6fc:	f0000000 	.word	0xf0000000
3005d700:	0000f000 	.word	0x0000f000
3005d704:	f0000000 	.word	0xf0000000
3005d708:	0000f000 	.word	0x0000f000
3005d70c:	f0000000 	.word	0xf0000000
3005d710:	0000f000 	.word	0x0000f000
3005d714:	00000000 	.word	0x00000000
3005d718:	f0000000 	.word	0xf0000000
3005d71c:	0000f000 	.word	0x0000f000
	...
3005d728:	f0000000 	.word	0xf0000000
3005d72c:	0000f000 	.word	0x0000f000
3005d730:	00000000 	.word	0x00000000
3005d734:	00000048 	.word	0x00000048
3005d738:	f000f000 	.word	0xf000f000
3005d73c:	00000000 	.word	0x00000000
3005d740:	f000f000 	.word	0xf000f000
3005d744:	00000000 	.word	0x00000000
3005d748:	f000f000 	.word	0xf000f000
3005d74c:	00000000 	.word	0x00000000
3005d750:	f000f000 	.word	0xf000f000
3005d754:	00000000 	.word	0x00000000
3005d758:	f000f000 	.word	0xf000f000
3005d75c:	00000000 	.word	0x00000000
3005d760:	f000f000 	.word	0xf000f000
3005d764:	00000000 	.word	0x00000000
3005d768:	f000f000 	.word	0xf000f000
3005d76c:	00000000 	.word	0x00000000
3005d770:	f000f000 	.word	0xf000f000
3005d774:	00000000 	.word	0x00000000
3005d778:	f000f000 	.word	0xf000f000
3005d77c:	00000000 	.word	0x00000000
3005d780:	f000f000 	.word	0xf000f000
3005d784:	00000000 	.word	0x00000000
3005d788:	f000f000 	.word	0xf000f000
3005d78c:	00000000 	.word	0x00000000
3005d790:	f000f000 	.word	0xf000f000
3005d794:	00000000 	.word	0x00000000
3005d798:	f000f000 	.word	0xf000f000
3005d79c:	00000000 	.word	0x00000000
3005d7a0:	f000f000 	.word	0xf000f000
3005d7a4:	00000000 	.word	0x00000000
3005d7a8:	f000f000 	.word	0xf000f000
3005d7ac:	f000f000 	.word	0xf000f000
3005d7b0:	f000f000 	.word	0xf000f000
3005d7b4:	00000000 	.word	0x00000000
3005d7b8:	f000f000 	.word	0xf000f000
3005d7bc:	f000f000 	.word	0xf000f000
3005d7c0:	f000f000 	.word	0xf000f000
3005d7c4:	00000000 	.word	0x00000000
3005d7c8:	f000f000 	.word	0xf000f000
3005d7cc:	00000000 	.word	0x00000000
3005d7d0:	f000f000 	.word	0xf000f000
3005d7d4:	00000000 	.word	0x00000000
3005d7d8:	f000f000 	.word	0xf000f000
3005d7dc:	00000000 	.word	0x00000000
3005d7e0:	f000f000 	.word	0xf000f000
3005d7e4:	00000000 	.word	0x00000000
3005d7e8:	f000f000 	.word	0xf000f000
3005d7ec:	00000000 	.word	0x00000000
3005d7f0:	f000f000 	.word	0xf000f000
3005d7f4:	00000000 	.word	0x00000000
3005d7f8:	f000f000 	.word	0xf000f000
3005d7fc:	00000000 	.word	0x00000000
3005d800:	f000f000 	.word	0xf000f000
3005d804:	00000000 	.word	0x00000000
3005d808:	f000f000 	.word	0xf000f000
3005d80c:	00000000 	.word	0x00000000
3005d810:	f000f000 	.word	0xf000f000
3005d814:	00000000 	.word	0x00000000
3005d818:	f000f000 	.word	0xf000f000
3005d81c:	00000000 	.word	0x00000000
3005d820:	f000f000 	.word	0xf000f000
3005d824:	00000000 	.word	0x00000000
3005d828:	f000f000 	.word	0xf000f000
3005d82c:	00000000 	.word	0x00000000
3005d830:	f000f000 	.word	0xf000f000
3005d834:	00490000 	.word	0x00490000
3005d838:	f0000000 	.word	0xf0000000
3005d83c:	f000f000 	.word	0xf000f000
3005d840:	f000f000 	.word	0xf000f000
3005d844:	0000f000 	.word	0x0000f000
3005d848:	f0000000 	.word	0xf0000000
3005d84c:	f000f000 	.word	0xf000f000
3005d850:	f000f000 	.word	0xf000f000
3005d854:	0000f000 	.word	0x0000f000
3005d858:	00000000 	.word	0x00000000
3005d85c:	f0000000 	.word	0xf0000000
3005d860:	0000f000 	.word	0x0000f000
	...
3005d86c:	f0000000 	.word	0xf0000000
3005d870:	0000f000 	.word	0x0000f000
	...
3005d87c:	f0000000 	.word	0xf0000000
3005d880:	0000f000 	.word	0x0000f000
	...
3005d88c:	f0000000 	.word	0xf0000000
3005d890:	0000f000 	.word	0x0000f000
	...
3005d89c:	f0000000 	.word	0xf0000000
3005d8a0:	0000f000 	.word	0x0000f000
	...
3005d8ac:	f0000000 	.word	0xf0000000
3005d8b0:	0000f000 	.word	0x0000f000
	...
3005d8bc:	f0000000 	.word	0xf0000000
3005d8c0:	0000f000 	.word	0x0000f000
	...
3005d8cc:	f0000000 	.word	0xf0000000
3005d8d0:	0000f000 	.word	0x0000f000
	...
3005d8dc:	f0000000 	.word	0xf0000000
3005d8e0:	0000f000 	.word	0x0000f000
	...
3005d8ec:	f0000000 	.word	0xf0000000
3005d8f0:	0000f000 	.word	0x0000f000
	...
3005d8fc:	f0000000 	.word	0xf0000000
3005d900:	0000f000 	.word	0x0000f000
	...
3005d90c:	f0000000 	.word	0xf0000000
3005d910:	0000f000 	.word	0x0000f000
3005d914:	00000000 	.word	0x00000000
3005d918:	f0000000 	.word	0xf0000000
3005d91c:	f000f000 	.word	0xf000f000
3005d920:	f000f000 	.word	0xf000f000
3005d924:	0000f000 	.word	0x0000f000
3005d928:	f0000000 	.word	0xf0000000
3005d92c:	f000f000 	.word	0xf000f000
3005d930:	f000f000 	.word	0xf000f000
3005d934:	0000f000 	.word	0x0000f000
3005d938:	0000004a 	.word	0x0000004a
	...
3005d944:	f000f000 	.word	0xf000f000
	...
3005d954:	f000f000 	.word	0xf000f000
	...
3005d964:	f000f000 	.word	0xf000f000
	...
3005d974:	f000f000 	.word	0xf000f000
	...
3005d984:	f000f000 	.word	0xf000f000
	...
3005d994:	f000f000 	.word	0xf000f000
	...
3005d9a4:	f000f000 	.word	0xf000f000
	...
3005d9b4:	f000f000 	.word	0xf000f000
	...
3005d9c4:	f000f000 	.word	0xf000f000
	...
3005d9d4:	f000f000 	.word	0xf000f000
3005d9d8:	00000000 	.word	0x00000000
3005d9dc:	f000f000 	.word	0xf000f000
3005d9e0:	00000000 	.word	0x00000000
3005d9e4:	f000f000 	.word	0xf000f000
3005d9e8:	00000000 	.word	0x00000000
3005d9ec:	f000f000 	.word	0xf000f000
3005d9f0:	00000000 	.word	0x00000000
3005d9f4:	f000f000 	.word	0xf000f000
3005d9f8:	00000000 	.word	0x00000000
3005d9fc:	f000f000 	.word	0xf000f000
3005da00:	00000000 	.word	0x00000000
3005da04:	f000f000 	.word	0xf000f000
3005da08:	00000000 	.word	0x00000000
3005da0c:	f000f000 	.word	0xf000f000
3005da10:	00000000 	.word	0x00000000
3005da14:	f000f000 	.word	0xf000f000
	...
3005da20:	f000f000 	.word	0xf000f000
	...
3005da30:	f000f000 	.word	0xf000f000
3005da34:	00000000 	.word	0x00000000
3005da38:	004b0000 	.word	0x004b0000
3005da3c:	f0000000 	.word	0xf0000000
3005da40:	0000f000 	.word	0x0000f000
3005da44:	00000000 	.word	0x00000000
3005da48:	0000f000 	.word	0x0000f000
3005da4c:	f0000000 	.word	0xf0000000
3005da50:	0000f000 	.word	0x0000f000
3005da54:	00000000 	.word	0x00000000
3005da58:	0000f000 	.word	0x0000f000
3005da5c:	f0000000 	.word	0xf0000000
3005da60:	0000f000 	.word	0x0000f000
3005da64:	f0000000 	.word	0xf0000000
3005da68:	00000000 	.word	0x00000000
3005da6c:	f0000000 	.word	0xf0000000
3005da70:	0000f000 	.word	0x0000f000
3005da74:	f0000000 	.word	0xf0000000
3005da78:	00000000 	.word	0x00000000
3005da7c:	f0000000 	.word	0xf0000000
3005da80:	0000f000 	.word	0x0000f000
3005da84:	0000f000 	.word	0x0000f000
3005da88:	00000000 	.word	0x00000000
3005da8c:	f0000000 	.word	0xf0000000
3005da90:	0000f000 	.word	0x0000f000
3005da94:	0000f000 	.word	0x0000f000
3005da98:	00000000 	.word	0x00000000
3005da9c:	f0000000 	.word	0xf0000000
3005daa0:	f000f000 	.word	0xf000f000
	...
3005daac:	f0000000 	.word	0xf0000000
3005dab0:	f000f000 	.word	0xf000f000
	...
3005dabc:	f0000000 	.word	0xf0000000
3005dac0:	f000f000 	.word	0xf000f000
	...
3005dacc:	f0000000 	.word	0xf0000000
3005dad0:	f000f000 	.word	0xf000f000
	...
3005dadc:	f0000000 	.word	0xf0000000
3005dae0:	0000f000 	.word	0x0000f000
3005dae4:	0000f000 	.word	0x0000f000
3005dae8:	00000000 	.word	0x00000000
3005daec:	f0000000 	.word	0xf0000000
3005daf0:	0000f000 	.word	0x0000f000
3005daf4:	0000f000 	.word	0x0000f000
3005daf8:	00000000 	.word	0x00000000
3005dafc:	f0000000 	.word	0xf0000000
3005db00:	0000f000 	.word	0x0000f000
3005db04:	f0000000 	.word	0xf0000000
3005db08:	00000000 	.word	0x00000000
3005db0c:	f0000000 	.word	0xf0000000
3005db10:	0000f000 	.word	0x0000f000
3005db14:	f0000000 	.word	0xf0000000
3005db18:	00000000 	.word	0x00000000
3005db1c:	f0000000 	.word	0xf0000000
3005db20:	0000f000 	.word	0x0000f000
3005db24:	00000000 	.word	0x00000000
3005db28:	0000f000 	.word	0x0000f000
3005db2c:	f0000000 	.word	0xf0000000
3005db30:	0000f000 	.word	0x0000f000
3005db34:	00000000 	.word	0x00000000
3005db38:	0000f000 	.word	0x0000f000
3005db3c:	0000004c 	.word	0x0000004c
3005db40:	f000f000 	.word	0xf000f000
	...
3005db50:	f000f000 	.word	0xf000f000
	...
3005db60:	f000f000 	.word	0xf000f000
	...
3005db70:	f000f000 	.word	0xf000f000
	...
3005db80:	f000f000 	.word	0xf000f000
	...
3005db90:	f000f000 	.word	0xf000f000
	...
3005dba0:	f000f000 	.word	0xf000f000
	...
3005dbb0:	f000f000 	.word	0xf000f000
	...
3005dbc0:	f000f000 	.word	0xf000f000
	...
3005dbd0:	f000f000 	.word	0xf000f000
	...
3005dbe0:	f000f000 	.word	0xf000f000
	...
3005dbf0:	f000f000 	.word	0xf000f000
	...
3005dc00:	f000f000 	.word	0xf000f000
	...
3005dc10:	f000f000 	.word	0xf000f000
	...
3005dc20:	f000f000 	.word	0xf000f000
3005dc24:	f000f000 	.word	0xf000f000
3005dc28:	f000f000 	.word	0xf000f000
3005dc2c:	00000000 	.word	0x00000000
3005dc30:	f000f000 	.word	0xf000f000
3005dc34:	f000f000 	.word	0xf000f000
3005dc38:	f000f000 	.word	0xf000f000
3005dc3c:	004d0000 	.word	0x004d0000
3005dc40:	00000000 	.word	0x00000000
3005dc44:	f000f000 	.word	0xf000f000
3005dc48:	f000f000 	.word	0xf000f000
	...
3005dc54:	f000f000 	.word	0xf000f000
3005dc58:	f000f000 	.word	0xf000f000
3005dc5c:	00000000 	.word	0x00000000
3005dc60:	f0000000 	.word	0xf0000000
3005dc64:	f0000000 	.word	0xf0000000
3005dc68:	0000f000 	.word	0x0000f000
3005dc6c:	0000f000 	.word	0x0000f000
3005dc70:	f0000000 	.word	0xf0000000
3005dc74:	f0000000 	.word	0xf0000000
3005dc78:	0000f000 	.word	0x0000f000
3005dc7c:	0000f000 	.word	0x0000f000
3005dc80:	f0000000 	.word	0xf0000000
3005dc84:	f0000000 	.word	0xf0000000
3005dc88:	0000f000 	.word	0x0000f000
3005dc8c:	0000f000 	.word	0x0000f000
3005dc90:	f0000000 	.word	0xf0000000
3005dc94:	f0000000 	.word	0xf0000000
3005dc98:	0000f000 	.word	0x0000f000
3005dc9c:	0000f000 	.word	0x0000f000
3005dca0:	f0000000 	.word	0xf0000000
3005dca4:	f0000000 	.word	0xf0000000
3005dca8:	0000f000 	.word	0x0000f000
3005dcac:	0000f000 	.word	0x0000f000
3005dcb0:	f0000000 	.word	0xf0000000
3005dcb4:	f0000000 	.word	0xf0000000
3005dcb8:	0000f000 	.word	0x0000f000
3005dcbc:	0000f000 	.word	0x0000f000
3005dcc0:	f0000000 	.word	0xf0000000
3005dcc4:	f0000000 	.word	0xf0000000
3005dcc8:	0000f000 	.word	0x0000f000
3005dccc:	0000f000 	.word	0x0000f000
3005dcd0:	f0000000 	.word	0xf0000000
3005dcd4:	f0000000 	.word	0xf0000000
3005dcd8:	0000f000 	.word	0x0000f000
3005dcdc:	0000f000 	.word	0x0000f000
3005dce0:	f0000000 	.word	0xf0000000
3005dce4:	f0000000 	.word	0xf0000000
3005dce8:	0000f000 	.word	0x0000f000
3005dcec:	0000f000 	.word	0x0000f000
3005dcf0:	f0000000 	.word	0xf0000000
3005dcf4:	f0000000 	.word	0xf0000000
3005dcf8:	0000f000 	.word	0x0000f000
3005dcfc:	0000f000 	.word	0x0000f000
3005dd00:	f0000000 	.word	0xf0000000
3005dd04:	f0000000 	.word	0xf0000000
3005dd08:	0000f000 	.word	0x0000f000
3005dd0c:	0000f000 	.word	0x0000f000
3005dd10:	f0000000 	.word	0xf0000000
3005dd14:	f0000000 	.word	0xf0000000
3005dd18:	0000f000 	.word	0x0000f000
3005dd1c:	0000f000 	.word	0x0000f000
3005dd20:	f0000000 	.word	0xf0000000
3005dd24:	f0000000 	.word	0xf0000000
3005dd28:	0000f000 	.word	0x0000f000
3005dd2c:	0000f000 	.word	0x0000f000
3005dd30:	f0000000 	.word	0xf0000000
3005dd34:	f0000000 	.word	0xf0000000
3005dd38:	0000f000 	.word	0x0000f000
3005dd3c:	0000f000 	.word	0x0000f000
3005dd40:	0000004e 	.word	0x0000004e
3005dd44:	f000f000 	.word	0xf000f000
3005dd48:	00000000 	.word	0x00000000
3005dd4c:	f000f000 	.word	0xf000f000
3005dd50:	00000000 	.word	0x00000000
3005dd54:	f000f000 	.word	0xf000f000
3005dd58:	00000000 	.word	0x00000000
3005dd5c:	f000f000 	.word	0xf000f000
3005dd60:	00000000 	.word	0x00000000
3005dd64:	f000f000 	.word	0xf000f000
3005dd68:	0000f000 	.word	0x0000f000
3005dd6c:	f000f000 	.word	0xf000f000
3005dd70:	00000000 	.word	0x00000000
3005dd74:	f000f000 	.word	0xf000f000
3005dd78:	0000f000 	.word	0x0000f000
3005dd7c:	f000f000 	.word	0xf000f000
3005dd80:	00000000 	.word	0x00000000
3005dd84:	f000f000 	.word	0xf000f000
3005dd88:	0000f000 	.word	0x0000f000
3005dd8c:	f000f000 	.word	0xf000f000
3005dd90:	00000000 	.word	0x00000000
3005dd94:	f000f000 	.word	0xf000f000
3005dd98:	0000f000 	.word	0x0000f000
3005dd9c:	f000f000 	.word	0xf000f000
3005dda0:	00000000 	.word	0x00000000
3005dda4:	f000f000 	.word	0xf000f000
3005dda8:	0000f000 	.word	0x0000f000
3005ddac:	f000f000 	.word	0xf000f000
3005ddb0:	00000000 	.word	0x00000000
3005ddb4:	f000f000 	.word	0xf000f000
3005ddb8:	0000f000 	.word	0x0000f000
3005ddbc:	f000f000 	.word	0xf000f000
3005ddc0:	00000000 	.word	0x00000000
3005ddc4:	f000f000 	.word	0xf000f000
3005ddc8:	f0000000 	.word	0xf0000000
3005ddcc:	f000f000 	.word	0xf000f000
3005ddd0:	00000000 	.word	0x00000000
3005ddd4:	f000f000 	.word	0xf000f000
3005ddd8:	f0000000 	.word	0xf0000000
3005dddc:	f000f000 	.word	0xf000f000
3005dde0:	00000000 	.word	0x00000000
3005dde4:	f000f000 	.word	0xf000f000
3005dde8:	f0000000 	.word	0xf0000000
3005ddec:	f000f000 	.word	0xf000f000
3005ddf0:	00000000 	.word	0x00000000
3005ddf4:	f000f000 	.word	0xf000f000
3005ddf8:	f0000000 	.word	0xf0000000
3005ddfc:	f000f000 	.word	0xf000f000
3005de00:	00000000 	.word	0x00000000
3005de04:	f000f000 	.word	0xf000f000
3005de08:	f0000000 	.word	0xf0000000
3005de0c:	f000f000 	.word	0xf000f000
3005de10:	00000000 	.word	0x00000000
3005de14:	f000f000 	.word	0xf000f000
3005de18:	f0000000 	.word	0xf0000000
3005de1c:	f000f000 	.word	0xf000f000
3005de20:	00000000 	.word	0x00000000
3005de24:	f000f000 	.word	0xf000f000
3005de28:	00000000 	.word	0x00000000
3005de2c:	f000f000 	.word	0xf000f000
3005de30:	00000000 	.word	0x00000000
3005de34:	f000f000 	.word	0xf000f000
3005de38:	00000000 	.word	0x00000000
3005de3c:	f000f000 	.word	0xf000f000
3005de40:	004f0000 	.word	0x004f0000
3005de44:	00000000 	.word	0x00000000
3005de48:	f0000000 	.word	0xf0000000
3005de4c:	0000f000 	.word	0x0000f000
	...
3005de58:	f0000000 	.word	0xf0000000
3005de5c:	0000f000 	.word	0x0000f000
3005de60:	00000000 	.word	0x00000000
3005de64:	f0000000 	.word	0xf0000000
3005de68:	0000f000 	.word	0x0000f000
3005de6c:	f0000000 	.word	0xf0000000
3005de70:	0000f000 	.word	0x0000f000
3005de74:	f0000000 	.word	0xf0000000
3005de78:	0000f000 	.word	0x0000f000
3005de7c:	f0000000 	.word	0xf0000000
3005de80:	0000f000 	.word	0x0000f000
3005de84:	f0000000 	.word	0xf0000000
3005de88:	0000f000 	.word	0x0000f000
3005de8c:	f0000000 	.word	0xf0000000
3005de90:	0000f000 	.word	0x0000f000
3005de94:	f0000000 	.word	0xf0000000
3005de98:	0000f000 	.word	0x0000f000
3005de9c:	f0000000 	.word	0xf0000000
3005dea0:	0000f000 	.word	0x0000f000
3005dea4:	f0000000 	.word	0xf0000000
3005dea8:	0000f000 	.word	0x0000f000
3005deac:	f0000000 	.word	0xf0000000
3005deb0:	0000f000 	.word	0x0000f000
3005deb4:	f0000000 	.word	0xf0000000
3005deb8:	0000f000 	.word	0x0000f000
3005debc:	f0000000 	.word	0xf0000000
3005dec0:	0000f000 	.word	0x0000f000
3005dec4:	f0000000 	.word	0xf0000000
3005dec8:	0000f000 	.word	0x0000f000
3005decc:	f0000000 	.word	0xf0000000
3005ded0:	0000f000 	.word	0x0000f000
3005ded4:	f0000000 	.word	0xf0000000
3005ded8:	0000f000 	.word	0x0000f000
3005dedc:	f0000000 	.word	0xf0000000
3005dee0:	0000f000 	.word	0x0000f000
3005dee4:	f0000000 	.word	0xf0000000
3005dee8:	0000f000 	.word	0x0000f000
3005deec:	f0000000 	.word	0xf0000000
3005def0:	0000f000 	.word	0x0000f000
3005def4:	f0000000 	.word	0xf0000000
3005def8:	0000f000 	.word	0x0000f000
3005defc:	f0000000 	.word	0xf0000000
3005df00:	0000f000 	.word	0x0000f000
3005df04:	f0000000 	.word	0xf0000000
3005df08:	0000f000 	.word	0x0000f000
3005df0c:	f0000000 	.word	0xf0000000
3005df10:	0000f000 	.word	0x0000f000
3005df14:	f0000000 	.word	0xf0000000
3005df18:	0000f000 	.word	0x0000f000
3005df1c:	f0000000 	.word	0xf0000000
3005df20:	0000f000 	.word	0x0000f000
3005df24:	00000000 	.word	0x00000000
3005df28:	f0000000 	.word	0xf0000000
3005df2c:	0000f000 	.word	0x0000f000
	...
3005df38:	f0000000 	.word	0xf0000000
3005df3c:	0000f000 	.word	0x0000f000
3005df40:	00000000 	.word	0x00000000
3005df44:	00000050 	.word	0x00000050
3005df48:	00000000 	.word	0x00000000
3005df4c:	f000f000 	.word	0xf000f000
	...
3005df5c:	f000f000 	.word	0xf000f000
	...
3005df68:	f000f000 	.word	0xf000f000
3005df6c:	00000000 	.word	0x00000000
3005df70:	f000f000 	.word	0xf000f000
3005df74:	00000000 	.word	0x00000000
3005df78:	f000f000 	.word	0xf000f000
3005df7c:	00000000 	.word	0x00000000
3005df80:	f000f000 	.word	0xf000f000
3005df84:	00000000 	.word	0x00000000
3005df88:	f000f000 	.word	0xf000f000
3005df8c:	00000000 	.word	0x00000000
3005df90:	f000f000 	.word	0xf000f000
3005df94:	00000000 	.word	0x00000000
3005df98:	f000f000 	.word	0xf000f000
3005df9c:	00000000 	.word	0x00000000
3005dfa0:	f000f000 	.word	0xf000f000
3005dfa4:	00000000 	.word	0x00000000
3005dfa8:	f000f000 	.word	0xf000f000
3005dfac:	00000000 	.word	0x00000000
3005dfb0:	f000f000 	.word	0xf000f000
3005dfb4:	00000000 	.word	0x00000000
3005dfb8:	f000f000 	.word	0xf000f000
3005dfbc:	f000f000 	.word	0xf000f000
	...
3005dfc8:	f000f000 	.word	0xf000f000
3005dfcc:	f000f000 	.word	0xf000f000
	...
3005dfd8:	f000f000 	.word	0xf000f000
	...
3005dfe8:	f000f000 	.word	0xf000f000
	...
3005dff8:	f000f000 	.word	0xf000f000
	...
3005e008:	f000f000 	.word	0xf000f000
	...
3005e018:	f000f000 	.word	0xf000f000
	...
3005e028:	f000f000 	.word	0xf000f000
	...
3005e038:	f000f000 	.word	0xf000f000
	...
3005e044:	00510000 	.word	0x00510000
3005e048:	00000000 	.word	0x00000000
3005e04c:	f0000000 	.word	0xf0000000
3005e050:	0000f000 	.word	0x0000f000
	...
3005e05c:	f0000000 	.word	0xf0000000
3005e060:	0000f000 	.word	0x0000f000
3005e064:	00000000 	.word	0x00000000
3005e068:	f0000000 	.word	0xf0000000
3005e06c:	0000f000 	.word	0x0000f000
3005e070:	f0000000 	.word	0xf0000000
3005e074:	0000f000 	.word	0x0000f000
3005e078:	f0000000 	.word	0xf0000000
3005e07c:	0000f000 	.word	0x0000f000
3005e080:	f0000000 	.word	0xf0000000
3005e084:	0000f000 	.word	0x0000f000
3005e088:	f0000000 	.word	0xf0000000
3005e08c:	0000f000 	.word	0x0000f000
3005e090:	f0000000 	.word	0xf0000000
3005e094:	0000f000 	.word	0x0000f000
3005e098:	f0000000 	.word	0xf0000000
3005e09c:	0000f000 	.word	0x0000f000
3005e0a0:	f0000000 	.word	0xf0000000
3005e0a4:	0000f000 	.word	0x0000f000
3005e0a8:	f0000000 	.word	0xf0000000
3005e0ac:	0000f000 	.word	0x0000f000
3005e0b0:	f0000000 	.word	0xf0000000
3005e0b4:	0000f000 	.word	0x0000f000
3005e0b8:	f0000000 	.word	0xf0000000
3005e0bc:	0000f000 	.word	0x0000f000
3005e0c0:	f0000000 	.word	0xf0000000
3005e0c4:	0000f000 	.word	0x0000f000
3005e0c8:	f0000000 	.word	0xf0000000
3005e0cc:	0000f000 	.word	0x0000f000
3005e0d0:	f0000000 	.word	0xf0000000
3005e0d4:	0000f000 	.word	0x0000f000
3005e0d8:	f0000000 	.word	0xf0000000
3005e0dc:	0000f000 	.word	0x0000f000
3005e0e0:	f0000000 	.word	0xf0000000
3005e0e4:	0000f000 	.word	0x0000f000
3005e0e8:	f0000000 	.word	0xf0000000
3005e0ec:	0000f000 	.word	0x0000f000
3005e0f0:	f000f000 	.word	0xf000f000
3005e0f4:	0000f000 	.word	0x0000f000
3005e0f8:	f0000000 	.word	0xf0000000
3005e0fc:	0000f000 	.word	0x0000f000
3005e100:	f000f000 	.word	0xf000f000
3005e104:	0000f000 	.word	0x0000f000
3005e108:	f0000000 	.word	0xf0000000
3005e10c:	0000f000 	.word	0x0000f000
3005e110:	f0000000 	.word	0xf0000000
3005e114:	0000f000 	.word	0x0000f000
3005e118:	f0000000 	.word	0xf0000000
3005e11c:	0000f000 	.word	0x0000f000
3005e120:	f0000000 	.word	0xf0000000
3005e124:	0000f000 	.word	0x0000f000
3005e128:	00000000 	.word	0x00000000
3005e12c:	f0000000 	.word	0xf0000000
3005e130:	0000f000 	.word	0x0000f000
	...
3005e13c:	f0000000 	.word	0xf0000000
3005e140:	0000f000 	.word	0x0000f000
3005e144:	00000000 	.word	0x00000000
3005e148:	00000052 	.word	0x00000052
3005e14c:	f000f000 	.word	0xf000f000
3005e150:	f000f000 	.word	0xf000f000
	...
3005e15c:	f000f000 	.word	0xf000f000
3005e160:	f000f000 	.word	0xf000f000
	...
3005e16c:	f000f000 	.word	0xf000f000
3005e170:	00000000 	.word	0x00000000
3005e174:	f000f000 	.word	0xf000f000
3005e178:	00000000 	.word	0x00000000
3005e17c:	f000f000 	.word	0xf000f000
3005e180:	00000000 	.word	0x00000000
3005e184:	f000f000 	.word	0xf000f000
3005e188:	00000000 	.word	0x00000000
3005e18c:	f000f000 	.word	0xf000f000
3005e190:	00000000 	.word	0x00000000
3005e194:	f000f000 	.word	0xf000f000
3005e198:	00000000 	.word	0x00000000
3005e19c:	f000f000 	.word	0xf000f000
3005e1a0:	00000000 	.word	0x00000000
3005e1a4:	f000f000 	.word	0xf000f000
3005e1a8:	00000000 	.word	0x00000000
3005e1ac:	f000f000 	.word	0xf000f000
3005e1b0:	00000000 	.word	0x00000000
3005e1b4:	f000f000 	.word	0xf000f000
3005e1b8:	00000000 	.word	0x00000000
3005e1bc:	f000f000 	.word	0xf000f000
3005e1c0:	f000f000 	.word	0xf000f000
	...
3005e1cc:	f000f000 	.word	0xf000f000
3005e1d0:	f000f000 	.word	0xf000f000
	...
3005e1dc:	f000f000 	.word	0xf000f000
3005e1e0:	00000000 	.word	0x00000000
3005e1e4:	f000f000 	.word	0xf000f000
3005e1e8:	00000000 	.word	0x00000000
3005e1ec:	f000f000 	.word	0xf000f000
3005e1f0:	00000000 	.word	0x00000000
3005e1f4:	f000f000 	.word	0xf000f000
3005e1f8:	00000000 	.word	0x00000000
3005e1fc:	f000f000 	.word	0xf000f000
3005e200:	00000000 	.word	0x00000000
3005e204:	f000f000 	.word	0xf000f000
3005e208:	00000000 	.word	0x00000000
3005e20c:	f000f000 	.word	0xf000f000
3005e210:	00000000 	.word	0x00000000
3005e214:	f000f000 	.word	0xf000f000
3005e218:	00000000 	.word	0x00000000
3005e21c:	f000f000 	.word	0xf000f000
3005e220:	00000000 	.word	0x00000000
3005e224:	f000f000 	.word	0xf000f000
3005e228:	00000000 	.word	0x00000000
3005e22c:	f000f000 	.word	0xf000f000
3005e230:	00000000 	.word	0x00000000
3005e234:	f000f000 	.word	0xf000f000
3005e238:	00000000 	.word	0x00000000
3005e23c:	f000f000 	.word	0xf000f000
3005e240:	00000000 	.word	0x00000000
3005e244:	f000f000 	.word	0xf000f000
3005e248:	00530000 	.word	0x00530000
3005e24c:	f0000000 	.word	0xf0000000
3005e250:	f000f000 	.word	0xf000f000
3005e254:	f000f000 	.word	0xf000f000
3005e258:	0000f000 	.word	0x0000f000
3005e25c:	f0000000 	.word	0xf0000000
3005e260:	f000f000 	.word	0xf000f000
3005e264:	f000f000 	.word	0xf000f000
3005e268:	0000f000 	.word	0x0000f000
3005e26c:	f0000000 	.word	0xf0000000
3005e270:	0000f000 	.word	0x0000f000
3005e274:	f0000000 	.word	0xf0000000
3005e278:	0000f000 	.word	0x0000f000
3005e27c:	f0000000 	.word	0xf0000000
3005e280:	0000f000 	.word	0x0000f000
	...
3005e28c:	f0000000 	.word	0xf0000000
3005e290:	0000f000 	.word	0x0000f000
	...
3005e29c:	f0000000 	.word	0xf0000000
3005e2a0:	0000f000 	.word	0x0000f000
	...
3005e2ac:	f0000000 	.word	0xf0000000
3005e2b0:	f000f000 	.word	0xf000f000
	...
3005e2c0:	f000f000 	.word	0xf000f000
3005e2c4:	0000f000 	.word	0x0000f000
	...
3005e2d0:	f0000000 	.word	0xf0000000
3005e2d4:	f000f000 	.word	0xf000f000
	...
3005e2e4:	f000f000 	.word	0xf000f000
3005e2e8:	0000f000 	.word	0x0000f000
	...
3005e2f4:	f0000000 	.word	0xf0000000
3005e2f8:	0000f000 	.word	0x0000f000
	...
3005e304:	f0000000 	.word	0xf0000000
3005e308:	0000f000 	.word	0x0000f000
	...
3005e314:	f0000000 	.word	0xf0000000
3005e318:	0000f000 	.word	0x0000f000
3005e31c:	f0000000 	.word	0xf0000000
3005e320:	0000f000 	.word	0x0000f000
3005e324:	f0000000 	.word	0xf0000000
3005e328:	0000f000 	.word	0x0000f000
3005e32c:	f0000000 	.word	0xf0000000
3005e330:	f000f000 	.word	0xf000f000
3005e334:	f000f000 	.word	0xf000f000
3005e338:	0000f000 	.word	0x0000f000
3005e33c:	f0000000 	.word	0xf0000000
3005e340:	f000f000 	.word	0xf000f000
3005e344:	f000f000 	.word	0xf000f000
3005e348:	0000f000 	.word	0x0000f000
3005e34c:	00000054 	.word	0x00000054
3005e350:	f000f000 	.word	0xf000f000
3005e354:	f000f000 	.word	0xf000f000
3005e358:	f000f000 	.word	0xf000f000
3005e35c:	00000000 	.word	0x00000000
3005e360:	f000f000 	.word	0xf000f000
3005e364:	f000f000 	.word	0xf000f000
3005e368:	f000f000 	.word	0xf000f000
	...
3005e374:	f000f000 	.word	0xf000f000
	...
3005e384:	f000f000 	.word	0xf000f000
	...
3005e394:	f000f000 	.word	0xf000f000
	...
3005e3a4:	f000f000 	.word	0xf000f000
	...
3005e3b4:	f000f000 	.word	0xf000f000
	...
3005e3c4:	f000f000 	.word	0xf000f000
	...
3005e3d4:	f000f000 	.word	0xf000f000
	...
3005e3e4:	f000f000 	.word	0xf000f000
	...
3005e3f4:	f000f000 	.word	0xf000f000
	...
3005e404:	f000f000 	.word	0xf000f000
	...
3005e414:	f000f000 	.word	0xf000f000
	...
3005e424:	f000f000 	.word	0xf000f000
	...
3005e434:	f000f000 	.word	0xf000f000
	...
3005e444:	f000f000 	.word	0xf000f000
3005e448:	00000000 	.word	0x00000000
3005e44c:	00550000 	.word	0x00550000
3005e450:	f0000000 	.word	0xf0000000
3005e454:	0000f000 	.word	0x0000f000
3005e458:	f0000000 	.word	0xf0000000
3005e45c:	0000f000 	.word	0x0000f000
3005e460:	f0000000 	.word	0xf0000000
3005e464:	0000f000 	.word	0x0000f000
3005e468:	f0000000 	.word	0xf0000000
3005e46c:	0000f000 	.word	0x0000f000
3005e470:	f0000000 	.word	0xf0000000
3005e474:	0000f000 	.word	0x0000f000
3005e478:	f0000000 	.word	0xf0000000
3005e47c:	0000f000 	.word	0x0000f000
3005e480:	f0000000 	.word	0xf0000000
3005e484:	0000f000 	.word	0x0000f000
3005e488:	f0000000 	.word	0xf0000000
3005e48c:	0000f000 	.word	0x0000f000
3005e490:	f0000000 	.word	0xf0000000
3005e494:	0000f000 	.word	0x0000f000
3005e498:	f0000000 	.word	0xf0000000
3005e49c:	0000f000 	.word	0x0000f000
3005e4a0:	f0000000 	.word	0xf0000000
3005e4a4:	0000f000 	.word	0x0000f000
3005e4a8:	f0000000 	.word	0xf0000000
3005e4ac:	0000f000 	.word	0x0000f000
3005e4b0:	f0000000 	.word	0xf0000000
3005e4b4:	0000f000 	.word	0x0000f000
3005e4b8:	f0000000 	.word	0xf0000000
3005e4bc:	0000f000 	.word	0x0000f000
3005e4c0:	f0000000 	.word	0xf0000000
3005e4c4:	0000f000 	.word	0x0000f000
3005e4c8:	f0000000 	.word	0xf0000000
3005e4cc:	0000f000 	.word	0x0000f000
3005e4d0:	f0000000 	.word	0xf0000000
3005e4d4:	0000f000 	.word	0x0000f000
3005e4d8:	f0000000 	.word	0xf0000000
3005e4dc:	0000f000 	.word	0x0000f000
3005e4e0:	f0000000 	.word	0xf0000000
3005e4e4:	0000f000 	.word	0x0000f000
3005e4e8:	f0000000 	.word	0xf0000000
3005e4ec:	0000f000 	.word	0x0000f000
3005e4f0:	f0000000 	.word	0xf0000000
3005e4f4:	0000f000 	.word	0x0000f000
3005e4f8:	f0000000 	.word	0xf0000000
3005e4fc:	0000f000 	.word	0x0000f000
3005e500:	f0000000 	.word	0xf0000000
3005e504:	0000f000 	.word	0x0000f000
3005e508:	f0000000 	.word	0xf0000000
3005e50c:	0000f000 	.word	0x0000f000
3005e510:	f0000000 	.word	0xf0000000
3005e514:	0000f000 	.word	0x0000f000
3005e518:	f0000000 	.word	0xf0000000
3005e51c:	0000f000 	.word	0x0000f000
3005e520:	f0000000 	.word	0xf0000000
3005e524:	0000f000 	.word	0x0000f000
3005e528:	f0000000 	.word	0xf0000000
3005e52c:	0000f000 	.word	0x0000f000
3005e530:	00000000 	.word	0x00000000
3005e534:	f0000000 	.word	0xf0000000
3005e538:	0000f000 	.word	0x0000f000
	...
3005e544:	f0000000 	.word	0xf0000000
3005e548:	0000f000 	.word	0x0000f000
3005e54c:	00000000 	.word	0x00000000
3005e550:	00000056 	.word	0x00000056
3005e554:	f000f000 	.word	0xf000f000
3005e558:	00000000 	.word	0x00000000
3005e55c:	f000f000 	.word	0xf000f000
3005e560:	00000000 	.word	0x00000000
3005e564:	f000f000 	.word	0xf000f000
3005e568:	00000000 	.word	0x00000000
3005e56c:	f000f000 	.word	0xf000f000
3005e570:	00000000 	.word	0x00000000
3005e574:	f000f000 	.word	0xf000f000
3005e578:	00000000 	.word	0x00000000
3005e57c:	f000f000 	.word	0xf000f000
3005e580:	00000000 	.word	0x00000000
3005e584:	f000f000 	.word	0xf000f000
3005e588:	00000000 	.word	0x00000000
3005e58c:	f000f000 	.word	0xf000f000
3005e590:	00000000 	.word	0x00000000
3005e594:	f000f000 	.word	0xf000f000
3005e598:	00000000 	.word	0x00000000
3005e59c:	f000f000 	.word	0xf000f000
3005e5a0:	00000000 	.word	0x00000000
3005e5a4:	f000f000 	.word	0xf000f000
3005e5a8:	00000000 	.word	0x00000000
3005e5ac:	f000f000 	.word	0xf000f000
3005e5b0:	00000000 	.word	0x00000000
3005e5b4:	f0000000 	.word	0xf0000000
3005e5b8:	00000000 	.word	0x00000000
3005e5bc:	0000f000 	.word	0x0000f000
3005e5c0:	00000000 	.word	0x00000000
3005e5c4:	f0000000 	.word	0xf0000000
3005e5c8:	00000000 	.word	0x00000000
3005e5cc:	0000f000 	.word	0x0000f000
3005e5d0:	00000000 	.word	0x00000000
3005e5d4:	f0000000 	.word	0xf0000000
3005e5d8:	00000000 	.word	0x00000000
3005e5dc:	0000f000 	.word	0x0000f000
3005e5e0:	00000000 	.word	0x00000000
3005e5e4:	f0000000 	.word	0xf0000000
3005e5e8:	00000000 	.word	0x00000000
3005e5ec:	0000f000 	.word	0x0000f000
3005e5f0:	00000000 	.word	0x00000000
3005e5f4:	f0000000 	.word	0xf0000000
3005e5f8:	00000000 	.word	0x00000000
3005e5fc:	0000f000 	.word	0x0000f000
3005e600:	00000000 	.word	0x00000000
3005e604:	f0000000 	.word	0xf0000000
3005e608:	00000000 	.word	0x00000000
3005e60c:	0000f000 	.word	0x0000f000
	...
3005e618:	f000f000 	.word	0xf000f000
	...
3005e628:	f000f000 	.word	0xf000f000
	...
3005e638:	f000f000 	.word	0xf000f000
	...
3005e648:	f000f000 	.word	0xf000f000
3005e64c:	00000000 	.word	0x00000000
3005e650:	00570000 	.word	0x00570000
3005e654:	f0000000 	.word	0xf0000000
3005e658:	f0000000 	.word	0xf0000000
3005e65c:	0000f000 	.word	0x0000f000
3005e660:	0000f000 	.word	0x0000f000
3005e664:	f0000000 	.word	0xf0000000
3005e668:	f0000000 	.word	0xf0000000
3005e66c:	0000f000 	.word	0x0000f000
3005e670:	0000f000 	.word	0x0000f000
3005e674:	f0000000 	.word	0xf0000000
3005e678:	f0000000 	.word	0xf0000000
3005e67c:	0000f000 	.word	0x0000f000
3005e680:	0000f000 	.word	0x0000f000
3005e684:	f0000000 	.word	0xf0000000
3005e688:	f0000000 	.word	0xf0000000
3005e68c:	0000f000 	.word	0x0000f000
3005e690:	0000f000 	.word	0x0000f000
3005e694:	f0000000 	.word	0xf0000000
3005e698:	f0000000 	.word	0xf0000000
3005e69c:	0000f000 	.word	0x0000f000
3005e6a0:	0000f000 	.word	0x0000f000
3005e6a4:	f0000000 	.word	0xf0000000
3005e6a8:	f0000000 	.word	0xf0000000
3005e6ac:	0000f000 	.word	0x0000f000
3005e6b0:	0000f000 	.word	0x0000f000
3005e6b4:	f0000000 	.word	0xf0000000
3005e6b8:	f0000000 	.word	0xf0000000
3005e6bc:	0000f000 	.word	0x0000f000
3005e6c0:	0000f000 	.word	0x0000f000
3005e6c4:	f0000000 	.word	0xf0000000
3005e6c8:	f0000000 	.word	0xf0000000
3005e6cc:	0000f000 	.word	0x0000f000
3005e6d0:	0000f000 	.word	0x0000f000
3005e6d4:	f0000000 	.word	0xf0000000
3005e6d8:	f0000000 	.word	0xf0000000
3005e6dc:	0000f000 	.word	0x0000f000
3005e6e0:	0000f000 	.word	0x0000f000
3005e6e4:	f0000000 	.word	0xf0000000
3005e6e8:	f0000000 	.word	0xf0000000
3005e6ec:	0000f000 	.word	0x0000f000
3005e6f0:	0000f000 	.word	0x0000f000
3005e6f4:	f0000000 	.word	0xf0000000
3005e6f8:	f0000000 	.word	0xf0000000
3005e6fc:	0000f000 	.word	0x0000f000
3005e700:	0000f000 	.word	0x0000f000
3005e704:	f0000000 	.word	0xf0000000
3005e708:	f0000000 	.word	0xf0000000
3005e70c:	0000f000 	.word	0x0000f000
3005e710:	0000f000 	.word	0x0000f000
3005e714:	f0000000 	.word	0xf0000000
3005e718:	f0000000 	.word	0xf0000000
3005e71c:	0000f000 	.word	0x0000f000
3005e720:	0000f000 	.word	0x0000f000
3005e724:	f0000000 	.word	0xf0000000
3005e728:	f0000000 	.word	0xf0000000
3005e72c:	0000f000 	.word	0x0000f000
3005e730:	0000f000 	.word	0x0000f000
3005e734:	00000000 	.word	0x00000000
3005e738:	f000f000 	.word	0xf000f000
3005e73c:	f000f000 	.word	0xf000f000
	...
3005e748:	f000f000 	.word	0xf000f000
3005e74c:	f000f000 	.word	0xf000f000
3005e750:	00000000 	.word	0x00000000
3005e754:	00000058 	.word	0x00000058
3005e758:	0000f000 	.word	0x0000f000
3005e75c:	00000000 	.word	0x00000000
3005e760:	f0000000 	.word	0xf0000000
3005e764:	00000000 	.word	0x00000000
3005e768:	0000f000 	.word	0x0000f000
3005e76c:	00000000 	.word	0x00000000
3005e770:	f0000000 	.word	0xf0000000
3005e774:	00000000 	.word	0x00000000
3005e778:	0000f000 	.word	0x0000f000
3005e77c:	00000000 	.word	0x00000000
3005e780:	f0000000 	.word	0xf0000000
3005e784:	00000000 	.word	0x00000000
3005e788:	f0000000 	.word	0xf0000000
3005e78c:	00000000 	.word	0x00000000
3005e790:	0000f000 	.word	0x0000f000
3005e794:	00000000 	.word	0x00000000
3005e798:	f0000000 	.word	0xf0000000
3005e79c:	00000000 	.word	0x00000000
3005e7a0:	0000f000 	.word	0x0000f000
3005e7a4:	00000000 	.word	0x00000000
3005e7a8:	f0000000 	.word	0xf0000000
3005e7ac:	00000000 	.word	0x00000000
3005e7b0:	0000f000 	.word	0x0000f000
	...
3005e7bc:	f000f000 	.word	0xf000f000
	...
3005e7cc:	f000f000 	.word	0xf000f000
	...
3005e7dc:	f000f000 	.word	0xf000f000
	...
3005e7ec:	f000f000 	.word	0xf000f000
	...
3005e7f8:	f0000000 	.word	0xf0000000
3005e7fc:	00000000 	.word	0x00000000
3005e800:	0000f000 	.word	0x0000f000
3005e804:	00000000 	.word	0x00000000
3005e808:	f0000000 	.word	0xf0000000
3005e80c:	00000000 	.word	0x00000000
3005e810:	0000f000 	.word	0x0000f000
3005e814:	00000000 	.word	0x00000000
3005e818:	f0000000 	.word	0xf0000000
3005e81c:	00000000 	.word	0x00000000
3005e820:	0000f000 	.word	0x0000f000
3005e824:	00000000 	.word	0x00000000
3005e828:	0000f000 	.word	0x0000f000
3005e82c:	00000000 	.word	0x00000000
3005e830:	f0000000 	.word	0xf0000000
3005e834:	00000000 	.word	0x00000000
3005e838:	0000f000 	.word	0x0000f000
3005e83c:	00000000 	.word	0x00000000
3005e840:	f0000000 	.word	0xf0000000
3005e844:	00000000 	.word	0x00000000
3005e848:	0000f000 	.word	0x0000f000
3005e84c:	00000000 	.word	0x00000000
3005e850:	f0000000 	.word	0xf0000000
3005e854:	00590000 	.word	0x00590000
3005e858:	f0000000 	.word	0xf0000000
3005e85c:	0000f000 	.word	0x0000f000
3005e860:	f0000000 	.word	0xf0000000
3005e864:	0000f000 	.word	0x0000f000
3005e868:	f0000000 	.word	0xf0000000
3005e86c:	0000f000 	.word	0x0000f000
3005e870:	f0000000 	.word	0xf0000000
3005e874:	0000f000 	.word	0x0000f000
3005e878:	f0000000 	.word	0xf0000000
3005e87c:	0000f000 	.word	0x0000f000
3005e880:	f0000000 	.word	0xf0000000
3005e884:	0000f000 	.word	0x0000f000
3005e888:	f0000000 	.word	0xf0000000
3005e88c:	0000f000 	.word	0x0000f000
3005e890:	f0000000 	.word	0xf0000000
3005e894:	0000f000 	.word	0x0000f000
3005e898:	f0000000 	.word	0xf0000000
3005e89c:	0000f000 	.word	0x0000f000
3005e8a0:	f0000000 	.word	0xf0000000
3005e8a4:	0000f000 	.word	0x0000f000
3005e8a8:	f0000000 	.word	0xf0000000
3005e8ac:	0000f000 	.word	0x0000f000
3005e8b0:	f0000000 	.word	0xf0000000
3005e8b4:	0000f000 	.word	0x0000f000
3005e8b8:	f0000000 	.word	0xf0000000
3005e8bc:	0000f000 	.word	0x0000f000
3005e8c0:	f0000000 	.word	0xf0000000
3005e8c4:	0000f000 	.word	0x0000f000
3005e8c8:	f0000000 	.word	0xf0000000
3005e8cc:	f000f000 	.word	0xf000f000
3005e8d0:	f000f000 	.word	0xf000f000
3005e8d4:	0000f000 	.word	0x0000f000
3005e8d8:	00000000 	.word	0x00000000
3005e8dc:	f0000000 	.word	0xf0000000
3005e8e0:	0000f000 	.word	0x0000f000
	...
3005e8ec:	f0000000 	.word	0xf0000000
3005e8f0:	0000f000 	.word	0x0000f000
	...
3005e8fc:	f0000000 	.word	0xf0000000
3005e900:	0000f000 	.word	0x0000f000
	...
3005e90c:	f0000000 	.word	0xf0000000
3005e910:	0000f000 	.word	0x0000f000
	...
3005e91c:	f0000000 	.word	0xf0000000
3005e920:	0000f000 	.word	0x0000f000
	...
3005e92c:	f0000000 	.word	0xf0000000
3005e930:	0000f000 	.word	0x0000f000
	...
3005e93c:	f0000000 	.word	0xf0000000
3005e940:	0000f000 	.word	0x0000f000
	...
3005e94c:	f0000000 	.word	0xf0000000
3005e950:	0000f000 	.word	0x0000f000
3005e954:	00000000 	.word	0x00000000
3005e958:	0000005a 	.word	0x0000005a
3005e95c:	f000f000 	.word	0xf000f000
3005e960:	f000f000 	.word	0xf000f000
3005e964:	f000f000 	.word	0xf000f000
3005e968:	00000000 	.word	0x00000000
3005e96c:	f000f000 	.word	0xf000f000
3005e970:	f000f000 	.word	0xf000f000
3005e974:	f000f000 	.word	0xf000f000
	...
3005e984:	f000f000 	.word	0xf000f000
	...
3005e994:	0000f000 	.word	0x0000f000
	...
3005e9a4:	0000f000 	.word	0x0000f000
	...
3005e9b0:	f0000000 	.word	0xf0000000
	...
3005e9c0:	f0000000 	.word	0xf0000000
	...
3005e9d0:	f0000000 	.word	0xf0000000
	...
3005e9e0:	0000f000 	.word	0x0000f000
	...
3005e9f0:	0000f000 	.word	0x0000f000
	...
3005ea00:	0000f000 	.word	0x0000f000
	...
3005ea0c:	f0000000 	.word	0xf0000000
	...
3005ea1c:	f0000000 	.word	0xf0000000
	...
3005ea2c:	f000f000 	.word	0xf000f000
	...
3005ea3c:	f000f000 	.word	0xf000f000
3005ea40:	f000f000 	.word	0xf000f000
3005ea44:	f000f000 	.word	0xf000f000
3005ea48:	00000000 	.word	0x00000000
3005ea4c:	f000f000 	.word	0xf000f000
3005ea50:	f000f000 	.word	0xf000f000
3005ea54:	f000f000 	.word	0xf000f000
3005ea58:	00000000 	.word	0x00000000

3005ea5c <deci_convert_table>:
3005ea5c:	33323130 	.word	0x33323130
3005ea60:	37363534 	.word	0x37363534
3005ea64:	3938      	.short	0x3938

3005ea66 <hex_convert_table>:
3005ea66:	3130      	.short	0x3130
3005ea68:	35343332 	.word	0x35343332
3005ea6c:	39383736 	.word	0x39383736
3005ea70:	44434241 	.word	0x44434241
3005ea74:	00004645 	.word	0x00004645

3005ea78 <gTimerRigisters>:
3005ea78:	00000000 	.word	0x00000000
3005ea7c:	50000000 	.word	0x50000000
3005ea80:	50000004 	.word	0x50000004
3005ea84:	50000008 	.word	0x50000008
3005ea88:	5000000c 	.word	0x5000000c
3005ea8c:	50000010 	.word	0x50000010
3005ea90:	50000014 	.word	0x50000014
3005ea94:	50000018 	.word	0x50000018
3005ea98:	5000001c 	.word	0x5000001c
3005ea9c:	50000020 	.word	0x50000020
3005eaa0:	50000024 	.word	0x50000024
3005eaa4:	50000028 	.word	0x50000028
3005eaa8:	00000001 	.word	0x00000001
3005eaac:	50004000 	.word	0x50004000
3005eab0:	50004004 	.word	0x50004004
3005eab4:	50004008 	.word	0x50004008
3005eab8:	5000400c 	.word	0x5000400c
3005eabc:	50004010 	.word	0x50004010
3005eac0:	50004014 	.word	0x50004014
3005eac4:	50004018 	.word	0x50004018
3005eac8:	5000401c 	.word	0x5000401c
3005eacc:	50004020 	.word	0x50004020
3005ead0:	50004024 	.word	0x50004024
3005ead4:	50004028 	.word	0x50004028
3005ead8:	00000002 	.word	0x00000002
3005eadc:	50008000 	.word	0x50008000
3005eae0:	50008004 	.word	0x50008004
3005eae4:	50008008 	.word	0x50008008
3005eae8:	5000800c 	.word	0x5000800c
3005eaec:	50008010 	.word	0x50008010
3005eaf0:	50008014 	.word	0x50008014
3005eaf4:	50008018 	.word	0x50008018
3005eaf8:	5000801c 	.word	0x5000801c
3005eafc:	50008020 	.word	0x50008020
3005eb00:	50008024 	.word	0x50008024
3005eb04:	50008028 	.word	0x50008028

3005eb08 <buffer>:
3005eb08:	73656854 	.word	0x73656854
3005eb0c:	74732065 	.word	0x74732065
3005eb10:	676e6972 	.word	0x676e6972
3005eb14:	20736920 	.word	0x20736920
3005eb18:	7074756f 	.word	0x7074756f
3005eb1c:	74207475 	.word	0x74207475
3005eb20:	756f7268 	.word	0x756f7268
3005eb24:	44206867 	.word	0x44206867
3005eb28:	2030414d 	.word	0x2030414d
3005eb2c:	6e616863 	.word	0x6e616863
3005eb30:	0a6c656e 	.word	0x0a6c656e
3005eb34:	00000000 	.word	0x00000000

3005eb38 <gDmaSource>:
3005eb38:	00000012 	.word	0x00000012
3005eb3c:	00000004 	.word	0x00000004
	...
3005eba0:	3005eb08 	.word	0x3005eb08
3005eba4:	00000001 	.word	0x00000001
3005eba8:	00000001 	.word	0x00000001
	...
3005ec0c:	00000001 	.word	0x00000001
3005ec10:	50000020 	.word	0x50000020
3005ec14:	00000300 	.word	0x00000300

3005ec18 <gDmaChannel>:
	...
3005ec24:	00000001 	.word	0x00000001
3005ec28:	01000000 	.word	0x01000000
3005ec2c:	00000002 	.word	0x00000002
3005ec30:	02000000 	.word	0x02000000
3005ec34:	00000003 	.word	0x00000003
3005ec38:	03000000 	.word	0x03000000
3005ec3c:	00000004 	.word	0x00000004
3005ec40:	04000000 	.word	0x04000000
3005ec44:	00000005 	.word	0x00000005
3005ec48:	05000000 	.word	0x05000000
3005ec4c:	00000006 	.word	0x00000006
3005ec50:	06000000 	.word	0x06000000
3005ec54:	4b000000 	.word	0x4b000000
3005ec58:	4b000004 	.word	0x4b000004
3005ec5c:	4b000008 	.word	0x4b000008
3005ec60:	4b00000c 	.word	0x4b00000c
3005ec64:	4b000010 	.word	0x4b000010
3005ec68:	4b000014 	.word	0x4b000014
3005ec6c:	4b000018 	.word	0x4b000018
3005ec70:	4b00001c 	.word	0x4b00001c
3005ec74:	4b000020 	.word	0x4b000020
3005ec78:	00000001 	.word	0x00000001
	...
3005ecb4:	4b000040 	.word	0x4b000040
3005ecb8:	4b000044 	.word	0x4b000044
3005ecbc:	4b000048 	.word	0x4b000048
3005ecc0:	4b00004c 	.word	0x4b00004c
3005ecc4:	4b000050 	.word	0x4b000050
3005ecc8:	4b000054 	.word	0x4b000054
3005eccc:	4b000058 	.word	0x4b000058
3005ecd0:	4b00005c 	.word	0x4b00005c
3005ecd4:	4b000060 	.word	0x4b000060
3005ecd8:	00000002 	.word	0x00000002
	...
3005ed14:	4b000080 	.word	0x4b000080
3005ed18:	4b000084 	.word	0x4b000084
3005ed1c:	4b000088 	.word	0x4b000088
3005ed20:	4b00008c 	.word	0x4b00008c
3005ed24:	4b000090 	.word	0x4b000090
3005ed28:	4b000094 	.word	0x4b000094
3005ed2c:	4b000098 	.word	0x4b000098
3005ed30:	4b00009c 	.word	0x4b00009c
3005ed34:	4b0000a0 	.word	0x4b0000a0
3005ed38:	00000003 	.word	0x00000003
	...
3005ed74:	4b0000c0 	.word	0x4b0000c0
3005ed78:	4b0000c4 	.word	0x4b0000c4
3005ed7c:	4b0000c8 	.word	0x4b0000c8
3005ed80:	4b0000cc 	.word	0x4b0000cc
3005ed84:	4b0000d0 	.word	0x4b0000d0
3005ed88:	4b0000d4 	.word	0x4b0000d4
3005ed8c:	4b0000d8 	.word	0x4b0000d8
3005ed90:	4b0000dc 	.word	0x4b0000dc
3005ed94:	4b0000e0 	.word	0x4b0000e0

3005ed98 <dev_mac_addr>:
3005ed98:	06070809 	.word	0x06070809
3005ed9c:	00000405 	.word	0x00000405

3005eda0 <tftp_down_addr>:
3005eda0:	31000000 	.word	0x31000000

3005eda4 <current_block_num.1042>:
3005eda4:	00000001 	.word	0x00000001
Disassembly of section .bss:

3005eda8 <gArgv>:
	...

3005ee0c <gArgc>:
3005ee0c:	00000000 	.word	0x00000000

3005ee10 <cur_tag_ptr>:
3005ee10:	00000000 	.word	0x00000000

3005ee14 <gMallocPool>:
	...

3005f5f8 <xdata>:
3005f5f8:	00000000 	.word	0x00000000

3005f5fc <ydata>:
3005f5fc:	00000000 	.word	0x00000000

3005f600 <packBuf>:
	...

30064628 <timer0IntCount>:
30064628:	00000000 	.word	0x00000000

3006462c <timer0TimeOut>:
3006462c:	00000000 	.word	0x00000000

30064630 <timer0TimeOutFlag>:
30064630:	00000000 	.word	0x00000000

30064634 <timer1IntCount>:
30064634:	00000000 	.word	0x00000000

30064638 <timer1TimeOut>:
30064638:	00000000 	.word	0x00000000

3006463c <timer1TimeOutFlag>:
3006463c:	00000000 	.word	0x00000000

30064640 <timer2IntCount>:
30064640:	00000000 	.word	0x00000000

30064644 <timer2TimeOut>:
30064644:	00000000 	.word	0x00000000

30064648 <timer2TimeOutFlag>:
30064648:	00000000 	.word	0x00000000

3006464c <timer3IntCount>:
3006464c:	00000000 	.word	0x00000000

30064650 <timer3TimeOut>:
30064650:	00000000 	.word	0x00000000

30064654 <timer3TimeOutFlag>:
30064654:	00000000 	.word	0x00000000

30064658 <timer4IntCount>:
30064658:	00000000 	.word	0x00000000

3006465c <timer4TimeOut>:
3006465c:	00000000 	.word	0x00000000

30064660 <timer4TimeOutFlag>:
30064660:	00000000 	.word	0x00000000

30064664 <finish_flag>:
30064664:	00000000 	.word	0x00000000

30064668 <the_kernel>:
30064668:	00000000 	.word	0x00000000

3006466c <optInd>:
3006466c:	00000000 	.word	0x00000000

30064670 <lcd_buffer>:
	...

30089e70 <tftp_send_buff>:
	...
Disassembly of section .ARM.attributes:

00000000 <.ARM.attributes>:
   0:	00002541 	andeq	r2, r0, r1, asr #10
   4:	61656100 	cmnvs	r5, r0, lsl #2
   8:	01006962 	tsteq	r0, r2, ror #18
   c:	0000001b 	andeq	r0, r0, fp, lsl r0
  10:	00543405 	subseq	r3, r4, r5, lsl #8
  14:	01080206 	tsteq	r8, r6, lsl #4
  18:	01140412 	tsteq	r4, r2, lsl r4
  1c:	03170115 	tsteq	r7, #1073741829	; 0x40000005
  20:	01190118 	tsteq	r9, r8, lsl r1
  24:	Address 0x00000024 is out of bounds.

Disassembly of section .debug_line:

00000000 <.debug_line>:
   0:	00000094 	muleq	r0, r4, r0
   4:	001e0002 	andseq	r0, lr, r2
   8:	01020000 	tsteq	r2, r0
   c:	000d0efb 	strdeq	r0, [sp], -fp
  10:	01010101 	tsteq	r1, r1, lsl #2
  14:	01000000 	tsteq	r0, r0
  18:	00010000 	andeq	r0, r1, r0
  1c:	72617473 	rsbvc	r7, r1, #1929379840	; 0x73000000
  20:	00532e74 	subseq	r2, r3, r4, ror lr
  24:	00000000 	andeq	r0, r0, r0
  28:	00020500 	andeq	r0, r2, r0, lsl #10
  2c:	15300500 	ldrne	r0, [r0, #-1280]!
  30:	2f2f2f2f 	svccs	0x002f2f2f
  34:	032f2f2f 	teqeq	pc, #188	; 0xbc
  38:	3131f20c 	teqpcc	r1, ip, lsl #4
  3c:	2f313131 	svccs	0x00313131
  40:	31312f2f 	teqcc	r1, pc, lsr #30
  44:	2f2f2f2f 	svccs	0x002f2f2f
  48:	2f2f2f2f 	svccs	0x002f2f2f
  4c:	312f2f2f 	teqcc	pc, pc, lsr #30
  50:	2f2f2f2f 	svccs	0x002f2f2f
  54:	2f2f2f32 	svccs	0x002f2f32
  58:	2f2f2f31 	svccs	0x002f2f31
  5c:	2f2f2f31 	svccs	0x002f2f31
  60:	2f2f352f 	svccs	0x002f352f
  64:	302f2f30 	eorcc	r2, pc, r0, lsr pc
  68:	322f2f2f 	eorcc	r2, pc, #188	; 0xbc
  6c:	2f4d2f2f 	svccs	0x004d2f2f
  70:	322f2f2f 	eorcc	r2, pc, #188	; 0xbc
  74:	2f2f2f2f 	svccs	0x002f2f2f
  78:	312f2f2f 	teqcc	pc, pc, lsr #30
  7c:	2f2f2f2f 	svccs	0x002f2f2f
  80:	2f2f2f31 	svccs	0x002f2f31
  84:	2f2f2f31 	svccs	0x002f2f31
  88:	0814032f 	ldmdaeq	r4, {r0, r1, r2, r3, r5, r8, r9}
  8c:	302f2fac 	eorcc	r2, pc, ip, lsr #31
  90:	022f2f2f 	eoreq	r2, pc, #188	; 0xbc
  94:	01010016 	tsteq	r1, r6, lsl r0
  98:	00000047 	andeq	r0, r0, r7, asr #32
  9c:	001d0002 	andseq	r0, sp, r2
  a0:	01020000 	tsteq	r2, r0
  a4:	000d0efb 	strdeq	r0, [sp], -fp
  a8:	01010101 	tsteq	r1, r1, lsl #2
  ac:	01000000 	tsteq	r0, r0
  b0:	00010000 	andeq	r0, r1, r0
  b4:	6e69616d 	powvsez	f6, f1, #5.0
  b8:	0000632e 	andeq	r6, r0, lr, lsr #6
  bc:	00000000 	andeq	r0, r0, r0
  c0:	01f80205 	mvnseq	r0, r5, lsl #4
  c4:	11033005 	tstne	r3, r5
  c8:	676c8401 	strbvs	r8, [ip, -r1, lsl #8]!
  cc:	4c4b4b9f 	mcrrmi	11, 9, r4, fp, cr15
  d0:	674b3430 	smlaldxvs	r3, fp, r0, r4
  d4:	9f4c4e67 	svcls	0x004c4e67
  d8:	09036768 	stmdbeq	r3, {r3, r5, r6, r8, r9, sl, sp, lr}
  dc:	1602d89e 	undefined
  e0:	db010100 	blle	404e8 <_start-0x3000fb18>
  e4:	02000000 	andeq	r0, r0, #0	; 0x0
  e8:	00005e00 	andeq	r5, r0, r0, lsl #28
  ec:	fb010200 	blx	408f6 <_start-0x3000f70a>
  f0:	01000d0e 	tsteq	r0, lr, lsl #26
  f4:	00010101 	andeq	r0, r1, r1, lsl #2
  f8:	00010000 	andeq	r0, r1, r0
  fc:	682f0100 	stmdavs	pc!, {r8}
 100:	2f656d6f 	svccs	0x00656d6f
 104:	756e694c 	strbvc	r6, [lr, #-2380]!
 108:	65542f78 	ldrbvs	r2, [r4, #-3960]
 10c:	4d2f7473 	cfstrsmi	mvf7, [pc, #-460]!
 110:	32696e69 	rsbcc	r6, r9, #1680	; 0x690
 114:	2f303434 	svccs	0x00303434
 118:	6c636e49 	stclvs	14, cr6, [r3], #-292
 11c:	00656475 	rsbeq	r6, r5, r5, ror r4
 120:	61724600 	cmnvs	r2, r0, lsl #12
 124:	6f77656d 	svcvs	0x0077656d
 128:	632e6b72 	teqvs	lr, #116736	; 0x1c800
 12c:	00000000 	andeq	r0, r0, r0
 130:	6d617246 	sfmvs	f7, 2, [r1, #-280]!
 134:	726f7765 	rsbvc	r7, pc, #26476544	; 0x1940000
 138:	00682e6b 	rsbeq	r2, r8, fp, ror #28
 13c:	45000001 	strmi	r0, [r0, #-1]
 140:	726f7272 	rsbvc	r7, pc, #536870919	; 0x20000007
 144:	0100682e 	tsteq	r0, lr, lsr #16
 148:	00000000 	andeq	r0, r0, r0
 14c:	030c0205 	movweq	r0, #49669	; 0xc205
 150:	1c033005 	stcne	0, cr3, [r3], {5}
 154:	304c9f01 	subcc	r9, ip, r1, lsl #30
 158:	821d032f 	andshi	r0, sp, #-1140850688	; 0xbc000000
 15c:	2f4c4c9f 	svccs	0x004c4c9f
 160:	9f9e0a03 	svcls	0x009e0a03
 164:	032f4c4c 	teqeq	pc, #19456	; 0x4c00
 168:	4c9f9e0a 	ldcmi	14, cr9, [pc], {10}
 16c:	2f4c3084 	svccs	0x004c3084
 170:	9f820a03 	svcls	0x00820a03
 174:	68684c4b 	stmdavs	r8!, {r0, r1, r3, r6, sl, fp, lr}^
 178:	ca086868 	bgt	21a320 <_start-0x2fe35ce0>
 17c:	084b2108 	stmdaeq	fp, {r3, r8, sp}^
 180:	66790359 	undefined
 184:	6aba0b03 	bvs	fee82d98 <bss_end+0xcedf8b28>
 188:	4b210868 	blmi	842330 <_start-0x2f80dcd0>
 18c:	03455908 	movteq	r5, #22792	; 0x5908
 190:	0367ba09 	cmneq	r7, #36864	; 0x9000
 194:	4bbbf20a 	blmi	feefc9c4 <bss_end+0xcee72754>
 198:	7508684c 	strvc	r6, [r8, #-2124]
 19c:	03a70868 	undefined instruction 0x03a70868
 1a0:	0a03ba09 	beq	ee9cc <_start-0x2ff61634>
 1a4:	9f4bbb82 	svcls	0x004bbb82
 1a8:	684c4b4b 	stmdavs	ip, {r0, r1, r3, r6, r8, r9, fp, lr}^
 1ac:	76086768 	strvc	r6, [r8], -r8, ror #14
 1b0:	91085908 	tstls	r8, r8, lsl #18
 1b4:	03a04b83 	moveq	r4, #134144	; 0x20c00
 1b8:	1103ba75 	tstne	r3, r5, ror sl
 1bc:	000602d6 	ldrdeq	r0, [r6], -r6
 1c0:	00960101 	addseq	r0, r6, r1, lsl #2
 1c4:	00020000 	andeq	r0, r2, r0
 1c8:	00000056 	andeq	r0, r0, r6, asr r0
 1cc:	0efb0102 	cdpeq	1, 15, cr0, cr11, cr2, {0}
 1d0:	0101000d 	tsteq	r1, sp
 1d4:	00000101 	andeq	r0, r0, r1, lsl #2
 1d8:	00000100 	andeq	r0, r0, r0, lsl #2
 1dc:	6f682f01 	svcvs	0x00682f01
 1e0:	4c2f656d 	cfstr32mi	mvfx6, [pc], #-436
 1e4:	78756e69 	ldmdavc	r5!, {r0, r3, r5, r6, r9, sl, fp, sp, lr}^
 1e8:	7365542f 	cmnvc	r5, #788529152	; 0x2f000000
 1ec:	694d2f74 	stmdbvs	sp, {r2, r4, r5, r6, r8, r9, sl, fp, sp}^
 1f0:	3432696e 	ldrtcc	r6, [r2], #-2414
 1f4:	492f3034 	stmdbmi	pc!, {r2, r4, r5, ip, sp}
 1f8:	756c636e 	strbvc	r6, [ip, #-878]!
 1fc:	00006564 	andeq	r6, r0, r4, ror #10
 200:	746f6f42 	strbtvc	r6, [pc], #3906	; 208 <_start-0x3004fdf8>
 204:	00632e6d 	rsbeq	r2, r3, sp, ror #28
 208:	45000000 	strmi	r0, [r0]
 20c:	726f7272 	rsbvc	r7, pc, #536870919	; 0x20000007
 210:	0100682e 	tsteq	r0, lr, lsr #16
 214:	6f420000 	svcvs	0x00420000
 218:	2e6d746f 	cdpcs	4, 6, cr7, cr13, cr15, {3}
 21c:	00010068 	andeq	r0, r1, r8, rrx
 220:	05000000 	streq	r0, [r0]
 224:	05080802 	streq	r0, [r8, #-2050]
 228:	010f0330 	tsteq	pc, r0, lsr r3
 22c:	849f844b 	ldrhi	r8, [pc], #1099	; 234 <_start-0x3004fdcc>
 230:	08848383 	stmeq	r4, {r0, r1, r7, r8, r9, pc}
 234:	9f4b8521 	svcls	0x004b8521
 238:	08848384 	stmeq	r4, {r2, r7, r8, r9, pc}
 23c:	bc678521 	cfstr64lt	mvdx8, [r7], #-132
 240:	08f4bcbb 	ldmeq	r4!, {r0, r1, r3, r4, r5, r7, sl, fp, ip, sp, pc}^
 244:	834ba121 	movthi	sl, #45345	; 0xb121
 248:	864c8583 	strbhi	r8, [ip], -r3, lsl #11
 24c:	31313131 	teqcc	r1, r1, lsr r1
 250:	9f852108 	svcls	0x00852108
 254:	022f304c 	eoreq	r3, pc, #76	; 0x4c
 258:	01010008 	tsteq	r1, r8
 25c:	0000008e 	andeq	r0, r0, lr, lsl #1
 260:	00210002 	eoreq	r0, r1, r2
 264:	01020000 	tsteq	r2, r0
 268:	000d0efb 	strdeq	r0, [sp], -fp
 26c:	01010101 	tsteq	r1, r1, lsl #2
 270:	01000000 	tsteq	r0, r0
 274:	00010000 	andeq	r0, r1, r0
 278:	646e614e 	strbtvs	r6, [lr], #-334
 27c:	74696e49 	strbtvc	r6, [r9], #-3657
 280:	0000632e 	andeq	r6, r0, lr, lsr #6
 284:	00000000 	andeq	r0, r0, r0
 288:	0a9c0205 	beq	fe700aa4 <bss_end+0xce676834>
 28c:	0d033005 	stceq	0, cr3, [r3, #-20]
 290:	69d74b01 	ldmibvs	r7, {r0, r8, r9, fp, lr}^
 294:	4b69d74b 	blmi	1a75fc8 <_start-0x2e5da038>
 298:	83692108 	cmnhi	r9, #2	; 0x2
 29c:	9f83699f 	svcls	0x0083699f
 2a0:	69da4b69 	ldmibvs	sl, {r0, r3, r5, r6, r8, r9, fp, lr}^
 2a4:	4e32314c 	rsfmism	f3, f2, #4.0
 2a8:	4c692f32 	stclmi	15, cr2, [r9], #-200
 2ac:	692f8585 	stmdbvs	pc!, {r0, r2, r7, r8, sl, pc}
 2b0:	4d3131a2 	ldfmis	f3, [r1, #-648]!
 2b4:	9f834d4b 	svcls	0x00834d4b
 2b8:	68314da1 	ldmdavs	r1!, {r0, r5, r7, r8, sl, fp, lr}
 2bc:	6a2ff8f0 	bvs	bfe684 <_start-0x2f45197c>
 2c0:	678384bd 	undefined
 2c4:	696d6167 	stmdbvs	sp!, {r0, r1, r2, r5, r6, r8, sp, lr}^
 2c8:	4d313186 	ldfmis	f3, [r1, #-536]!
 2cc:	4da19f83 	stcmi	15, cr9, [r1, #524]!
 2d0:	30a14d31 	adccc	r4, r1, r1, lsr sp
 2d4:	4c9f8530 	cfldr32mi	mvfx8, [pc], {48}
 2d8:	4b4d3131 	blmi	134c7a4 <_start-0x2ed0385c>
 2dc:	a19f834d 	orrsge	r8, pc, sp, asr #6
 2e0:	4df8d468 	cfldrdmi	mvd13, [r8, #416]!
 2e4:	2fa14d31 	svccs	0x00a14d31
 2e8:	00080230 	andeq	r0, r8, r0, lsr r2
 2ec:	00460101 	subeq	r0, r6, r1, lsl #2
 2f0:	00020000 	andeq	r0, r2, r0
 2f4:	0000001f 	andeq	r0, r0, pc, lsl r0
 2f8:	0efb0102 	cdpeq	1, 15, cr0, cr11, cr2, {0}
 2fc:	0101000d 	tsteq	r1, sp
 300:	00000101 	andeq	r0, r0, r1, lsl #2
 304:	00000100 	andeq	r0, r0, r0, lsl #2
 308:	6f430001 	svcvs	0x00430001
 30c:	6e6f6d6d 	cdpvs	13, 6, cr6, cr15, cr13, {3}
 310:	0000632e 	andeq	r6, r0, lr, lsr #6
 314:	00000000 	andeq	r0, r0, r0
 318:	0f040205 	svceq	0x00040205
 31c:	83153005 	tsthi	r5, #5	; 0x5
 320:	9f6a3d08 	svcls	0x006a3d08
 324:	80684c4b 	rsbhi	r4, r8, fp, asr #24
 328:	83862fdb 	orrhi	r2, r6, #876	; 0x36c
 32c:	d7d7bb4c 	ldrble	fp, [r7, ip, asr #22]
 330:	022f68bc 	eoreq	r6, pc, #12320768	; 0xbc0000
 334:	01010008 	tsteq	r1, r8
 338:	000000bb 	strheq	r0, [r0], -fp
 33c:	001f0002 	andseq	r0, pc, r2
 340:	01020000 	tsteq	r2, r0
 344:	000d0efb 	strdeq	r0, [sp], -fp
 348:	01010101 	tsteq	r1, r1, lsl #2
 34c:	01000000 	tsteq	r0, r0
 350:	00010000 	andeq	r0, r1, r0
 354:	69727453 	ldmdbvs	r2!, {r0, r1, r4, r6, sl, ip, sp, lr}^
 358:	632e676e 	teqvs	lr, #28835840	; 0x1b80000
 35c:	00000000 	andeq	r0, r0, r0
 360:	02050000 	andeq	r0, r5, #0	; 0x0
 364:	30051058 	andcc	r1, r5, r8, asr r0
 368:	9f011703 	svcls	0x00011703
 36c:	084c4b4b 	stmdaeq	ip, {r0, r1, r3, r6, r8, r9, fp, lr}^
 370:	69bd6bae 	ldmibvs	sp!, {r1, r2, r3, r5, r7, r8, r9, fp, sp, lr}
 374:	036769bc 	cmneq	r7, #3080192	; 0x2f0000
 378:	11036672 	tstne	r3, r2, ror r6
 37c:	838a67f2 	orrhi	r6, sl, #63438848	; 0x3c80000
 380:	c064864c 	rsbgt	r8, r4, ip, asr #12
 384:	4c9f8a2f 	fldmiasmi	pc, {s16-s62}
 388:	c163f3da 	ldrdgt	pc, [r3, #-58]!
 38c:	4cbb8a2f 	fldmiasmi	fp!, {s16-s62}
 390:	633d08da 	teqvs	sp, #14286848	; 0xda0000
 394:	838a2f6d 	orrhi	r2, sl, #436	; 0x1b4
 398:	03868486 	orreq	r8, r6, #-2046820352	; 0x86000000
 39c:	0b036678 	bleq	d9d84 <_start-0x2ff7627c>
 3a0:	4bbb6e82 	blmi	feedbdb0 <bss_end+0xcee51b40>
 3a4:	8368684c 	cmnhi	r8, #4980736	; 0x4c0000
 3a8:	836edc63 	cmnhi	lr, #25344	; 0x6300
 3ac:	0894084c 	ldmeq	r4, {r2, r3, r6, fp}
 3b0:	623d0821 	eorsvs	r0, sp, #2162688	; 0x210000
 3b4:	4b836edd 	blmi	fe0dbf30 <bss_end+0xce051cc0>
 3b8:	844d834b 	strbhi	r8, [sp], #-843
 3bc:	03b67608 	undefined instruction 0x03b67608
 3c0:	0884ba09 	stmeq	r4, {r0, r3, r9, fp, ip, sp, pc}
 3c4:	0e260276 	mcreq	2, 1, r0, cr6, cr6, {3}
 3c8:	2fba0903 	svccs	0x00ba0903
 3cc:	4b4b838a 	blmi	12e11fc <_start-0x2ed6ee04>
 3d0:	02844e83 	addeq	r4, r4, #2096	; 0x830
 3d4:	7a031648 	bvc	c5cfc <_start-0x2ff8a304>
 3d8:	ba0b03ba 	blt	2c12c8 <_start-0x2fd8ed38>
 3dc:	02760884 	rsbseq	r0, r6, #8650752	; 0x840000
 3e0:	76081528 	strvc	r1, [r8], -r8, lsr #10
 3e4:	08152802 	ldmdaeq	r5, {r1, fp, sp}
 3e8:	02720376 	rsbseq	r0, r2, #-671088639	; 0xd8000001
 3ec:	13030126 	movwne	r0, #12582	; 0x3126
 3f0:	08022fba 	stmdaeq	r2, {r1, r3, r4, r5, r7, r8, r9, sl, fp, sp}
 3f4:	4b010100 	blmi	407fc <_start-0x3000f804>
 3f8:	02000000 	andeq	r0, r0, #0	; 0x0
 3fc:	00002300 	andeq	r2, r0, r0, lsl #6
 400:	fb010200 	blx	40c0a <_start-0x3000f3f6>
 404:	01000d0e 	tsteq	r0, lr, lsl #26
 408:	00010101 	andeq	r0, r1, r1, lsl #2
 40c:	00010000 	andeq	r0, r1, r0
 410:	47000100 	strmi	r0, [r0, -r0, lsl #2]
 414:	706f7465 	rsbvc	r7, pc, r5, ror #8
 418:	6d655474 	cfstrdvs	mvd5, [r5, #-464]!
 41c:	00632e70 	rsbeq	r2, r3, r0, ror lr
 420:	00000000 	andeq	r0, r0, r0
 424:	bc020500 	cfstr32lt	mvfx0, [r2], {0}
 428:	18300518 	ldmdane	r0!, {r3, r4, r8, sl}
 42c:	bb85674b 	bllt	fe15a160 <bss_end+0xce0cfef0>
 430:	08844c4b 	stmeq	r4, {r0, r1, r3, r6, sl, fp, lr}
 434:	675a0840 	ldrbvs	r0, [sl, -r0, asr #16]
 438:	667703a2 	ldrbtvs	r0, [r7], -r2, lsr #7
 43c:	d613039a 	undefined
 440:	000a022f 	andeq	r0, sl, pc, lsr #4
 444:	00640101 	rsbeq	r0, r4, r1, lsl #2
 448:	00020000 	andeq	r0, r2, r0
 44c:	0000004b 	andeq	r0, r0, fp, asr #32
 450:	0efb0102 	cdpeq	1, 15, cr0, cr11, cr2, {0}
 454:	0101000d 	tsteq	r1, sp
 458:	00000101 	andeq	r0, r0, r1, lsl #2
 45c:	00000100 	andeq	r0, r0, r0, lsl #2
 460:	6f682f01 	svcvs	0x00682f01
 464:	4c2f656d 	cfstr32mi	mvfx6, [pc], #-436
 468:	78756e69 	ldmdavc	r5!, {r0, r3, r5, r6, r9, sl, fp, sp, lr}^
 46c:	7365542f 	cmnvc	r5, #788529152	; 0x2f000000
 470:	694d2f74 	stmdbvs	sp, {r2, r4, r5, r6, r8, r9, sl, fp, sp}^
 474:	3432696e 	ldrtcc	r6, [r2], #-2414
 478:	492f3034 	stmdbmi	pc!, {r2, r4, r5, ip, sp}
 47c:	756c636e 	strbvc	r6, [ip, #-878]!
 480:	00006564 	andeq	r6, r0, r4, ror #10
 484:	6f727245 	svcvs	0x00727245
 488:	00632e72 	rsbeq	r2, r3, r2, ror lr
 48c:	45000000 	strmi	r0, [r0]
 490:	726f7272 	rsbvc	r7, pc, #536870919	; 0x20000007
 494:	0100682e 	tsteq	r0, lr, lsr #16
 498:	00000000 	andeq	r0, r0, r0
 49c:	19e00205 	stmibne	r0!, {r0, r2, r9}^
 4a0:	83163005 	tsthi	r6, #5	; 0x5
 4a4:	69692308 	stmdbvs	r9!, {r3, r8, r9, sp}^
 4a8:	000c024d 	andeq	r0, ip, sp, asr #4
 4ac:	00800101 	addeq	r0, r0, r1, lsl #2
 4b0:	00020000 	andeq	r0, r2, r0
 4b4:	0000004d 	andeq	r0, r0, sp, asr #32
 4b8:	0efb0102 	cdpeq	1, 15, cr0, cr11, cr2, {0}
 4bc:	0101000d 	tsteq	r1, sp
 4c0:	00000101 	andeq	r0, r0, r1, lsl #2
 4c4:	00000100 	andeq	r0, r0, r0, lsl #2
 4c8:	6f682f01 	svcvs	0x00682f01
 4cc:	4c2f656d 	cfstr32mi	mvfx6, [pc], #-436
 4d0:	78756e69 	ldmdavc	r5!, {r0, r3, r5, r6, r9, sl, fp, sp, lr}^
 4d4:	7365542f 	cmnvc	r5, #788529152	; 0x2f000000
 4d8:	694d2f74 	stmdbvs	sp, {r2, r4, r5, r6, r8, r9, sl, fp, sp}^
 4dc:	3432696e 	ldrtcc	r6, [r2], #-2414
 4e0:	492f3034 	stmdbmi	pc!, {r2, r4, r5, ip, sp}
 4e4:	756c636e 	strbvc	r6, [ip, #-878]!
 4e8:	00006564 	andeq	r6, r0, r4, ror #10
 4ec:	6c6c614d 	stfvse	f6, [ip], #-308
 4f0:	632e636f 	teqvs	lr, #-1140850687	; 0xbc000001
 4f4:	00000000 	andeq	r0, r0, r0
 4f8:	6c6c614d 	stfvse	f6, [ip], #-308
 4fc:	682e636f 	stmdavs	lr!, {r0, r1, r2, r3, r5, r6, r8, r9, sp, lr}
 500:	00000100 	andeq	r0, r0, r0, lsl #2
 504:	02050000 	andeq	r0, r5, #0	; 0x0
 508:	30051a4c 	andcc	r1, r5, ip, asr #20
 50c:	4b4b8319 	blmi	12e1178 <_start-0x2ed6ee88>
 510:	694b6868 	stmdbvs	fp, {r3, r5, r6, fp, sp, lr}^
 514:	08920868 	ldmeq	r2, {r3, r5, r6, fp}
 518:	038b08e5 	orreq	r0, fp, #15007744	; 0xe50000
 51c:	d967ba0a 	stmdble	r7!, {r1, r3, r9, fp, ip, sp, pc}^
 520:	68684c83 	stmdavs	r8!, {r0, r1, r7, sl, fp, lr}^
 524:	7508ae08 	strvc	sl, [r8, #-3592]
 528:	d60c037d 	undefined
 52c:	000c024c 	andeq	r0, ip, ip, asr #4
 530:	00f00101 	rscseq	r0, r0, r1, lsl #2
 534:	00020000 	andeq	r0, r2, r0
 538:	00000053 	andeq	r0, r0, r3, asr r0
 53c:	0efb0102 	cdpeq	1, 15, cr0, cr11, cr2, {0}
 540:	0101000d 	tsteq	r1, sp
 544:	00000101 	andeq	r0, r0, r1, lsl #2
 548:	00000100 	andeq	r0, r0, r0, lsl #2
 54c:	6f682f01 	svcvs	0x00682f01
 550:	4c2f656d 	cfstr32mi	mvfx6, [pc], #-436
 554:	78756e69 	ldmdavc	r5!, {r0, r3, r5, r6, r9, sl, fp, sp, lr}^
 558:	7365542f 	cmnvc	r5, #788529152	; 0x2f000000
 55c:	694d2f74 	stmdbvs	sp, {r2, r4, r5, r6, r8, r9, sl, fp, sp}^
 560:	3432696e 	ldrtcc	r6, [r2], #-2414
 564:	492f3034 	stmdbmi	pc!, {r2, r4, r5, ip, sp}
 568:	756c636e 	strbvc	r6, [ip, #-878]!
 56c:	00006564 	andeq	r6, r0, r4, ror #10
 570:	6e694c44 	cdpvs	12, 6, cr4, cr9, cr4, {2}
 574:	73694c6b 	cmnvc	r9, #27392	; 0x6b00
 578:	00632e74 	rsbeq	r2, r3, r4, ror lr
 57c:	44000000 	strmi	r0, [r0]
 580:	6b6e694c 	blvs	1b9aab8 <_start-0x2e4b5548>
 584:	7473694c 	ldrbtvc	r6, [r3], #-2380
 588:	0100682e 	tsteq	r0, lr, lsr #16
 58c:	00000000 	andeq	r0, r0, r0
 590:	1c700205 	lfmne	f0, 2, [r0], #-20
 594:	0c033005 	stceq	0, cr3, [r3], {5}
 598:	68846701 	stmvs	r4, {r0, r8, r9, sl, sp, lr}
 59c:	69676767 	stmdbvs	r7!, {r0, r1, r2, r5, r6, r8, r9, sl, sp, lr}^
 5a0:	4b83852f 	blmi	fe0e1a64 <bss_end+0xce0577f4>
 5a4:	684c8369 	stmdavs	ip, {r0, r3, r5, r6, r8, r9, pc}^
 5a8:	68676767 	stmdavs	r7!, {r0, r1, r2, r5, r6, r8, r9, sl, sp, lr}^
 5ac:	4c4b8369 	mcrrmi	3, 6, r8, fp, cr9
 5b0:	852f6968 	strhi	r6, [pc, #-2408]!	; fffffc50 <bss_end+0xcff759e0>
 5b4:	e5084bbb 	str	r4, [r8, #-3003]
 5b8:	4c4b684c 	mcrrmi	8, 4, r6, fp, cr12
 5bc:	5d086468 	cfstrspl	mvf6, [r8, #-416]
 5c0:	68686768 	stmdavs	r8!, {r3, r5, r6, r8, r9, sl, sp, lr}^
 5c4:	67846869 	strvs	r6, [r4, r9, ror #16]
 5c8:	852fa169 	strhi	sl, [pc, #-361]!	; 467 <_start-0x3004fb99>
 5cc:	4c4b4b9f 	mcrrmi	11, 9, r4, fp, cr15
 5d0:	684c5a08 	stmdavs	ip, {r3, r9, fp, ip, lr}^
 5d4:	2f69db64 	svccs	0x0069db64
 5d8:	4b4b9f85 	blmi	12e83f4 <_start-0x2ed67c0c>
 5dc:	4b5a084c 	blmi	1682714 <_start-0x2e9cd8ec>
 5e0:	db64684c 	blle	191a718 <_start-0x2e7358e8>
 5e4:	68686867 	stmdavs	r8!, {r0, r1, r2, r5, r6, fp, sp, lr}^
 5e8:	a06a8468 	rsbge	r8, sl, r8, ror #8
 5ec:	852fa169 	strhi	sl, [pc, #-361]!	; 48b <_start-0x3004fb75>
 5f0:	4c4b4b9f 	mcrrmi	11, 9, r4, fp, cr15
 5f4:	a0684c68 	rsbge	r4, r8, r8, ror #24
 5f8:	66780386 	ldrbtvs	r0, [r8], -r6, lsl #7
 5fc:	68f20b03 	ldmvs	r2!, {r0, r1, r8, r9, fp}^
 600:	83852f6a 	orrhi	r2, r5, #424	; 0x1a8
 604:	83684c4b 	cmnhi	r8, #19200	; 0x4b00
 608:	83852f69 	orrhi	r2, r5, #420	; 0x1a4
 60c:	69684c4b 	stmdbvs	r8!, {r0, r1, r3, r6, sl, fp, lr}^
 610:	4b83852f 	blmi	fe0e1ad4 <bss_end+0xce057864>
 614:	8567d84c 	strbhi	sp, [r7, #-2124]!
 618:	4b83852f 	blmi	fe0e1adc <bss_end+0xce05786c>
 61c:	8567d84c 	strbhi	sp, [r7, #-2124]!
 620:	0008022f 	andeq	r0, r8, pc, lsr #4
 624:	00870101 	addeq	r0, r7, r1, lsl #2
 628:	00020000 	andeq	r0, r2, r0
 62c:	00000051 	andeq	r0, r0, r1, asr r0
 630:	0efb0102 	cdpeq	1, 15, cr0, cr11, cr2, {0}
 634:	0101000d 	tsteq	r1, sp
 638:	00000101 	andeq	r0, r0, r1, lsl #2
 63c:	00000100 	andeq	r0, r0, r0, lsl #2
 640:	6f682f01 	svcvs	0x00682f01
 644:	4c2f656d 	cfstr32mi	mvfx6, [pc], #-436
 648:	78756e69 	ldmdavc	r5!, {r0, r3, r5, r6, r9, sl, fp, sp, lr}^
 64c:	7365542f 	cmnvc	r5, #788529152	; 0x2f000000
 650:	694d2f74 	stmdbvs	sp, {r2, r4, r5, r6, r8, r9, sl, fp, sp}^
 654:	3432696e 	ldrtcc	r6, [r2], #-2414
 658:	492f3034 	stmdbmi	pc!, {r2, r4, r5, ip, sp}
 65c:	756c636e 	strbvc	r6, [ip, #-878]!
 660:	00006564 	andeq	r6, r0, r4, ror #10
 664:	706d6554 	rsbvc	r6, sp, r4, asr r5
 668:	6574616c 	ldrbvs	r6, [r4, #-364]!
 66c:	0000632e 	andeq	r6, r0, lr, lsr #6
 670:	65540000 	ldrbvs	r0, [r4]
 674:	616c706d 	cmnvs	ip, sp, rrx
 678:	682e6574 	stmdavs	lr!, {r2, r4, r5, r6, r8, sl, sp, lr}
 67c:	00000100 	andeq	r0, r0, r0, lsl #2
 680:	02050000 	andeq	r0, r5, #0	; 0x0
 684:	30052344 	andcc	r2, r5, r4, asr #6
 688:	bb012203 	bllt	48e9c <_start-0x30007164>
 68c:	d868bc4c 	stmdale	r8!, {r2, r3, r6, sl, fp, ip, sp, pc}^
 690:	ba7803da 	blt	1e01600 <_start-0x2e24ea00>
 694:	69ba0c03 	ldmibvs	sl!, {r0, r1, sl, fp}
 698:	674b4bd7 	undefined
 69c:	3e086868 	cdpcc	8, 0, cr6, cr8, cr8, {3}
 6a0:	033d0867 	teqeq	sp, #6750208	; 0x670000
 6a4:	033c087a 	teqeq	ip, #7995392	; 0x7a0000
 6a8:	2fbcba0b 	svccs	0x00bcba0b
 6ac:	01001402 	tsteq	r0, r2, lsl #8
 6b0:	00001901 	andeq	r1, r0, r1, lsl #18
 6b4:	13000200 	movwne	r0, #512	; 0x200
 6b8:	02000000 	andeq	r0, r0, #0	; 0x0
 6bc:	0d0efb01 	vstreq	d15, [lr, #-4]
 6c0:	01010100 	tsteq	r1, r0, lsl #2
 6c4:	00000001 	andeq	r0, r0, r1
 6c8:	01000001 	tsteq	r0, r1
 6cc:	00aa0000 	adceq	r0, sl, r0
 6d0:	00020000 	andeq	r0, r2, r0
 6d4:	0000004f 	andeq	r0, r0, pc, asr #32
 6d8:	0efb0102 	cdpeq	1, 15, cr0, cr11, cr2, {0}
 6dc:	0101000d 	tsteq	r1, sp
 6e0:	00000101 	andeq	r0, r0, r1, lsl #2
 6e4:	00000100 	andeq	r0, r0, r0, lsl #2
 6e8:	6f682f01 	svcvs	0x00682f01
 6ec:	4c2f656d 	cfstr32mi	mvfx6, [pc], #-436
 6f0:	78756e69 	ldmdavc	r5!, {r0, r3, r5, r6, r9, sl, fp, sp, lr}^
 6f4:	7365542f 	cmnvc	r5, #788529152	; 0x2f000000
 6f8:	694d2f74 	stmdbvs	sp, {r2, r4, r5, r6, r8, r9, sl, fp, sp}^
 6fc:	3432696e 	ldrtcc	r6, [r2], #-2414
 700:	492f3034 	stmdbmi	pc!, {r2, r4, r5, ip, sp}
 704:	756c636e 	strbvc	r6, [ip, #-878]!
 708:	00006564 	andeq	r6, r0, r4, ror #10
 70c:	4c716553 	cfldr64mi	mvdx6, [r1], #-332
 710:	2e747369 	cdpcs	3, 7, cr7, cr4, cr9, {3}
 714:	00000063 	andeq	r0, r0, r3, rrx
 718:	71655300 	cmnvc	r5, r0, lsl #6
 71c:	7473694c 	ldrbtvc	r6, [r3], #-2380
 720:	0100682e 	tsteq	r0, lr, lsr #16
 724:	00000000 	andeq	r0, r0, r0
 728:	252c0205 	strcs	r0, [ip, #-517]!
 72c:	0f033005 	svceq	0x00033005
 730:	684c8301 	stmdavs	ip, {r0, r8, r9, pc}^
 734:	676768da 	undefined
 738:	852ff584 	strhi	pc, [pc, #-1412]!	; 1bc <_start-0x3004fe44>
 73c:	694c6883 	stmdbvs	ip, {r0, r1, r7, fp, sp, lr}^
 740:	67684c83 	strbvs	r4, [r8, -r3, lsl #25]!
 744:	4bbb6968 	blmi	feedacec <bss_end+0xcee50a7c>
 748:	a0bc4c4b 	adcsge	r4, ip, fp, asr #24
 74c:	84230869 	strthi	r0, [r3], #-2153
 750:	d8dbaa08 	ldmle	fp, {r3, r9, fp, sp, pc}^
 754:	2f4f6aa0 	svccs	0x004f6aa0
 758:	4b4b9f85 	blmi	12e8574 <_start-0x2ed67a8c>
 75c:	d85a084c 	ldmdale	sl, {r2, r3, r6, fp}^
 760:	f78e0868 	undefined instruction 0xf78e0868
 764:	852fa1f4 	strhi	sl, [pc, #-500]!	; 578 <_start-0x3004fa88>
 768:	084c4b9f 	stmdaeq	ip, {r0, r1, r2, r3, r4, r7, r8, r9, fp, lr}^
 76c:	852fd95a 	strhi	sp, [pc, #-2394]!	; fffffe1a <bss_end+0xcff75baa>
 770:	854b4c83 	strbhi	r4, [fp, #-3203]
 774:	024b4c83 	subeq	r4, fp, #33536	; 0x8300
 778:	01010008 	tsteq	r1, r8
 77c:	0000007b 	andeq	r0, r0, fp, ror r0
 780:	00510002 	subseq	r0, r1, r2
 784:	01020000 	tsteq	r2, r0
 788:	000d0efb 	strdeq	r0, [sp], -fp
 78c:	01010101 	tsteq	r1, r1, lsl #2
 790:	01000000 	tsteq	r0, r0
 794:	2f010000 	svccs	0x00010000
 798:	656d6f68 	strbvs	r6, [sp, #-3944]!
 79c:	6e694c2f 	cdpvs	12, 6, cr4, cr9, cr15, {1}
 7a0:	542f7875 	strtpl	r7, [pc], #2165	; 7a8 <_start-0x3004f858>
 7a4:	2f747365 	svccs	0x00747365
 7a8:	696e694d 	stmdbvs	lr!, {r0, r2, r3, r6, r8, fp, sp, lr}^
 7ac:	30343432 	eorscc	r3, r4, r2, lsr r4
 7b0:	636e492f 	cmnvs	lr, #770048	; 0xbc000
 7b4:	6564756c 	strbvs	r7, [r4, #-1388]!
 7b8:	65530000 	ldrbvs	r0, [r3]
 7bc:	61745371 	cmnvs	r4, r1, ror r3
 7c0:	632e6b63 	teqvs	lr, #101376	; 0x18c00
 7c4:	00000000 	andeq	r0, r0, r0
 7c8:	53716553 	cmnpl	r1, #348127232	; 0x14c00000
 7cc:	6b636174 	blvs	18d8da4 <_start-0x2e77725c>
 7d0:	0100682e 	tsteq	r0, lr, lsr #16
 7d4:	00000000 	andeq	r0, r0, r0
 7d8:	29900205 	ldmibcs	r0, {r0, r2, r9}
 7dc:	83183005 	tsthi	r8, #5	; 0x5
 7e0:	4b838567 	blmi	fe0e1d84 <bss_end+0xce057b14>
 7e4:	694b8369 	stmdbvs	fp, {r0, r3, r5, r6, r8, r9, pc}^
 7e8:	8369f39f 	msrhi	SPSR_fc, #2080374786	; 0x7c000002
 7ec:	d78385d7 	undefined
 7f0:	86678385 	strbthi	r8, [r7], -r5, lsl #7
 7f4:	08026783 	stmdaeq	r2, {r0, r1, r7, r8, r9, sl, sp, lr}
 7f8:	7c010100 	stfvcs	f0, [r1], {0}
 7fc:	02000000 	andeq	r0, r0, #0	; 0x0
 800:	00005100 	andeq	r5, r0, r0, lsl #2
 804:	fb010200 	blx	4100e <_start-0x3000eff2>
 808:	01000d0e 	tsteq	r0, lr, lsl #26
 80c:	00010101 	andeq	r0, r1, r1, lsl #2
 810:	00010000 	andeq	r0, r1, r0
 814:	682f0100 	stmdavs	pc!, {r8}
 818:	2f656d6f 	svccs	0x00656d6f
 81c:	756e694c 	strbvc	r6, [lr, #-2380]!
 820:	65542f78 	ldrbvs	r2, [r4, #-3960]
 824:	4d2f7473 	cfstrsmi	mvf7, [pc, #-460]!
 828:	32696e69 	rsbcc	r6, r9, #1680	; 0x690
 82c:	2f303434 	svccs	0x00303434
 830:	6c636e49 	stclvs	14, cr6, [r3], #-292
 834:	00656475 	rsbeq	r6, r5, r5, ror r4
 838:	71655300 	cmnvc	r5, r0, lsl #6
 83c:	75657551 	strbvc	r7, [r5, #-1361]!
 840:	00632e65 	rsbeq	r2, r3, r5, ror #28
 844:	53000000 	movwpl	r0, #0	; 0x0
 848:	75517165 	ldrbvc	r7, [r1, #-357]
 84c:	2e657565 	cdpcs	5, 6, cr7, cr5, cr5, {3}
 850:	00010068 	andeq	r0, r1, r8, rrx
 854:	05000000 	streq	r0, [r0]
 858:	052b1402 	streq	r1, [fp, #-1026]!
 85c:	67831830 	undefined
 860:	694b8385 	stmdbvs	fp, {r0, r2, r7, r8, r9, pc}^
 864:	9f694b83 	svcls	0x00694b83
 868:	83852108 	orrhi	r2, r5, #2	; 0x2
 86c:	83838583 	orrhi	r8, r3, #549453824	; 0x20c00000
 870:	85678385 	strbhi	r8, [r7, #-901]!
 874:	08026783 	stmdaeq	r2, {r0, r1, r7, r8, r9, sl, sp, lr}
 878:	a8010100 	stmdage	r1, {r8}
 87c:	02000000 	andeq	r0, r0, #0	; 0x0
 880:	00005100 	andeq	r5, r0, r0, lsl #2
 884:	fb010200 	blx	4108e <_start-0x3000ef72>
 888:	01000d0e 	tsteq	r0, lr, lsl #26
 88c:	00010101 	andeq	r0, r1, r1, lsl #2
 890:	00010000 	andeq	r0, r1, r0
 894:	682f0100 	stmdavs	pc!, {r8}
 898:	2f656d6f 	svccs	0x00656d6f
 89c:	756e694c 	strbvc	r6, [lr, #-2380]!
 8a0:	65542f78 	ldrbvs	r2, [r4, #-3960]
 8a4:	4d2f7473 	cfstrsmi	mvf7, [pc, #-460]!
 8a8:	32696e69 	rsbcc	r6, r9, #1680	; 0x690
 8ac:	2f303434 	svccs	0x00303434
 8b0:	6c636e49 	stclvs	14, cr6, [r3], #-292
 8b4:	00656475 	rsbeq	r6, r5, r5, ror r4
 8b8:	6e694c00 	cdpvs	12, 6, cr4, cr9, cr0, {0}
 8bc:	73694c6b 	cmnvc	r9, #27392	; 0x6b00
 8c0:	00632e74 	rsbeq	r2, r3, r4, ror lr
 8c4:	4c000000 	stcmi	0, cr0, [r0], {0}
 8c8:	4c6b6e69 	stclmi	14, cr6, [fp], #-420
 8cc:	2e747369 	cdpcs	3, 7, cr7, cr4, cr9, {3}
 8d0:	00010068 	andeq	r0, r1, r8, rrx
 8d4:	05000000 	streq	r0, [r0]
 8d8:	052c8802 	streq	r8, [ip, #-2050]!
 8dc:	010b0330 	tsteq	fp, r0, lsr r3
 8e0:	67688467 	strbvs	r8, [r8, -r7, ror #8]!
 8e4:	83852f69 	orrhi	r2, r5, #420	; 0x1a4
 8e8:	4c83694b 	stcmi	9, cr6, [r3], {75}
 8ec:	69686768 	stmdbvs	r8!, {r3, r5, r6, r8, r9, sl, sp, lr}^
 8f0:	684c4b83 	stmdavs	ip, {r0, r1, r7, r8, r9, fp, lr}^
 8f4:	bb852f69 	bllt	fe14c6a0 <bss_end+0xce0c2430>
 8f8:	4ce5084b 	stclmi	8, cr0, [r5], #300
 8fc:	64684c68 	strbtvs	r4, [r8], #-3176
 900:	68835d08 	stmvs	r3, {r3, r8, sl, fp, ip, lr}
 904:	9f852fa1 	svcls	0x00852fa1
 908:	084c4b4b 	stmdaeq	ip, {r0, r1, r3, r6, r8, r9, fp, lr}^
 90c:	64684c5a 	strbtvs	r4, [r8], #-3162
 910:	852f69db 	strhi	r6, [pc, #-2523]!	; ffffff3d <bss_end+0xcff75ccd>
 914:	4c4b4b9f 	mcrrmi	11, 9, r4, fp, cr15
 918:	684c5a08 	stmdavs	ip, {r3, r9, fp, ip, lr}^
 91c:	8467db64 	strbthi	sp, [r7], #-2916
 920:	08022fa1 	stmdaeq	r2, {r0, r5, r7, r8, r9, sl, fp, sp}
 924:	9d010100 	stflss	f0, [r1]
 928:	02000000 	andeq	r0, r0, #0	; 0x0
 92c:	00006100 	andeq	r6, r0, r0, lsl #2
 930:	fb010200 	blx	4113a <_start-0x3000eec6>
 934:	01000d0e 	tsteq	r0, lr, lsl #26
 938:	00010101 	andeq	r0, r1, r1, lsl #2
 93c:	00010000 	andeq	r0, r1, r0
 940:	682f0100 	stmdavs	pc!, {r8}
 944:	2f656d6f 	svccs	0x00656d6f
 948:	756e694c 	strbvc	r6, [lr, #-2380]!
 94c:	65542f78 	ldrbvs	r2, [r4, #-3960]
 950:	4d2f7473 	cfstrsmi	mvf7, [pc, #-460]!
 954:	32696e69 	rsbcc	r6, r9, #1680	; 0x690
 958:	2f303434 	svccs	0x00303434
 95c:	6c636e49 	stclvs	14, cr6, [r3], #-292
 960:	00656475 	rsbeq	r6, r5, r5, ror r4
 964:	6e694c00 	cdpvs	12, 6, cr4, cr9, cr0, {0}
 968:	6174536b 	cmnvs	r4, fp, ror #6
 96c:	632e6b63 	teqvs	lr, #101376	; 0x18c00
 970:	00000000 	andeq	r0, r0, r0
 974:	6b6e694c 	blvs	1b9aeac <_start-0x2e4b5154>
 978:	7473694c 	ldrbtvc	r6, [r3], #-2380
 97c:	0100682e 	tsteq	r0, lr, lsr #16
 980:	694c0000 	stmdbvs	ip, {}^
 984:	74536b6e 	ldrbvc	r6, [r3], #-2926
 988:	2e6b6361 	cdpcs	3, 6, cr6, cr11, cr1, {3}
 98c:	00010068 	andeq	r0, r1, r8, rrx
 990:	05000000 	streq	r0, [r0]
 994:	05302402 	ldreq	r2, [r0, #-1026]!
 998:	010d0330 	tsteq	sp, r0, lsr r3
 99c:	83854b4b 	orrhi	r4, r5, #76800	; 0x12c00
 9a0:	a1694b4b 	cmnge	r9, fp, asr #22
 9a4:	9f69a248 	svcls	0x0069a248
 9a8:	68920883 	ldmvs	r2, {r0, r1, r7, fp}
 9ac:	4d68d967 	stclmi	9, cr13, [r8, #-412]!
 9b0:	9f83852f 	svcls	0x0083852f
 9b4:	4d68684c 	stclmi	8, cr6, [r8, #-304]!
 9b8:	9f83852f 	svcls	0x0083852f
 9bc:	2f69684c 	svccs	0x0069684c
 9c0:	02678385 	rsbeq	r8, r7, #335544322	; 0x14000002
 9c4:	01010008 	tsteq	r1, r8
 9c8:	000000ab 	andeq	r0, r0, fp, lsr #1
 9cc:	00610002 	rsbeq	r0, r1, r2
 9d0:	01020000 	tsteq	r2, r0
 9d4:	000d0efb 	strdeq	r0, [sp], -fp
 9d8:	01010101 	tsteq	r1, r1, lsl #2
 9dc:	01000000 	tsteq	r0, r0
 9e0:	2f010000 	svccs	0x00010000
 9e4:	656d6f68 	strbvs	r6, [sp, #-3944]!
 9e8:	6e694c2f 	cdpvs	12, 6, cr4, cr9, cr15, {1}
 9ec:	542f7875 	strtpl	r7, [pc], #2165	; 9f4 <_start-0x3004f60c>
 9f0:	2f747365 	svccs	0x00747365
 9f4:	696e694d 	stmdbvs	lr!, {r0, r2, r3, r6, r8, fp, sp, lr}^
 9f8:	30343432 	eorscc	r3, r4, r2, lsr r4
 9fc:	636e492f 	cmnvs	lr, #770048	; 0xbc000
 a00:	6564756c 	strbvs	r7, [r4, #-1388]!
 a04:	694c0000 	stmdbvs	ip, {}^
 a08:	75516b6e 	ldrbvc	r6, [r1, #-2926]
 a0c:	2e657565 	cdpcs	5, 6, cr7, cr5, cr5, {3}
 a10:	00000063 	andeq	r0, r0, r3, rrx
 a14:	6e694c00 	cdpvs	12, 6, cr4, cr9, cr0, {0}
 a18:	73694c6b 	cmnvc	r9, #27392	; 0x6b00
 a1c:	00682e74 	rsbeq	r2, r8, r4, ror lr
 a20:	4c000001 	stcmi	0, cr0, [r0], {1}
 a24:	516b6e69 	cmnpl	fp, r9, ror #28
 a28:	65756575 	ldrbvs	r6, [r5, #-1397]!
 a2c:	0100682e 	tsteq	r0, lr, lsr #16
 a30:	00000000 	andeq	r0, r0, r0
 a34:	32440205 	subcc	r0, r4, #1342177280	; 0x50000000
 a38:	0d033005 	stceq	0, cr3, [r3, #-20]
 a3c:	854b4b01 	strbhi	r4, [fp, #-2817]
 a40:	4c4b6883 	mcrrmi	8, 8, r6, fp, cr3
 a44:	084c8369 	stmdaeq	ip, {r0, r3, r5, r6, r8, r9, pc}^
 a48:	45689f24 	strbmi	r9, [r8, #-3876]!
 a4c:	699e0903 	ldmibvs	lr, {r0, r1, r8, fp}
 a50:	bc4c4b9f 	mcrrlt	11, 9, r4, ip, cr15
 a54:	08686884 	stmdaeq	r8!, {r2, r7, fp, sp, lr}^
 a58:	2f4f6822 	svccs	0x004f6822
 a5c:	4c4b8385 	mcrrmi	3, 8, r8, fp, cr5
 a60:	68689f68 	stmdavs	r8!, {r3, r5, r6, r8, r9, sl, fp, ip, pc}^
 a64:	83852f4e 	orrhi	r2, r5, #312	; 0x138
 a68:	9f684c4b 	svcls	0x00684c4b
 a6c:	852f6a68 	strhi	r6, [pc, #-2664]!	; c <_start-0x3004fff4>
 a70:	08026783 	stmdaeq	r2, {r0, r1, r7, r8, r9, sl, sp, lr}
 a74:	73010100 	movwvc	r0, #4352	; 0x1100
 a78:	02000000 	andeq	r0, r0, #0	; 0x0
 a7c:	00005500 	andeq	r5, r0, r0, lsl #10
 a80:	fb010200 	blx	4128a <_start-0x3000ed76>
 a84:	01000d0e 	tsteq	r0, lr, lsl #26
 a88:	00010101 	andeq	r0, r1, r1, lsl #2
 a8c:	00010000 	andeq	r0, r1, r0
 a90:	682f0100 	stmdavs	pc!, {r8}
 a94:	2f656d6f 	svccs	0x00656d6f
 a98:	756e694c 	strbvc	r6, [lr, #-2380]!
 a9c:	65542f78 	ldrbvs	r2, [r4, #-3960]
 aa0:	4d2f7473 	cfstrsmi	mvf7, [pc, #-460]!
 aa4:	32696e69 	rsbcc	r6, r9, #1680	; 0x690
 aa8:	2f303434 	svccs	0x00303434
 aac:	6c636e49 	stclvs	14, cr6, [r3], #-292
 ab0:	00656475 	rsbeq	r6, r5, r5, ror r4
 ab4:	73655400 	cmnvc	r5, #0	; 0x0
 ab8:	6e694c74 	mcrvs	12, 3, r4, cr9, cr4, {3}
 abc:	73694c6b 	cmnvc	r9, #27392	; 0x6b00
 ac0:	00632e74 	rsbeq	r2, r3, r4, ror lr
 ac4:	4c000000 	stcmi	0, cr0, [r0], {0}
 ac8:	4c6b6e69 	stclmi	14, cr6, [fp], #-420
 acc:	2e747369 	cdpcs	3, 7, cr7, cr4, cr9, {3}
 ad0:	00010068 	andeq	r0, r1, r8, rrx
 ad4:	05000000 	streq	r0, [r0]
 ad8:	05a77c02 	streq	r7, [r7, #3074]!
 adc:	010e0330 	tsteq	lr, r0, lsr r3
 ae0:	4d4d6967 	stclmi	9, cr6, [sp, #-412]
 ae4:	4ba0a0f4 	blmi	fe828ebc <bss_end+0xce79ec4c>
 ae8:	0008024b 	andeq	r0, r8, fp, asr #4
 aec:	Address 0x00000aec is out of bounds.

Disassembly of section .debug_info:

00000000 <.debug_info>:
       0:	00000047 	andeq	r0, r0, r7, asr #32
       4:	00000002 	andeq	r0, r0, r2
       8:	01040000 	tsteq	r4, r0
       c:	00000000 	andeq	r0, r0, r0
      10:	30050000 	andcc	r0, r5, r0
      14:	300501f8 	strdcc	r0, [r5], -r8
      18:	72617473 	rsbvc	r7, r1, #1929379840	; 0x73000000
      1c:	00532e74 	subseq	r2, r3, r4, ror lr
      20:	6d6f682f 	stclvs	8, cr6, [pc, #-188]!
      24:	694c2f65 	stmdbvs	ip, {r0, r2, r5, r6, r8, r9, sl, fp, sp}^
      28:	2f78756e 	svccs	0x0078756e
      2c:	74736554 	ldrbtvc	r6, [r3], #-1364
      30:	6e694d2f 	cdpvs	13, 6, cr4, cr9, cr15, {1}
      34:	34343269 	ldrtcc	r3, [r4], #-617
      38:	4e470030 	mcrmi	0, 2, r0, cr7, cr0, {1}
      3c:	53412055 	movtpl	r2, #4181	; 0x1055
      40:	312e3220 	teqcc	lr, r0, lsr #4
      44:	30352e38 	eorscc	r2, r5, r8, lsr lr
      48:	77800100 	strvc	r0, [r0, r0, lsl #2]
      4c:	02000001 	andeq	r0, r0, #1	; 0x1
      50:	00001400 	andeq	r1, r0, r0, lsl #8
      54:	ac010400 	cfstrsge	mvf0, [r1], {0}
      58:	01000000 	tsteq	r0, r0
      5c:	0000001d 	andeq	r0, r0, sp, lsl r0
      60:	0000006c 	andeq	r0, r0, ip, rrx
      64:	300501f8 	strdcc	r0, [r5], -r8
      68:	3005030c 	andcc	r0, r5, ip, lsl #6
      6c:	00000098 	muleq	r0, r8, r0
      70:	42070402 	andmi	r0, r7, #33554432	; 0x2000000
      74:	02000000 	andeq	r0, r0, #0	; 0x0
      78:	005e0801 	subseq	r0, lr, r1, lsl #16
      7c:	02020000 	andeq	r0, r2, #0	; 0x0
      80:	00008e07 	andeq	r8, r0, r7, lsl #28
      84:	07040200 	streq	r0, [r4, -r0, lsl #4]
      88:	0000003d 	andeq	r0, r0, sp, lsr r0
      8c:	60060102 	andvs	r0, r6, r2, lsl #2
      90:	02000000 	andeq	r0, r0, #0	; 0x0
      94:	002e0502 	eoreq	r0, lr, r2, lsl #10
      98:	04030000 	streq	r0, [r3]
      9c:	746e6905 	strbtvc	r6, [lr], #-2309
      a0:	05080200 	streq	r0, [r8, #-512]
      a4:	00000000 	andeq	r0, r0, r0
      a8:	38070802 	stmdacc	r7, {r1, fp}
      ac:	02000000 	andeq	r0, r0, #0	; 0x0
      b0:	00050504 	andeq	r0, r5, r4, lsl #10
      b4:	04040000 	streq	r0, [r4]
      b8:	08010207 	stmdaeq	r1, {r0, r1, r2, r9}
      bc:	00000067 	andeq	r0, r0, r7, rrx
      c0:	00b80105 	adcseq	r0, r8, r5, lsl #2
      c4:	12010000 	andne	r0, r1, #0	; 0x0
      c8:	00004f01 	andeq	r4, r0, r1, lsl #30
      cc:	0501f800 	streq	pc, [r1, #-2048]
      d0:	05021430 	streq	r1, [r2, #-1072]
      d4:	00000030 	andeq	r0, r0, r0, lsr r0
      d8:	00009f00 	andeq	r9, r0, r0, lsl #30
      dc:	00610600 	rsbeq	r0, r1, r0, lsl #12
      e0:	004f1101 	subeq	r1, pc, r1, lsl #2
      e4:	91020000 	tstls	r2, r0
      e8:	01070074 	tsteq	r7, r4, ror r0
      ec:	000000a1 	andeq	r0, r0, r1, lsr #1
      f0:	004f1a01 	subeq	r1, pc, r1, lsl #20
      f4:	02140000 	andseq	r0, r4, #0	; 0x0
      f8:	030c3005 	movweq	r3, #49157	; 0xc005
      fc:	002b3005 	eoreq	r3, fp, r5
     100:	010b0000 	tsteq	fp, r0
     104:	4f080000 	svcmi	0x00080000
     108:	01000000 	tsteq	r0, r0
     10c:	00010b1b 	andeq	r0, r1, fp, lsl fp
     110:	84910300 	ldrhi	r0, [r1], #768
     114:	0061097f 	rsbeq	r0, r1, pc, ror r9
     118:	004f1c01 	subeq	r1, pc, r1, lsl #24
     11c:	91020000 	tstls	r2, r0
     120:	04bd0868 	ldrteq	r0, [sp], #2152
     124:	1d010000 	stcne	0, cr0, [r1]
     128:	0000004f 	andeq	r0, r0, pc, asr #32
     12c:	086c9102 	stmdaeq	ip!, {r1, r8, ip, pc}^
     130:	0000000e 	andeq	r0, r0, lr
     134:	006e1e01 	rsbeq	r1, lr, r1, lsl #28
     138:	91020000 	tstls	r2, r0
     13c:	027c0a73 	rsbseq	r0, ip, #471040	; 0x73000
     140:	030c3005 	movweq	r3, #49157	; 0xc005
     144:	bd083005 	stclt	0, cr3, [r8, #-20]
     148:	01000004 	tsteq	r0, r4
     14c:	00004f2f 	andeq	r4, r0, pc, lsr #30
     150:	74910200 	ldrvc	r0, [r1], #512
     154:	6e0b0000 	cdpvs	0, 0, cr0, cr11, cr0, {0}
     158:	1b000000 	blne	160 <_start-0x3004fea0>
     15c:	0c000001 	stceq	0, cr0, [r0], {1}
     160:	0000006b 	andeq	r0, r0, fp, rrx
     164:	6e0b0063 	cdpvs	0, 0, cr0, cr11, cr3, {3}
     168:	26000000 	strcs	r0, [r0], -r0
     16c:	0d000001 	stceq	0, cr0, [r0, #-4]
     170:	00240e00 	eoreq	r0, r4, r0, lsl #28
     174:	0d010000 	stceq	0, cr0, [r1]
     178:	0000011b 	andeq	r0, r0, fp, lsl r1
     17c:	860e0101 	strhi	r0, [lr], -r1, lsl #2
     180:	01000000 	tsteq	r0, r0
     184:	00011b0e 	andeq	r1, r1, lr, lsl #22
     188:	0b010100 	bleq	40590 <_start-0x3000fa70>
     18c:	0000006e 	andeq	r0, r0, lr, rrx
     190:	00000156 	andeq	r0, r0, r6, asr r1
     194:	00006b0c 	andeq	r6, r0, ip, lsl #22
     198:	6b0c0900 	blvs	3025a0 <_start-0x2fd4da60>
     19c:	09000000 	stmdbeq	r0, {}
     1a0:	00170f00 	andseq	r0, r7, r0, lsl #30
     1a4:	16010000 	strne	r0, [r1], -r0
     1a8:	00000140 	andeq	r0, r0, r0, asr #2
     1ac:	a8030501 	stmdage	r3, {r0, r8, sl}
     1b0:	0f3005ed 	svceq	0x003005ed
     1b4:	000000be 	strheq	r0, [r0], -lr
     1b8:	004f1701 	subeq	r1, pc, r1, lsl #14
     1bc:	05010000 	streq	r0, [r1]
     1c0:	05ee0c03 	strbeq	r0, [lr, #3075]!
     1c4:	03c10030 	biceq	r0, r1, #48	; 0x30
     1c8:	00020000 	andeq	r0, r2, r0
     1cc:	000000e6 	andeq	r0, r0, r6, ror #1
     1d0:	00ac0104 	adceq	r0, ip, r4, lsl #2
     1d4:	b8010000 	stmdalt	r1, {}
     1d8:	47000001 	strmi	r0, [r0, -r1]
     1dc:	0c000001 	stceq	0, cr0, [r0], {1}
     1e0:	08300503 	ldmdaeq	r0!, {r0, r1, r8, sl}
     1e4:	e3300508 	teq	r0, #33554432	; 0x2000000
     1e8:	02000000 	andeq	r0, r0, #0	; 0x0
     1ec:	00420704 	subeq	r0, r2, r4, lsl #14
     1f0:	01020000 	tsteq	r2, r0
     1f4:	00005e08 	andeq	r5, r0, r8, lsl #28
     1f8:	07020200 	streq	r0, [r2, -r0, lsl #4]
     1fc:	0000008e 	andeq	r0, r0, lr, lsl #1
     200:	3d070402 	cfstrscc	mvf0, [r7, #-8]
     204:	02000000 	andeq	r0, r0, #0	; 0x0
     208:	00600601 	rsbeq	r0, r0, r1, lsl #12
     20c:	02020000 	andeq	r0, r2, #0	; 0x0
     210:	00002e05 	andeq	r2, r0, r5, lsl #28
     214:	05040300 	streq	r0, [r4, #-768]
     218:	00746e69 	rsbseq	r6, r4, r9, ror #28
     21c:	00050802 	andeq	r0, r5, r2, lsl #16
     220:	02000000 	andeq	r0, r0, #0	; 0x0
     224:	00380708 	eorseq	r0, r8, r8, lsl #14
     228:	04020000 	streq	r0, [r2]
     22c:	00000505 	andeq	r0, r0, r5, lsl #10
     230:	07040400 	streq	r0, [r4, -r0, lsl #8]
     234:	00740405 	rsbseq	r0, r4, r5, lsl #8
     238:	01020000 	tsteq	r2, r0
     23c:	00006708 	andeq	r6, r0, r8, lsl #14
     240:	01ec0600 	mvneq	r0, r0, lsl #12
     244:	03040000 	movweq	r0, #16384	; 0x4000
     248:	00009405 	andeq	r9, r0, r5, lsl #8
     24c:	02070700 	andeq	r0, r7, #0	; 0x0
     250:	07000000 	streq	r0, [r0, -r0]
     254:	000000ff 	strdeq	r0, [r0], -pc
     258:	ed080001 	stc	0, cr0, [r8, #-4]
     25c:	03000001 	movweq	r0, #1	; 0x1
     260:	00007b08 	andeq	r7, r0, r8, lsl #22
     264:	01370900 	teqeq	r7, r0, lsl #18
     268:	020c0000 	andeq	r0, ip, #0	; 0x0
     26c:	0000d606 	andeq	sp, r0, r6, lsl #12
     270:	00f10a00 	rscseq	r0, r1, r0, lsl #20
     274:	07020000 	streq	r0, [r2, -r0]
     278:	0000006e 	andeq	r0, r0, lr, rrx
     27c:	0a002302 	beq	8e8c <_start-0x30047174>
     280:	000000e9 	andeq	r0, r0, r9, ror #1
     284:	006e0802 	rsbeq	r0, lr, r2, lsl #16
     288:	23020000 	movwcs	r0, #8192	; 0x2000
     28c:	02180a04 	andseq	r0, r8, #16384	; 0x4000
     290:	09020000 	stmdbeq	r2, {}
     294:	00000101 	andeq	r0, r0, r1, lsl #2
     298:	00082302 	andeq	r2, r8, r2, lsl #6
     29c:	0094010b 	addseq	r0, r4, fp, lsl #2
     2a0:	00eb0000 	rsceq	r0, fp, r0
     2a4:	4f0c0000 	svcmi	0x000c0000
     2a8:	0c000000 	stceq	0, cr0, [r0], {0}
     2ac:	000000eb 	andeq	r0, r0, fp, ror #1
     2b0:	f1040500 	undefined instruction 0xf1040500
     2b4:	0d000000 	stceq	0, cr0, [r0]
     2b8:	00000074 	andeq	r0, r0, r4, ror r0
     2bc:	00000101 	andeq	r0, r0, r1, lsl #2
     2c0:	00006b0e 	andeq	r6, r0, lr, lsl #22
     2c4:	05000900 	streq	r0, [r0, #-2304]
     2c8:	0000d604 	andeq	sp, r0, r4, lsl #12
     2cc:	00cf0800 	sbceq	r0, pc, r0, lsl #16
     2d0:	0a020000 	beq	802d8 <_start-0x2ffcfd28>
     2d4:	0000009f 	muleq	r0, pc, r0
     2d8:	01fd010f 	mvnseq	r0, pc, lsl #2
     2dc:	1d010000 	stcne	0, cr0, [r1]
     2e0:	00009401 	andeq	r9, r0, r1, lsl #8
     2e4:	05030c00 	streq	r0, [r3, #-3072]
     2e8:	05034030 	streq	r4, [r3, #-48]
     2ec:	00005630 	andeq	r5, r0, r0, lsr r6
     2f0:	00015a00 	andeq	r5, r1, r0, lsl #20
     2f4:	01b31000 	undefined instruction 0x01b31000
     2f8:	1c010000 	stcne	0, cr0, [r1], {0}
     2fc:	0000004f 	andeq	r0, r0, pc, asr #32
     300:	106c9102 	rsbne	r9, ip, r2, lsl #2
     304:	000001e7 	andeq	r0, r0, r7, ror #3
     308:	00eb1c01 	rsceq	r1, fp, r1, lsl #24
     30c:	91020000 	tstls	r2, r0
     310:	011a1168 	tsteq	sl, r8, ror #2
     314:	1e010000 	cdpne	0, 0, cr0, cr1, cr0, {0}
     318:	00000094 	muleq	r0, r4, r0
     31c:	00749102 	rsbseq	r9, r4, r2, lsl #2
     320:	017f010f 	cmneq	pc, pc, lsl #2
     324:	40010000 	andmi	r0, r1, r0
     328:	00009401 	andeq	r9, r0, r1, lsl #8
     32c:	05034000 	streq	r4, [r3]
     330:	05037c30 	streq	r7, [r3, #-3120]
     334:	00008130 	andeq	r8, r0, r0, lsr r1
     338:	0001a200 	andeq	sl, r1, r0, lsl #4
     33c:	01b31000 	undefined instruction 0x01b31000
     340:	3f010000 	svccc	0x00010000
     344:	0000004f 	andeq	r0, r0, pc, asr #32
     348:	106c9102 	rsbne	r9, ip, r2, lsl #2
     34c:	000001e7 	andeq	r0, r0, r7, ror #3
     350:	00eb3f01 	rsceq	r3, fp, r1, lsl #30
     354:	91020000 	tstls	r2, r0
     358:	011a1168 	tsteq	sl, r8, ror #2
     35c:	41010000 	tstmi	r1, r0
     360:	00000094 	muleq	r0, r4, r0
     364:	00749102 	rsbseq	r9, r4, r2, lsl #2
     368:	01d8010f 	bicseq	r0, r8, pc, lsl #2
     36c:	50010000 	andpl	r0, r1, r0
     370:	00009401 	andeq	r9, r0, r1, lsl #8
     374:	05037c00 	streq	r7, [r3, #-3072]
     378:	0503b830 	streq	fp, [r3, #-2096]
     37c:	0000ac30 	andeq	sl, r0, r0, lsr ip
     380:	0001ea00 	andeq	lr, r1, r0, lsl #20
     384:	01b31000 	undefined instruction 0x01b31000
     388:	4f010000 	svcmi	0x00010000
     38c:	0000004f 	andeq	r0, r0, pc, asr #32
     390:	106c9102 	rsbne	r9, ip, r2, lsl #2
     394:	000001e7 	andeq	r0, r0, r7, ror #3
     398:	00eb4f01 	rsceq	r4, fp, r1, lsl #30
     39c:	91020000 	tstls	r2, r0
     3a0:	011a1168 	tsteq	sl, r8, ror #2
     3a4:	51010000 	tstpl	r1, r0
     3a8:	00000094 	muleq	r0, r4, r0
     3ac:	00749102 	rsbseq	r9, r4, r2, lsl #2
     3b0:	0176010f 	cmneq	r6, pc, lsl #2
     3b4:	60010000 	andvs	r0, r1, r0
     3b8:	00009401 	andeq	r9, r0, r1, lsl #8
     3bc:	0503b800 	streq	fp, [r3, #-2048]
     3c0:	05040430 	streq	r0, [r4, #-1072]
     3c4:	0000d730 	andeq	sp, r0, r0, lsr r7
     3c8:	00024000 	andeq	r4, r2, r0
     3cc:	01b31000 	undefined instruction 0x01b31000
     3d0:	5f010000 	svcpl	0x00010000
     3d4:	0000004f 	andeq	r0, r0, pc, asr #32
     3d8:	106c9102 	rsbne	r9, ip, r2, lsl #2
     3dc:	000001e7 	andeq	r0, r0, r7, ror #3
     3e0:	00eb5f01 	rsceq	r5, fp, r1, lsl #30
     3e4:	91020000 	tstls	r2, r0
     3e8:	011a1168 	tsteq	sl, r8, ror #2
     3ec:	61010000 	tstvs	r1, r0
     3f0:	00000094 	muleq	r0, r4, r0
     3f4:	12709102 	rsbsne	r9, r0, #-2147483648	; 0x80000000
     3f8:	00727470 	rsbseq	r7, r2, r0, ror r4
     3fc:	006e6301 	rsbeq	r6, lr, r1, lsl #6
     400:	91020000 	tstls	r2, r0
     404:	010f0074 	tsteq	pc, r4, ror r0
     408:	000000de 	ldrdeq	r0, [r0], -lr
     40c:	94017401 	strls	r7, [r1], #-1025
     410:	04000000 	streq	r0, [r0]
     414:	cc300504 	cfldr32gt	mvfx0, [r0], #-16
     418:	02300505 	eorseq	r0, r0, #20971520	; 0x1400000
     41c:	96000001 	strls	r0, [r0], -r1
     420:	10000002 	andne	r0, r0, r2
     424:	000001b3 	strheq	r0, [r0], -r3
     428:	004f7301 	subeq	r7, pc, r1, lsl #6
     42c:	91020000 	tstls	r2, r0
     430:	01e7106c 	mvneq	r1, ip, rrx
     434:	73010000 	movwvc	r0, #4096	; 0x1000
     438:	000000eb 	andeq	r0, r0, fp, ror #1
     43c:	11689102 	cmnne	r8, r2, lsl #2
     440:	0000011a 	andeq	r0, r0, sl, lsl r1
     444:	00947501 	addseq	r7, r4, r1, lsl #10
     448:	91020000 	tstls	r2, r0
     44c:	04bd1170 	ldrteq	r1, [sp], #368
     450:	76010000 	strvc	r0, [r1], -r0
     454:	0000004f 	andeq	r0, r0, pc, asr #32
     458:	00749102 	rsbseq	r9, r4, r2, lsl #2
     45c:	018f0113 	orreq	r0, pc, r3, lsl r1
     460:	a1010000 	tstge	r1, r0
     464:	0505cc01 	streq	ip, [r5, #-3073]
     468:	05069c30 	streq	r9, [r6, #-3120]
     46c:	00012d30 	andeq	r2, r1, r0, lsr sp
     470:	0002f600 	andeq	pc, r2, r0, lsl #12
     474:	019c1000 	orrseq	r1, ip, r0
     478:	a0010000 	andge	r0, r1, r0
     47c:	0000006e 	andeq	r0, r0, lr, rrx
     480:	106c9102 	rsbne	r9, ip, r2, lsl #2
     484:	000001b3 	strheq	r0, [r0], -r3
     488:	004fa001 	subeq	sl, pc, r1
     48c:	91020000 	tstls	r2, r0
     490:	01e71068 	mvneq	r1, r8, rrx
     494:	a0010000 	andge	r0, r1, r0
     498:	000000eb 	andeq	r0, r0, fp, ror #1
     49c:	11649102 	cmnne	r4, r2, lsl #2
     4a0:	000004bd 	strheq	r0, [r0], -sp
     4a4:	0025a201 	eoreq	sl, r5, r1, lsl #4
     4a8:	91020000 	tstls	r2, r0
     4ac:	01a41170 	undefined instruction 0x01a41170
     4b0:	a3010000 	movwge	r0, #4096	; 0x1000
     4b4:	0000004f 	andeq	r0, r0, pc, asr #32
     4b8:	00749102 	rsbseq	r9, r4, r2, lsl #2
     4bc:	012a0113 	teqeq	sl, r3, lsl r1
     4c0:	b8010000 	stmdalt	r1, {}
     4c4:	05069c01 	streq	r9, [r6, #-3073]
     4c8:	05080830 	streq	r0, [r8, #-2096]
     4cc:	00015830 	andeq	r5, r1, r0, lsr r8
     4d0:	00038000 	andeq	r8, r3, r0
     4d4:	01b31000 	undefined instruction 0x01b31000
     4d8:	b7010000 	strlt	r0, [r1, -r0]
     4dc:	00000380 	andeq	r0, r0, r0, lsl #7
     4e0:	105c9102 	subsne	r9, ip, r2, lsl #2
     4e4:	000001e7 	andeq	r0, r0, r7, ror #3
     4e8:	039cb701 	orrseq	fp, ip, #262144	; 0x40000
     4ec:	91020000 	tstls	r2, r0
     4f0:	004f1058 	subeq	r1, pc, r8, asr r0
     4f4:	b7010000 	strlt	r0, [r1, -r0]
     4f8:	0000006e 	andeq	r0, r0, lr, rrx
     4fc:	11549102 	cmpne	r4, r2, lsl #2
     500:	000001c4 	andeq	r0, r0, r4, asr #3
     504:	006eb901 	rsbeq	fp, lr, r1, lsl #18
     508:	91020000 	tstls	r2, r0
     50c:	00c41164 	sbceq	r1, r4, r4, ror #2
     510:	ba010000 	blt	40518 <_start-0x3000fae8>
     514:	0000004f 	andeq	r0, r0, pc, asr #32
     518:	11689102 	cmnne	r8, r2, lsl #2
     51c:	00000121 	andeq	r0, r0, r1, lsr #2
     520:	006ebb01 	rsbeq	fp, lr, r1, lsl #22
     524:	91020000 	tstls	r2, r0
     528:	0221116c 	eoreq	r1, r1, #27	; 0x1b
     52c:	bc010000 	stclt	0, cr0, [r1], {0}
     530:	0000004f 	andeq	r0, r0, pc, asr #32
     534:	11709102 	cmnne	r0, r2, lsl #2
     538:	000004bd 	strheq	r0, [r0], -sp
     53c:	004fbd01 	subeq	fp, pc, r1, lsl #26
     540:	91020000 	tstls	r2, r0
     544:	04050074 	streq	r0, [r5], #-116
     548:	0000004f 	andeq	r0, r0, pc, asr #32
     54c:	0000740d 	andeq	r7, r0, sp, lsl #8
     550:	00039c00 	andeq	r9, r3, r0, lsl #24
     554:	006b0e00 	rsbeq	r0, fp, r0, lsl #28
     558:	0e090000 	cdpeq	0, 0, cr0, cr9, cr0, {0}
     55c:	0000006b 	andeq	r0, r0, fp, rrx
     560:	04050009 	streq	r0, [r5], #-9
     564:	00000386 	andeq	r0, r0, r6, lsl #7
     568:	0001070d 	andeq	r0, r1, sp, lsl #14
     56c:	0003b200 	andeq	fp, r3, r0, lsl #4
     570:	006b0e00 	rsbeq	r0, fp, r0, lsl #28
     574:	000f0000 	andeq	r0, pc, r0
     578:	00016614 	andeq	r6, r1, r4, lsl r6
     57c:	a2250100 	eorge	r0, r5, #0	; 0x0
     580:	01000003 	tsteq	r0, r3
     584:	cf480305 	svcgt	0x00480305
     588:	0a003005 	beq	c5a4 <_start-0x30043a5c>
     58c:	02000003 	andeq	r0, r0, #3	; 0x3
     590:	0001f700 	andeq	pc, r1, r0, lsl #14
     594:	ac010400 	cfstrsge	mvf0, [r1], {0}
     598:	01000000 	tsteq	r0, r0
     59c:	00000249 	andeq	r0, r0, r9, asr #4
     5a0:	00000147 	andeq	r0, r0, r7, asr #2
     5a4:	30050808 	andcc	r0, r5, r8, lsl #16
     5a8:	30050a9c 	mulcc	r5, ip, sl
     5ac:	000001c2 	andeq	r0, r0, r2, asr #3
     5b0:	42070402 	andmi	r0, r7, #33554432	; 0x2000000
     5b4:	02000000 	andeq	r0, r0, #0	; 0x0
     5b8:	005e0801 	subseq	r0, lr, r1, lsl #16
     5bc:	02020000 	andeq	r0, r2, #0	; 0x0
     5c0:	00008e07 	andeq	r8, r0, r7, lsl #28
     5c4:	07040200 	streq	r0, [r4, -r0, lsl #4]
     5c8:	0000003d 	andeq	r0, r0, sp, lsr r0
     5cc:	60060102 	andvs	r0, r6, r2, lsl #2
     5d0:	02000000 	andeq	r0, r0, #0	; 0x0
     5d4:	002e0502 	eoreq	r0, lr, r2, lsl #10
     5d8:	04030000 	streq	r0, [r3]
     5dc:	746e6905 	strbtvc	r6, [lr], #-2309
     5e0:	05080200 	streq	r0, [r8, #-512]
     5e4:	00000000 	andeq	r0, r0, r0
     5e8:	38070802 	stmdacc	r7, {r1, fp}
     5ec:	02000000 	andeq	r0, r0, #0	; 0x0
     5f0:	00050504 	andeq	r0, r5, r4, lsl #10
     5f4:	04040000 	streq	r0, [r4]
     5f8:	08010207 	stmdaeq	r1, {r0, r1, r2, r9}
     5fc:	00000067 	andeq	r0, r0, r7, rrx
     600:	00006e05 	andeq	r6, r0, r5, lsl #28
     604:	00008500 	andeq	r8, r0, r0, lsl #10
     608:	006b0600 	rsbeq	r0, fp, r0, lsl #12
     60c:	00000000 	andeq	r0, r0, r0
     610:	008b0407 	addeq	r0, fp, r7, lsl #8
     614:	6e080000 	cdpvs	0, 0, cr0, cr8, cr0, {0}
     618:	09000000 	stmdbeq	r0, {}
     61c:	000001ec 	andeq	r0, r0, ip, ror #3
     620:	a9050204 	stmdbge	r5, {r2, r9}
     624:	0a000000 	beq	62c <_start-0x3004f9d4>
     628:	00000207 	andeq	r0, r0, r7, lsl #4
     62c:	00ff0a00 	rscseq	r0, pc, r0, lsl #20
     630:	00010000 	andeq	r0, r1, r0
     634:	0001ed0b 	andeq	lr, r1, fp, lsl #26
     638:	90080200 	andls	r0, r8, r0, lsl #4
     63c:	0c000000 	stceq	0, cr0, [r0], {0}
     640:	000002fe 	strdeq	r0, [r0], -lr
     644:	dd140308 	ldcle	3, cr0, [r4, #-32]
     648:	0d000000 	stceq	0, cr0, [r0]
     64c:	00000255 	andeq	r0, r0, r5, asr r2
     650:	00251503 	eoreq	r1, r5, r3, lsl #10
     654:	23020000 	movwcs	r0, #8192	; 0x2000
     658:	61740e00 	cmnvs	r4, r0, lsl #28
     65c:	16030067 	strne	r0, [r3], -r7, rrx
     660:	00000025 	andeq	r0, r0, r5, lsr #32
     664:	00042302 	andeq	r2, r4, r2, lsl #6
     668:	0002be0b 	andeq	fp, r2, fp, lsl #28
     66c:	b4170300 	ldrlt	r0, [r7], #-768
     670:	0c000000 	stceq	0, cr0, [r0], {0}
     674:	000002f4 	strdeq	r0, [r0], -r4
     678:	1f1a030c 	svcne	0x001a030c
     67c:	0d000001 	stceq	0, cr0, [r0, #-4]
     680:	000002b8 	strheq	r0, [r0], -r8
     684:	00251b03 	eoreq	r1, r5, r3, lsl #22
     688:	23020000 	movwcs	r0, #8192	; 0x2000
     68c:	02510d00 	subseq	r0, r1, #0	; 0x0
     690:	1c030000 	stcne	0, cr0, [r3], {0}
     694:	00000025 	andeq	r0, r0, r5, lsr #32
     698:	0d042302 	stceq	3, cr2, [r4, #-8]
     69c:	000002b0 	strheq	r0, [r0], -r0
     6a0:	00251d03 	eoreq	r1, r5, r3, lsl #26
     6a4:	23020000 	movwcs	r0, #8192	; 0x2000
     6a8:	f50b0008 	undefined instruction 0xf50b0008
     6ac:	03000002 	movweq	r0, #2	; 0x2
     6b0:	0000e81e 	andeq	lr, r0, lr, lsl r8
     6b4:	02940c00 	addseq	r0, r4, #0	; 0x0
     6b8:	03080000 	movweq	r0, #32768	; 0x8000
     6bc:	00015321 	andeq	r5, r1, r1, lsr #6
     6c0:	02550d00 	subseq	r0, r5, #0	; 0x0
     6c4:	22030000 	andcs	r0, r3, #0	; 0x0
     6c8:	00000025 	andeq	r0, r0, r5, lsr #32
     6cc:	0d002302 	stceq	3, cr2, [r0, #-8]
     6d0:	00000028 	andeq	r0, r0, r8, lsr #32
     6d4:	00252303 	eoreq	r2, r5, r3, lsl #6
     6d8:	23020000 	movwcs	r0, #8192	; 0x2000
     6dc:	950b0004 	strls	r0, [fp, #-4]
     6e0:	03000002 	movweq	r0, #2	; 0x2
     6e4:	00012a24 	andeq	r2, r1, r4, lsr #20
     6e8:	02760c00 	rsbseq	r0, r6, #0	; 0x0
     6ec:	03010000 	movweq	r0, #4096	; 0x1000
     6f0:	00017927 	andeq	r7, r1, r7, lsr #18
     6f4:	025a0d00 	subseq	r0, sl, #0	; 0x0
     6f8:	28030000 	stmdacs	r3, {}
     6fc:	00000075 	andeq	r0, r0, r5, ror r0
     700:	00002302 	andeq	r2, r0, r2, lsl #6
     704:	0002770b 	andeq	r7, r2, fp, lsl #14
     708:	5e290300 	cdppl	3, 2, cr0, cr9, cr0, {0}
     70c:	0f000001 	svceq	0x00000001
     710:	ae2f030c 	cdpge	3, 2, cr0, cr15, cr12, {0}
     714:	10000001 	andne	r0, r0, r1
     718:	0000028f 	andeq	r0, r0, pc, lsl #5
     71c:	011f3003 	tsteq	pc, r3
     720:	6d110000 	ldcvs	0, cr0, [r1]
     724:	03006d65 	movweq	r6, #3429	; 0xd65
     728:	00015331 	andeq	r5, r1, r1, lsr r3
     72c:	025a1000 	subseq	r1, sl, #0	; 0x0
     730:	32030000 	andcc	r0, r3, #0	; 0x0
     734:	00000179 	andeq	r0, r0, r9, ror r1
     738:	02620c00 	rsbeq	r0, r2, #0	; 0x0
     73c:	03140000 	tsteq	r4, #0	; 0x0
     740:	0001d52c 	andeq	sp, r1, ip, lsr #10
     744:	64680e00 	strbtvs	r0, [r8], #-3584
     748:	2d030072 	stccs	0, cr0, [r3, #-456]
     74c:	000000dd 	ldrdeq	r0, [r0], -sp
     750:	0e002302 	cdpeq	3, 0, cr2, cr0, cr2, {0}
     754:	33030075 	movwcc	r0, #12405	; 0x3075
     758:	00000184 	andeq	r0, r0, r4, lsl #3
     75c:	00082302 	andeq	r2, r8, r2, lsl #6
     760:	47415412 	smlaldmi	r5, r1, r2, r4
     764:	ae340300 	cdpge	3, 3, cr0, cr4, cr0, {0}
     768:	13000001 	movwne	r0, #1	; 0x1
     76c:	00026701 	andeq	r6, r2, r1, lsl #14
     770:	08100100 	ldmdaeq	r0, {r8}
     774:	a8300508 	ldmdage	r0!, {r3, r8, sl}
     778:	83300508 	teqhi	r0, #33554432	; 0x2000000
     77c:	13000001 	movwne	r0, #1	; 0x1
     780:	00029f01 	andeq	r9, r2, r1, lsl #30
     784:	a81e0100 	ldmdage	lr, {r8}
     788:	28300508 	ldmdacs	r0!, {r3, r8, sl}
     78c:	ae300509 	cdpge	5, 3, cr0, cr0, cr9, {0}
     790:	14000001 	strne	r0, [r0], #-1
     794:	00022c01 	andeq	r2, r2, r1, lsl #24
     798:	28290100 	stmdacs	r9!, {r8}
     79c:	d4300509 	ldrtle	r0, [r0], #-1289
     7a0:	d9300509 	ldmdble	r0!, {r0, r3, r8, sl}
     7a4:	2f000001 	svccs	0x00000001
     7a8:	15000002 	strne	r0, [r0, #-2]
     7ac:	000002d4 	ldrdeq	r0, [r0], -r4
     7b0:	004f2a01 	subeq	r2, pc, r1, lsl #20
     7b4:	91020000 	tstls	r2, r0
     7b8:	01130074 	tsteq	r3, r4, ror r0
     7bc:	000002e6 	andeq	r0, r0, r6, ror #5
     7c0:	09d43501 	ldmibeq	r4, {r0, r8, sl, ip, sp}^
     7c4:	0a0c3005 	beq	30c7e0 <_start-0x2fd43820>
     7c8:	02043005 	andeq	r3, r4, #5	; 0x5
     7cc:	01130000 	tsteq	r3, r0
     7d0:	0000023e 	andeq	r0, r0, lr, lsr r2
     7d4:	0a0c3b01 	beq	30f3e0 <_start-0x2fd40c20>
     7d8:	0a683005 	beq	1a0c7f4 <_start-0x2e64380c>
     7dc:	022f3005 	eoreq	r3, pc, #5	; 0x5
     7e0:	01160000 	tsteq	r6, r0
     7e4:	000002e0 	andeq	r0, r0, r0, ror #5
     7e8:	a9015101 	stmdbge	r1, {r0, r8, ip, lr}
     7ec:	68000000 	stmdavs	r0, {}
     7f0:	9c30050a 	cfldr32ls	mvfx0, [r0], #-40
     7f4:	5a30050a 	bpl	c01c24 <_start-0x2f44e3dc>
     7f8:	9f000002 	svcls	0x00000002
     7fc:	17000002 	strne	r0, [r0, -r2]
     800:	000001b3 	strheq	r0, [r0], -r3
     804:	004f5001 	subeq	r5, pc, r1
     808:	91020000 	tstls	r2, r0
     80c:	01e7176c 	mvneq	r1, ip, ror #14
     810:	50010000 	andpl	r0, r1, r0
     814:	000002af 	andeq	r0, r0, pc, lsr #5
     818:	15689102 	strbne	r9, [r8, #-258]!
     81c:	0000011a 	andeq	r0, r0, sl, lsl r1
     820:	00a95201 	adceq	r5, r9, r1, lsl #4
     824:	91020000 	tstls	r2, r0
     828:	6e050074 	mcrvs	0, 0, r0, cr5, cr4, {3}
     82c:	af000000 	svcge	0x00000000
     830:	06000002 	streq	r0, [r0], -r2
     834:	0000006b 	andeq	r0, r0, fp, rrx
     838:	04070009 	streq	r0, [r7], #-9
     83c:	0000029f 	muleq	r0, pc, r2
     840:	00028318 	andeq	r8, r2, r8, lsl r3
     844:	c7070100 	strgt	r0, [r7, -r0, lsl #2]
     848:	01000002 	tsteq	r0, r2
     84c:	ee100305 	cdp	3, 1, cr0, cr0, cr5, {0}
     850:	04073005 	streq	r3, [r7], #-5
     854:	000001d5 	ldrdeq	r0, [r0], -r5
     858:	02e30119 	rsceq	r0, r3, #1073741830	; 0x40000006
     85c:	4f1a0000 	svcmi	0x001a0000
     860:	1a000000 	bne	868 <_start-0x3004f798>
     864:	0000004f 	andeq	r0, r0, pc, asr #32
     868:	0000251a 	andeq	r2, r0, sl, lsl r5
     86c:	c9180000 	ldmdbgt	r8, {}
     870:	01000002 	tsteq	r0, r2
     874:	0002f509 	andeq	pc, r2, r9, lsl #10
     878:	03050100 	movweq	r0, #20736	; 0x5100
     87c:	30064668 	andcc	r4, r6, r8, ror #12
     880:	02cd0407 	sbceq	r0, sp, #117440512	; 0x7000000
     884:	5a180000 	bpl	60088c <_start-0x2fa4f774>
     888:	01000002 	tsteq	r0, r2
     88c:	0000850d 	andeq	r8, r0, sp, lsl #10
     890:	03050100 	movweq	r0, #20736	; 0x5100
     894:	3005d008 	andcc	sp, r5, r8
     898:	00022800 	andeq	r2, r2, r0, lsl #16
     89c:	52000200 	andpl	r0, r0, #0	; 0x0
     8a0:	04000003 	streq	r0, [r0], #-3
     8a4:	0000ac01 	andeq	sl, r0, r1, lsl #24
     8a8:	03a20100 	undefined instruction 0x03a20100
     8ac:	03370000 	teqeq	r7, #0	; 0x0
     8b0:	0a9c0000 	beq	fe7008b8 <bss_end+0xce676648>
     8b4:	0f043005 	svceq	0x00043005
     8b8:	025c3005 	subseq	r3, ip, #5	; 0x5
     8bc:	01020000 	tsteq	r2, r0
     8c0:	0000030c 	andeq	r0, r0, ip, lsl #6
     8c4:	0a9c0e01 	beq	fe7040d0 <bss_end+0xce679e60>
     8c8:	0acc3005 	beq	ff30c8e4 <bss_end+0xcf282674>
     8cc:	02853005 	addeq	r3, r5, #5	; 0x5
     8d0:	01020000 	tsteq	r2, r0
     8d4:	0000030a 	andeq	r0, r0, sl, lsl #6
     8d8:	0acc1301 	beq	ff3054e4 <bss_end+0xcf27b274>
     8dc:	0afc3005 	beq	fff0c8f8 <bss_end+0xcfe82688>
     8e0:	02b03005 	adcseq	r3, r0, #5	; 0x5
     8e4:	01020000 	tsteq	r2, r0
     8e8:	00000318 	andeq	r0, r0, r8, lsl r3
     8ec:	0afc1801 	beq	fff068f8 <bss_end+0xcfe7c688>
     8f0:	0b343005 	bleq	d0c90c <_start-0x2f3436f4>
     8f4:	02db3005 	sbcseq	r3, fp, #5	; 0x5
     8f8:	01030000 	tsteq	r3, r0
     8fc:	0000032e 	andeq	r0, r0, lr, lsr #6
     900:	34011d01 	strcc	r1, [r1], #-3329
     904:	6430050b 	ldrtvs	r0, [r0], #-1291
     908:	0630050b 	ldrteq	r0, [r0], -fp, lsl #10
     90c:	89000003 	stmdbhi	r0, {r0, r1}
     910:	04000000 	streq	r0, [r0]
     914:	00646d63 	rsbeq	r6, r4, r3, ror #26
     918:	00891c01 	addeq	r1, r9, r1, lsl #24
     91c:	91020000 	tstls	r2, r0
     920:	04050074 	streq	r0, [r5], #-116
     924:	00004207 	andeq	r4, r0, r7, lsl #4
     928:	ad010300 	stcge	3, cr0, [r1]
     92c:	01000003 	tsteq	r0, r3
     930:	0b640122 	bleq	1900dc0 <_start-0x2e74f240>
     934:	0b943005 	bleq	fe50c950 <bss_end+0xce4826e0>
     938:	03313005 	teqeq	r1, #5	; 0x5
     93c:	00b80000 	adcseq	r0, r8, r0
     940:	b2060000 	andlt	r0, r6, #0	; 0x0
     944:	01000003 	tsteq	r0, r3
     948:	00008921 	andeq	r8, r0, r1, lsr #18
     94c:	74910200 	ldrvc	r0, [r1], #512
     950:	c2010200 	andgt	r0, r1, #0	; 0x0
     954:	01000003 	tsteq	r0, r3
     958:	050b9427 	streq	r9, [fp, #-1063]
     95c:	050bc430 	streq	ip, [fp, #-1072]
     960:	00035c30 	andeq	r5, r3, r0, lsr ip
     964:	71010200 	tstvc	r1, r0, lsl #4
     968:	01000003 	tsteq	r0, r3
     96c:	050bc42f 	streq	ip, [fp, #-1071]
     970:	050bf030 	streq	pc, [fp, #-48]
     974:	00038730 	andeq	r8, r3, r0, lsr r7
     978:	88010200 	stmdahi	r1, {r9}
     97c:	01000003 	tsteq	r0, r3
     980:	050bf044 	streq	pc, [fp, #-68]
     984:	050c2830 	streq	r2, [ip, #-2096]
     988:	0003b230 	andeq	fp, r3, r0, lsr r2
     98c:	7c010300 	stcvc	3, cr0, [r1], {0}
     990:	01000003 	tsteq	r0, r3
     994:	0c280150 	stfeqs	f0, [r8], #-320
     998:	0cfc3005 	ldcleq	0, cr3, [ip], #20
     99c:	03dd3005 	bicseq	r3, sp, #5	; 0x5
     9a0:	01360000 	teqeq	r6, r0
     9a4:	b2060000 	andlt	r0, r6, #0	; 0x0
     9a8:	01000003 	tsteq	r0, r3
     9ac:	0001364f 	andeq	r3, r1, pc, asr #12
     9b0:	6c910200 	lfmvs	f0, 4, [r1], {0}
     9b4:	0003cb06 	andeq	ip, r3, r6, lsl #22
     9b8:	3d4f0100 	stfcce	f0, [pc]
     9bc:	02000001 	andeq	r0, r0, #1	; 0x1
     9c0:	69076891 	stmdbvs	r7, {r0, r4, r7, fp, sp, lr}
     9c4:	4a510100 	bmi	1440dcc <_start-0x2ec0f234>
     9c8:	02000001 	andeq	r0, r0, #1	; 0x1
     9cc:	05007491 	streq	r7, [r0, #-1169]
     9d0:	003d0704 	eorseq	r0, sp, r4, lsl #14
     9d4:	04080000 	streq	r0, [r8]
     9d8:	00000143 	andeq	r0, r0, r3, asr #2
     9dc:	5e080105 	adfple	f0, f0, f5
     9e0:	09000000 	stmdbeq	r0, {}
     9e4:	6e690504 	cdpvs	5, 6, cr0, cr9, cr4, {0}
     9e8:	01030074 	tsteq	r3, r4, ror r0
     9ec:	00000322 	andeq	r0, r0, r2, lsr #6
     9f0:	fc017701 	stc2	7, cr7, [r1], {1}
     9f4:	7030050c 	eorsvc	r0, r0, ip, lsl #10
     9f8:	0830050d 	ldmdaeq	r0!, {r0, r2, r3, r8, sl}
     9fc:	a1000004 	tstge	r0, r4
     a00:	06000001 	streq	r0, [r0], -r1
     a04:	00000397 	muleq	r0, r7, r3
     a08:	01367601 	teqeq	r6, r1, lsl #12
     a0c:	91020000 	tstls	r2, r0
     a10:	03b7066c 	undefined instruction 0x03b7066c
     a14:	76010000 	strvc	r0, [r1], -r0
     a18:	0000013d 	andeq	r0, r0, sp, lsr r1
     a1c:	06689102 	strbteq	r9, [r8], -r2, lsl #2
     a20:	00000255 	andeq	r0, r0, r5, asr r2
     a24:	014a7601 	cmpeq	sl, r1, lsl #12
     a28:	91020000 	tstls	r2, r0
     a2c:	00690764 	rsbeq	r0, r9, r4, ror #14
     a30:	014a7801 	cmpeq	sl, r1, lsl #16
     a34:	91020000 	tstls	r2, r0
     a38:	010a0074 	tsteq	sl, r4, ror r0
     a3c:	0000035b 	andeq	r0, r0, fp, asr r3
     a40:	4a018401 	bmi	61a4c <_start-0x2ffee5b4>
     a44:	70000001 	andvc	r0, r0, r1
     a48:	0830050d 	ldmdaeq	r0!, {r0, r2, r3, r8, sl}
     a4c:	3330050e 	teqcc	r0, #58720256	; 0x3800000
     a50:	db000004 	blle	a68 <_start-0x3004f598>
     a54:	06000001 	streq	r0, [r0], -r1
     a58:	000003b2 	strheq	r0, [r0], -r2
     a5c:	01368301 	teqeq	r6, r1, lsl #6
     a60:	91020000 	tstls	r2, r0
     a64:	6572076c 	ldrbvs	r0, [r2, #-1900]!
     a68:	85010074 	strhi	r0, [r1, #-116]
     a6c:	0000014a 	andeq	r0, r0, sl, asr #2
     a70:	00749102 	rsbseq	r9, r4, r2, lsl #2
     a74:	0364010b 	cmneq	r4, #-1073741822	; 0xc0000002
     a78:	a9010000 	stmdbge	r1, {}
     a7c:	00014a01 	andeq	r4, r1, r1, lsl #20
     a80:	050e0800 	streq	r0, [lr, #-2048]
     a84:	050f0430 	streq	r0, [pc, #-1072]	; 65c <_start-0x3004f9a4>
     a88:	00045e30 	andeq	r5, r4, r0, lsr lr
     a8c:	03b20600 	undefined instruction 0x03b20600
     a90:	a8010000 	stmdage	r1, {}
     a94:	00000136 	andeq	r0, r0, r6, lsr r1
     a98:	066c9102 	strbteq	r9, [ip], -r2, lsl #2
     a9c:	000003cb 	andeq	r0, r0, fp, asr #7
     aa0:	013da801 	teqeq	sp, r1, lsl #16
     aa4:	91020000 	tstls	r2, r0
     aa8:	00690768 	rsbeq	r0, r9, r8, ror #14
     aac:	0089aa01 	addeq	sl, r9, r1, lsl #20
     ab0:	91020000 	tstls	r2, r0
     ab4:	65720770 	ldrbvs	r0, [r2, #-1904]!
     ab8:	aa010074 	bge	40c90 <_start-0x3000f370>
     abc:	00000089 	andeq	r0, r0, r9, lsl #1
     ac0:	00749102 	rsbseq	r9, r4, r2, lsl #2
     ac4:	0000ec00 	andeq	lr, r0, r0, lsl #24
     ac8:	0c000200 	sfmeq	f0, 4, [r0], {0}
     acc:	04000004 	streq	r0, [r0], #-4
     ad0:	0000ac01 	andeq	sl, r0, r1, lsl #24
     ad4:	03d00100 	bicseq	r0, r0, #0	; 0x0
     ad8:	03370000 	teqeq	r7, #0	; 0x0
     adc:	0f040000 	svceq	0x00040000
     ae0:	10583005 	subsne	r3, r8, r5
     ae4:	02ee3005 	rsceq	r3, lr, #5	; 0x5
     ae8:	01020000 	tsteq	r2, r0
     aec:	000003d9 	ldrdeq	r0, [r0], -r9
     af0:	04010401 	streq	r0, [r1], #-1025
     af4:	4830050f 	ldmdami	r0!, {r0, r1, r2, r3, r8, sl}
     af8:	8930050f 	ldmdbhi	r0!, {r0, r1, r2, r3, r8, sl}
     afc:	4b000004 	blmi	b14 <_start-0x3004f4ec>
     b00:	03000000 	movweq	r0, #0	; 0x0
     b04:	0301006e 	movweq	r0, #4206	; 0x106e
     b08:	0000004b 	andeq	r0, r0, fp, asr #32
     b0c:	00749102 	rsbseq	r9, r4, r2, lsl #2
     b10:	69050404 	stmdbvs	r5, {r2, sl}
     b14:	0500746e 	streq	r7, [r0, #-1134]
     b18:	0003fb01 	andeq	pc, r3, r1, lsl #22
     b1c:	010a0100 	tsteq	sl, r0, lsl #2
     b20:	0000004b 	andeq	r0, r0, fp, asr #32
     b24:	30050f48 	andcc	r0, r5, r8, asr #30
     b28:	30050fb8 	strhcc	r0, [r5], -r8
     b2c:	000004b4 	strheq	r0, [r0], -r4
     b30:	000000a8 	andeq	r0, r0, r8, lsr #1
     b34:	0003e506 	andeq	lr, r3, r6, lsl #10
     b38:	4b090100 	blmi	240f40 <_start-0x2fe0f0c0>
     b3c:	02000000 	andeq	r0, r0, #0	; 0x0
     b40:	04066c91 	streq	r6, [r6], #-3217
     b44:	01000004 	tsteq	r0, r4
     b48:	00004b09 	andeq	r4, r0, r9, lsl #22
     b4c:	68910200 	ldmvs	r1, {r9}
     b50:	74657207 	strbtvc	r7, [r5], #-519
     b54:	4b0b0100 	blmi	2c0f5c <_start-0x2fd8f0a4>
     b58:	02000000 	andeq	r0, r0, #0	; 0x0
     b5c:	bd087091 	stclt	0, cr7, [r8, #-580]
     b60:	01000004 	tsteq	r0, r4
     b64:	00004b0c 	andeq	r4, r0, ip, lsl #22
     b68:	74910200 	ldrvc	r0, [r1], #512
     b6c:	eb010500 	bl	41f74 <_start-0x3000e08c>
     b70:	01000003 	tsteq	r0, r3
     b74:	004b0118 	subeq	r0, fp, r8, lsl r1
     b78:	0fb80000 	svceq	0x00b80000
     b7c:	10583005 	subsne	r3, r8, r5
     b80:	04df3005 	ldrbeq	r3, [pc], #5	; b88 <_start-0x3004f478>
     b84:	00e20000 	rsceq	r0, r2, r0
     b88:	df060000 	svcle	0x00060000
     b8c:	01000003 	tsteq	r0, r3
     b90:	0000e217 	andeq	lr, r0, r7, lsl r2
     b94:	6c910200 	lfmvs	f0, 4, [r1], {0}
     b98:	0001d308 	andeq	sp, r1, r8, lsl #6
     b9c:	e8190100 	ldmda	r9, {r8}
     ba0:	02000000 	andeq	r0, r0, #0	; 0x0
     ba4:	09007491 	stmdbeq	r0, {r0, r4, r7, sl, ip, sp, lr}
     ba8:	0000e804 	andeq	lr, r0, r4, lsl #16
     bac:	07040a00 	streq	r0, [r4, -r0, lsl #20]
     bb0:	00000042 	andeq	r0, r0, r2, asr #32
     bb4:	00037e00 	andeq	r7, r3, r0, lsl #28
     bb8:	ab000200 	blge	13c0 <_start-0x3004ec40>
     bbc:	04000004 	streq	r0, [r0], #-4
     bc0:	0000ac01 	andeq	sl, r0, r1, lsl #24
     bc4:	04990100 	ldreq	r0, [r9], #256
     bc8:	03370000 	teqeq	r7, #0	; 0x0
     bcc:	10580000 	subsne	r0, r8, r0
     bd0:	18bc3005 	ldmne	ip!, {r0, r2, ip, sp}
     bd4:	03383005 	teqeq	r8, #5	; 0x5
     bd8:	04020000 	streq	r0, [r2]
     bdc:	00004207 	andeq	r4, r0, r7, lsl #4
     be0:	08010200 	stmdaeq	r1, {r9}
     be4:	0000005e 	andeq	r0, r0, lr, asr r0
     be8:	8e070202 	cdphi	2, 0, cr0, cr7, cr2, {0}
     bec:	02000000 	andeq	r0, r0, #0	; 0x0
     bf0:	003d0704 	eorseq	r0, sp, r4, lsl #14
     bf4:	01020000 	tsteq	r2, r0
     bf8:	00006006 	andeq	r6, r0, r6
     bfc:	05020200 	streq	r0, [r2, #-512]
     c00:	0000002e 	andeq	r0, r0, lr, lsr #32
     c04:	69050403 	stmdbvs	r5, {r0, r1, sl}
     c08:	0200746e 	andeq	r7, r0, #1845493760	; 0x6e000000
     c0c:	00000508 	andeq	r0, r0, r8, lsl #10
     c10:	08020000 	stmdaeq	r2, {}
     c14:	00003807 	andeq	r3, r0, r7, lsl #16
     c18:	05040200 	streq	r0, [r4, #-512]
     c1c:	00000005 	andeq	r0, r0, r5
     c20:	05070404 	streq	r0, [r7, #-1028]
     c24:	76040604 	strvc	r0, [r4], -r4, lsl #12
     c28:	02000000 	andeq	r0, r0, #0	; 0x0
     c2c:	00670801 	rsbeq	r0, r7, r1, lsl #16
     c30:	01070000 	tsteq	r7, r0
     c34:	000004ee 	andeq	r0, r0, lr, ror #9
     c38:	4f011801 	svcmi	0x00011801
     c3c:	58000000 	stmdapl	r0, {}
     c40:	64300510 	ldrtvs	r0, [r0], #-1296
     c44:	0a300511 	beq	c02090 <_start-0x2f44df70>
     c48:	e1000005 	tst	r0, r5
     c4c:	08000000 	stmdaeq	r0, {}
     c50:	00000470 	andeq	r0, r0, r0, ror r4
     c54:	00701701 	rsbseq	r1, r0, r1, lsl #14
     c58:	91020000 	tstls	r2, r0
     c5c:	047a0864 	ldrbteq	r0, [sl], #-2148
     c60:	17010000 	strne	r0, [r1, -r0]
     c64:	00000070 	andeq	r0, r0, r0, ror r0
     c68:	09609102 	stmdbeq	r0!, {r1, r8, ip, pc}^
     c6c:	00746572 	rsbseq	r6, r4, r2, ror r5
     c70:	004f1901 	subeq	r1, pc, r1, lsl #18
     c74:	91020000 	tstls	r2, r0
     c78:	041a0a6c 	ldreq	r0, [sl], #-2668
     c7c:	1a010000 	bne	40c84 <_start-0x3000f37c>
     c80:	00000070 	andeq	r0, r0, r0, ror r0
     c84:	0a709102 	beq	1c25094 <_start-0x2e42af6c>
     c88:	000004a2 	andeq	r0, r0, r2, lsr #9
     c8c:	00701b01 	rsbseq	r1, r0, r1, lsl #22
     c90:	91020000 	tstls	r2, r0
     c94:	01070074 	tsteq	r7, r4, ror r0
     c98:	000004cb 	andeq	r0, r0, fp, asr #9
     c9c:	4f013c01 	svcmi	0x00013c01
     ca0:	64000000 	strvs	r0, [r0]
     ca4:	c4300511 	ldrtgt	r0, [r0], #-1297
     ca8:	35300511 	ldrcc	r0, [r0, #-1297]!
     cac:	1b000005 	blne	cc8 <_start-0x3004f338>
     cb0:	08000001 	stmdaeq	r0, {r0}
     cb4:	0000051a 	andeq	r0, r0, sl, lsl r5
     cb8:	00703b01 	rsbseq	r3, r0, r1, lsl #22
     cbc:	91020000 	tstls	r2, r0
     cc0:	04e60a6c 	strbteq	r0, [r6], #2668
     cc4:	3d010000 	stccc	0, cr0, [r1]
     cc8:	0000004f 	andeq	r0, r0, pc, asr #32
     ccc:	00749102 	rsbseq	r9, r4, r2, lsl #2
     cd0:	04d20107 	ldrbeq	r0, [r2], #263
     cd4:	50010000 	andpl	r0, r1, r0
     cd8:	00004f01 	andeq	r4, r0, r1, lsl #30
     cdc:	0511c400 	ldreq	ip, [r1, #-1024]
     ce0:	05125430 	ldreq	r5, [r2, #-1072]
     ce4:	00056030 	andeq	r6, r5, r0, lsr r0
     ce8:	00016300 	andeq	r6, r1, r0, lsl #6
     cec:	051a0800 	ldreq	r0, [sl, #-2048]
     cf0:	4f010000 	svcmi	0x00010000
     cf4:	00000070 	andeq	r0, r0, r0, ror r0
     cf8:	086c9102 	stmdaeq	ip!, {r1, r8, ip, pc}^
     cfc:	000004c3 	andeq	r0, r0, r3, asr #9
     d00:	00704f01 	rsbseq	r4, r0, r1, lsl #30
     d04:	91020000 	tstls	r2, r0
     d08:	04bd0a68 	ldrteq	r0, [sp], #2664
     d0c:	51010000 	tstpl	r1, r0
     d10:	0000004f 	andeq	r0, r0, pc, asr #32
     d14:	00749102 	rsbseq	r9, r4, r2, lsl #2
     d18:	04340107 	ldrteq	r0, [r4], #-263
     d1c:	65010000 	strvs	r0, [r1]
     d20:	00004f01 	andeq	r4, r0, r1, lsl #30
     d24:	05125400 	ldreq	r5, [r2, #-1024]
     d28:	0512e430 	ldreq	lr, [r2, #-1072]
     d2c:	00058b30 	andeq	r8, r5, r0, lsr fp
     d30:	0001b900 	andeq	fp, r1, r0, lsl #18
     d34:	051a0800 	ldreq	r0, [sl, #-2048]
     d38:	64010000 	strvs	r0, [r1]
     d3c:	00000070 	andeq	r0, r0, r0, ror r0
     d40:	086c9102 	stmdaeq	ip!, {r1, r8, ip, pc}^
     d44:	000004c3 	andeq	r0, r0, r3, asr #9
     d48:	00706401 	rsbseq	r6, r0, r1, lsl #8
     d4c:	91020000 	tstls	r2, r0
     d50:	052a0868 	streq	r0, [sl, #-2152]!
     d54:	64010000 	strvs	r0, [r1]
     d58:	0000004f 	andeq	r0, r0, pc, asr #32
     d5c:	0a649102 	beq	192516c <_start-0x2e72ae94>
     d60:	000004bd 	strheq	r0, [r0], -sp
     d64:	004f6601 	subeq	r6, pc, r1, lsl #12
     d68:	91020000 	tstls	r2, r0
     d6c:	010b0074 	tsteq	fp, r4, ror r0
     d70:	000004d9 	ldrdeq	r0, [r0], -r9
     d74:	e4017a01 	str	r7, [r1], #-2561
     d78:	4c300512 	cfldr32mi	mvfx0, [r0], #-72
     d7c:	b6300513 	undefined
     d80:	e1000005 	tst	r0, r5
     d84:	08000001 	stmdaeq	r0, {r0}
     d88:	00000428 	andeq	r0, r0, r8, lsr #8
     d8c:	00707901 	rsbseq	r7, r0, r1, lsl #18
     d90:	91020000 	tstls	r2, r0
     d94:	010b0074 	tsteq	fp, r4, ror r0
     d98:	00000492 	muleq	r0, r2, r4
     d9c:	4c019001 	stcmi	0, cr9, [r1], {1}
     da0:	d0300513 	eorsle	r0, r0, r3, lsl r5
     da4:	e1300513 	teq	r0, r3, lsl r5
     da8:	41000005 	tstmi	r0, r5
     dac:	08000002 	stmdaeq	r0, {r1}
     db0:	00000428 	andeq	r0, r0, r8, lsr #8
     db4:	006e8f01 	rsbeq	r8, lr, r1, lsl #30
     db8:	91020000 	tstls	r2, r0
     dbc:	04b0086c 	ldrteq	r0, [r0], #2156
     dc0:	8f010000 	svchi	0x00010000
     dc4:	0000004f 	andeq	r0, r0, pc, asr #32
     dc8:	08689102 	stmdaeq	r8!, {r1, r8, ip, pc}^
     dcc:	0000052a 	andeq	r0, r0, sl, lsr #10
     dd0:	00258f01 	eoreq	r8, r5, r1, lsl #30
     dd4:	91020000 	tstls	r2, r0
     dd8:	04bd0a64 	ldrteq	r0, [sp], #2660
     ddc:	91010000 	tstls	r1, r0
     de0:	00000025 	andeq	r0, r0, r5, lsr #32
     de4:	0a709102 	beq	1c251f4 <_start-0x2e42ae0c>
     de8:	0000043b 	andeq	r0, r0, fp, lsr r4
     dec:	00709201 	rsbseq	r9, r0, r1, lsl #4
     df0:	91020000 	tstls	r2, r0
     df4:	010b0074 	tsteq	fp, r4, ror r0
     df8:	0000045e 	andeq	r0, r0, lr, asr r4
     dfc:	d001a401 	andle	sl, r1, r1, lsl #8
     e00:	9c300513 	cfldr32ls	mvfx0, [r0], #-76
     e04:	0c300514 	cfldr32eq	mvfx0, [r0], #-80
     e08:	77000006 	strvc	r0, [r0, -r6]
     e0c:	08000002 	stmdaeq	r0, {r1}
     e10:	00000428 	andeq	r0, r0, r8, lsr #8
     e14:	0070a301 	rsbseq	sl, r0, r1, lsl #6
     e18:	91020000 	tstls	r2, r0
     e1c:	04b90a6c 	ldrteq	r0, [r9], #2668
     e20:	a5010000 	strge	r0, [r1]
     e24:	0000004f 	andeq	r0, r0, pc, asr #32
     e28:	00749102 	rsbseq	r9, r4, r2, lsl #2
     e2c:	04500107 	ldrbeq	r0, [r0], #-263
     e30:	b8010000 	stmdalt	r1, {}
     e34:	00004f01 	andeq	r4, r0, r1, lsl #30
     e38:	05149c00 	ldreq	r9, [r4, #-3072]
     e3c:	0515fc30 	ldreq	pc, [r5, #-3120]
     e40:	00063730 	andeq	r3, r6, r0, lsr r7
     e44:	0002db00 	andeq	sp, r2, r0, lsl #22
     e48:	04840800 	streq	r0, [r4], #2048
     e4c:	b7010000 	strlt	r0, [r1, -r0]
     e50:	00000070 	andeq	r0, r0, r0, ror r0
     e54:	09649102 	stmdbeq	r4!, {r1, r8, ip, pc}^
     e58:	00746572 	rsbseq	r6, r4, r2, ror r5
     e5c:	004fb901 	subeq	fp, pc, r1, lsl #18
     e60:	91020000 	tstls	r2, r0
     e64:	04b90a68 	ldrteq	r0, [r9], #2664
     e68:	ba010000 	blt	40e70 <_start-0x3000f190>
     e6c:	0000004f 	andeq	r0, r0, pc, asr #32
     e70:	0a6c9102 	beq	1b25280 <_start-0x2e52ad80>
     e74:	00000523 	andeq	r0, r0, r3, lsr #10
     e78:	004fbb01 	subeq	fp, pc, r1, lsl #22
     e7c:	91020000 	tstls	r2, r0
     e80:	040a0a70 	streq	r0, [sl], #-2672
     e84:	bc010000 	stclt	0, cr0, [r1], {0}
     e88:	0000004f 	andeq	r0, r0, pc, asr #32
     e8c:	00749102 	rsbseq	r9, r4, r2, lsl #2
     e90:	044c0107 	strbeq	r0, [ip], #-263
     e94:	da010000 	ble	40e9c <_start-0x3000f164>
     e98:	00004f01 	andeq	r4, r0, r1, lsl #30
     e9c:	0515fc00 	ldreq	pc, [r5, #-3072]
     ea0:	0518bc30 	ldreq	fp, [r8, #-3120]
     ea4:	00066230 	andeq	r6, r6, r0, lsr r2
     ea8:	00033f00 	andeq	r3, r3, r0, lsl #30
     eac:	04840800 	streq	r0, [r4], #2048
     eb0:	d9010000 	stmdble	r1, {}
     eb4:	00000070 	andeq	r0, r0, r0, ror r0
     eb8:	09649102 	stmdbeq	r4!, {r1, r8, ip, pc}^
     ebc:	00746572 	rsbseq	r6, r4, r2, ror r5
     ec0:	004fdb01 	subeq	sp, pc, r1, lsl #22
     ec4:	91020000 	tstls	r2, r0
     ec8:	04b90a68 	ldrteq	r0, [r9], #2664
     ecc:	dc010000 	stcle	0, cr0, [r1], {0}
     ed0:	0000004f 	andeq	r0, r0, pc, asr #32
     ed4:	0a6c9102 	beq	1b252e4 <_start-0x2e52ad1c>
     ed8:	00000523 	andeq	r0, r0, r3, lsr #10
     edc:	004fdd01 	subeq	sp, pc, r1, lsl #26
     ee0:	91020000 	tstls	r2, r0
     ee4:	040a0a70 	streq	r0, [sl], #-2672
     ee8:	de010000 	cdple	0, 0, cr0, cr1, cr0, {0}
     eec:	0000004f 	andeq	r0, r0, pc, asr #32
     ef0:	00749102 	rsbseq	r9, r4, r2, lsl #2
     ef4:	0000760c 	andeq	r7, r0, ip, lsl #12
     ef8:	00034f00 	andeq	r4, r3, r0, lsl #30
     efc:	006b0d00 	rsbeq	r0, fp, r0, lsl #26
     f00:	00090000 	andeq	r0, r9, r0
     f04:	0005070a 	andeq	r0, r5, sl, lsl #14
     f08:	3f040100 	svccc	0x00040100
     f0c:	05000003 	streq	r0, [r0, #-3]
     f10:	05d00c03 	ldrbeq	r0, [r0, #3075]
     f14:	00760c30 	rsbseq	r0, r6, r0, lsr ip
     f18:	03700000 	cmneq	r0, #0	; 0x0
     f1c:	6b0d0000 	blvs	340f24 <_start-0x2fd0f0dc>
     f20:	0f000000 	svceq	0x00000000
     f24:	04f50a00 	ldrbteq	r0, [r5], #2560
     f28:	09010000 	stmdbeq	r1, {}
     f2c:	00000360 	andeq	r0, r0, r0, ror #6
     f30:	d0160305 	andsle	r0, r6, r5, lsl #6
     f34:	f3003005 	vhadd.u8	d3, d0, d5
     f38:	02000000 	andeq	r0, r0, #0	; 0x0
     f3c:	00055d00 	andeq	r5, r5, r0, lsl #26
     f40:	ac010400 	cfstrsge	mvf0, [r1], {0}
     f44:	01000000 	tsteq	r0, r0
     f48:	00000531 	andeq	r0, r0, r1, lsr r5
     f4c:	00000337 	andeq	r0, r0, r7, lsr r3
     f50:	300518bc 	strhcc	r1, [r5], -ip
     f54:	300519e0 	andcc	r1, r5, r0, ror #19
     f58:	000003f7 	strdeq	r0, [r0], -r7
     f5c:	42070402 	andmi	r0, r7, #33554432	; 0x2000000
     f60:	02000000 	andeq	r0, r0, #0	; 0x0
     f64:	008e0702 	addeq	r0, lr, r2, lsl #14
     f68:	01020000 	tsteq	r2, r0
     f6c:	00005e08 	andeq	r5, r0, r8, lsl #28
     f70:	56010300 	strpl	r0, [r1], -r0, lsl #6
     f74:	01000005 	tsteq	r0, r5
     f78:	0518bc07 	ldreq	fp, [r8, #-3079]
     f7c:	0518e030 	ldreq	lr, [r8, #-48]
     f80:	00068d30 	andeq	r8, r6, r0, lsr sp
     f84:	3e010400 	cfcpyscc	mvf0, mvf1
     f88:	01000005 	tsteq	r0, r5
     f8c:	00b2010c 	adcseq	r0, r2, ip, lsl #2
     f90:	18e00000 	stmiane	r0!, {}^
     f94:	19e03005 	stmibne	r0!, {r0, r2, ip, sp}^
     f98:	06b83005 	ldrteq	r3, [r8], r5
     f9c:	00b20000 	adcseq	r0, r2, r0
     fa0:	b3050000 	movwlt	r0, #20480	; 0x5000
     fa4:	01000001 	tsteq	r0, r1
     fa8:	0000b90b 	andeq	fp, r0, fp, lsl #18
     fac:	6c910200 	lfmvs	f0, 4, [r1], {0}
     fb0:	0001e705 	andeq	lr, r1, r5, lsl #14
     fb4:	d30b0100 	movwle	r0, #45312	; 0xb100
     fb8:	02000000 	andeq	r0, r0, #0	; 0x0
     fbc:	45056891 	strmi	r6, [r5, #-2193]
     fc0:	01000005 	tsteq	r0, r5
     fc4:	0000d90b 	andeq	sp, r0, fp, lsl #18
     fc8:	64910200 	ldrvs	r0, [r1], #512
     fcc:	0004bd06 	andeq	fp, r4, r6, lsl #26
     fd0:	b90d0100 	stmdblt	sp, {r8}
     fd4:	02000000 	andeq	r0, r0, #0	; 0x0
     fd8:	72077091 	andvc	r7, r7, #145	; 0x91
     fdc:	01007465 	tsteq	r0, r5, ror #8
     fe0:	0000b20e 	andeq	fp, r0, lr, lsl #4
     fe4:	77910200 	ldrvc	r0, [r1, r0, lsl #4]
     fe8:	08010200 	stmdaeq	r1, {r9}
     fec:	00000067 	andeq	r0, r0, r7, rrx
     ff0:	69050408 	stmdbvs	r5, {r3, sl}
     ff4:	0900746e 	stmdbeq	r0, {r1, r2, r3, r5, r6, sl, ip, sp, lr}
     ff8:	000000b2 	strheq	r0, [r0], -r2
     ffc:	000000d0 	ldrdeq	r0, [r0], -r0
    1000:	0000d00a 	andeq	sp, r0, sl
    1004:	0b000900 	bleq	340c <_start-0x3004cbf4>
    1008:	040c0704 	streq	r0, [ip], #-1796
    100c:	000000c0 	andeq	r0, r0, r0, asr #1
    1010:	00df040c 	sbcseq	r0, pc, ip, lsl #8
    1014:	b20d0000 	andlt	r0, sp, #0	; 0x0
    1018:	0e000000 	cdpeq	0, 0, cr0, cr0, cr0, {0}
    101c:	0000054f 	andeq	r0, r0, pc, asr #10
    1020:	00b90401 	adcseq	r0, r9, r1, lsl #8
    1024:	05010000 	streq	r0, [r1]
    1028:	06466c03 	strbeq	r6, [r6], -r3, lsl #24
    102c:	007f0030 	rsbseq	r0, pc, r0, lsr r0
    1030:	00020000 	andeq	r0, r2, r0
    1034:	0000061c 	andeq	r0, r0, ip, lsl r6
    1038:	00ac0104 	adceq	r0, ip, r4, lsl #2
    103c:	61010000 	tstvs	r1, r0
    1040:	37000005 	strcc	r0, [r0, -r5]
    1044:	e0000003 	and	r0, r0, r3
    1048:	4c300519 	cfldr32mi	mvfx0, [r0], #-100
    104c:	4630051a 	undefined
    1050:	02000004 	andeq	r0, r0, #4	; 0x4
    1054:	000001ec 	andeq	r0, r0, ip, ror #3
    1058:	3e050204 	cdpcc	2, 0, cr0, cr5, cr4, {0}
    105c:	03000000 	movweq	r0, #0	; 0x0
    1060:	00000207 	andeq	r0, r0, r7, lsl #4
    1064:	00ff0300 	rscseq	r0, pc, r0, lsl #6
    1068:	00010000 	andeq	r0, r1, r0
    106c:	0001ed04 	andeq	lr, r1, r4, lsl #26
    1070:	25080200 	strcs	r0, [r8, #-512]
    1074:	05000000 	streq	r0, [r0]
    1078:	00420704 	subeq	r0, r2, r4, lsl #14
    107c:	04060000 	streq	r0, [r6]
    1080:	746e6905 	strbtvc	r6, [lr], #-2309
    1084:	08010500 	stmdaeq	r1, {r8, sl}
    1088:	00000067 	andeq	r0, r0, r7, rrx
    108c:	05690107 	strbeq	r0, [r9, #-263]!
    1090:	05010000 	streq	r0, [r1]
    1094:	0519e001 	ldreq	lr, [r9, #-1]
    1098:	051a4c30 	ldreq	r4, [sl, #-3120]
    109c:	0006e330 	andeq	lr, r6, r0, lsr r3
    10a0:	05740800 	ldrbeq	r0, [r4, #-2048]!
    10a4:	04010000 	streq	r0, [r1]
    10a8:	0000003e 	andeq	r0, r0, lr, lsr r0
    10ac:	00749102 	rsbseq	r9, r4, r2, lsl #2
    10b0:	00015400 	andeq	r5, r1, r0, lsl #8
    10b4:	8f000200 	svchi	0x00000200
    10b8:	04000006 	streq	r0, [r0], #-6
    10bc:	0000ac01 	andeq	sl, r0, r1, lsl #24
    10c0:	058b0100 	streq	r0, [fp, #256]
    10c4:	03370000 	teqeq	r7, #0	; 0x0
    10c8:	1a4c0000 	bne	13010d0 <_start-0x2ed4ef30>
    10cc:	1c703005 	ldclne	0, cr3, [r0], #-20
    10d0:	04ae3005 	strteq	r3, [lr], #5
    10d4:	04020000 	streq	r0, [r2]
    10d8:	00004207 	andeq	r4, r0, r7, lsl #4
    10dc:	08010200 	stmdaeq	r1, {r9}
    10e0:	0000005e 	andeq	r0, r0, lr, asr r0
    10e4:	8e070202 	cdphi	2, 0, cr0, cr7, cr2, {0}
    10e8:	02000000 	andeq	r0, r0, #0	; 0x0
    10ec:	003d0704 	eorseq	r0, sp, r4, lsl #14
    10f0:	01020000 	tsteq	r2, r0
    10f4:	00006006 	andeq	r6, r0, r6
    10f8:	05020200 	streq	r0, [r2, #-512]
    10fc:	0000002e 	andeq	r0, r0, lr, lsr #32
    1100:	69050403 	stmdbvs	r5, {r0, r1, sl}
    1104:	0200746e 	andeq	r7, r0, #1845493760	; 0x6e000000
    1108:	00000508 	andeq	r0, r0, r8, lsl #10
    110c:	08020000 	stmdaeq	r2, {}
    1110:	00003807 	andeq	r3, r0, r7, lsl #16
    1114:	05040200 	streq	r0, [r4, #-512]
    1118:	00000005 	andeq	r0, r0, r5
    111c:	05070404 	streq	r0, [r7, #-1028]
    1120:	08010204 	stmdaeq	r1, {r2, r9}
    1124:	00000067 	andeq	r0, r0, r7, rrx
    1128:	00059406 	andeq	r9, r5, r6, lsl #8
    112c:	09026500 	stmdbeq	r2, {r8, sl, sp, lr}
    1130:	000000a0 	andeq	r0, r0, r0, lsr #1
    1134:	00058307 	andeq	r8, r5, r7, lsl #6
    1138:	700a0200 	andvc	r0, sl, r0, lsl #4
    113c:	02000000 	andeq	r0, r0, #0	; 0x0
    1140:	ad070023 	stcge	0, cr0, [r7, #-140]
    1144:	02000005 	andeq	r0, r0, #5	; 0x5
    1148:	0000a00b 	andeq	sl, r0, fp
    114c:	01230200 	teqeq	r3, r0, lsl #4
    1150:	00700800 	rsbseq	r0, r0, r0, lsl #16
    1154:	00b00000 	adcseq	r0, r0, r0
    1158:	6b090000 	blvs	241160 <_start-0x2fe0eea0>
    115c:	63000000 	movwvs	r0, #0	; 0x0
    1160:	05950a00 	ldreq	r0, [r5, #2560]
    1164:	0c020000 	stceq	0, cr0, [r2], {0}
    1168:	00000077 	andeq	r0, r0, r7, ror r0
    116c:	05b8010b 	ldreq	r0, [r8, #267]!
    1170:	08010000 	stmdaeq	r1, {}
    1174:	00006e01 	andeq	r6, r0, r1, lsl #28
    1178:	051a4c00 	ldreq	r4, [sl, #-3072]
    117c:	051b8c30 	ldreq	r8, [fp, #-3120]
    1180:	00070e30 	andeq	r0, r7, r0, lsr lr
    1184:	00010100 	andeq	r0, r1, r0, lsl #2
    1188:	052a0c00 	streq	r0, [sl, #-3072]!
    118c:	07010000 	streq	r0, [r1, -r0]
    1190:	0000004f 	andeq	r0, r0, pc, asr #32
    1194:	0d6c9102 	stfeqp	f1, [ip, #-8]!
    1198:	00746572 	rsbseq	r6, r4, r2, ror r5
    119c:	006e0901 	rsbeq	r0, lr, r1, lsl #18
    11a0:	91020000 	tstls	r2, r0
    11a4:	00690d70 	rsbeq	r0, r9, r0, ror sp
    11a8:	00250a01 	eoreq	r0, r5, r1, lsl #20
    11ac:	91020000 	tstls	r2, r0
    11b0:	010e0074 	tsteq	lr, r4, ror r0
    11b4:	0000059c 	muleq	r0, ip, r5
    11b8:	8c012101 	stfhis	f2, [r1], {1}
    11bc:	7030051b 	eorsvc	r0, r0, fp, lsl r5
    11c0:	3930051c 	ldmdbcc	r0!, {r2, r3, r4, r8, sl}
    11c4:	35000007 	strcc	r0, [r0, #-7]
    11c8:	0f000001 	svceq	0x00000001
    11cc:	00727470 	rsbseq	r7, r2, r0, ror r4
    11d0:	006e2001 	rsbeq	r2, lr, r1
    11d4:	91020000 	tstls	r2, r0
    11d8:	00690d6c 	rsbeq	r0, r9, ip, ror #26
    11dc:	004f2201 	subeq	r2, pc, r1, lsl #4
    11e0:	91020000 	tstls	r2, r0
    11e4:	b0080074 	andlt	r0, r8, r4, ror r0
    11e8:	45000000 	strmi	r0, [r0]
    11ec:	09000001 	stmdbeq	r0, {r0}
    11f0:	0000006b 	andeq	r0, r0, fp, rrx
    11f4:	a1100013 	tstge	r0, r3, lsl r0
    11f8:	01000005 	tsteq	r0, r5
    11fc:	00013505 	andeq	r3, r1, r5, lsl #10
    1200:	03050100 	movweq	r0, #20736	; 0x5100
    1204:	3005ee14 	andcc	lr, r5, r4, lsl lr
    1208:	00050000 	andeq	r0, r5, r0
    120c:	74000200 	strvc	r0, [r0], #-512
    1210:	04000007 	streq	r0, [r0], #-7
    1214:	0000ac01 	andeq	sl, r0, r1, lsl #24
    1218:	05d70100 	ldrbeq	r0, [r7, #256]
    121c:	03370000 	teqeq	r7, #0	; 0x0
    1220:	1c700000 	ldclne	0, cr0, [r0]
    1224:	23443005 	movtcs	r3, #16389	; 0x4005
    1228:	05323005 	ldreq	r3, [r2, #-5]!
    122c:	04020000 	streq	r0, [r2]
    1230:	00004207 	andeq	r4, r0, r7, lsl #4
    1234:	08010200 	stmdaeq	r1, {r9}
    1238:	0000005e 	andeq	r0, r0, lr, asr r0
    123c:	8e070202 	cdphi	2, 0, cr0, cr7, cr2, {0}
    1240:	02000000 	andeq	r0, r0, #0	; 0x0
    1244:	003d0704 	eorseq	r0, sp, r4, lsl #14
    1248:	01020000 	tsteq	r2, r0
    124c:	00006006 	andeq	r6, r0, r6
    1250:	05020200 	streq	r0, [r2, #-512]
    1254:	0000002e 	andeq	r0, r0, lr, lsr #32
    1258:	69050403 	stmdbvs	r5, {r0, r1, sl}
    125c:	0200746e 	andeq	r7, r0, #1845493760	; 0x6e000000
    1260:	00000508 	andeq	r0, r0, r8, lsl #10
    1264:	08020000 	stmdaeq	r2, {}
    1268:	00003807 	andeq	r3, r0, r7, lsl #16
    126c:	05040200 	streq	r0, [r4, #-512]
    1270:	00000005 	andeq	r0, r0, r5
    1274:	02070404 	andeq	r0, r7, #67108864	; 0x4000000
    1278:	00670801 	rsbeq	r0, r7, r1, lsl #16
    127c:	76050000 	strvc	r0, [r5], -r0
    1280:	02000006 	andeq	r0, r0, #6	; 0x6
    1284:	06490604 	strbeq	r0, [r9], -r4, lsl #12
    1288:	05020000 	streq	r0, [r2]
    128c:	00000087 	andeq	r0, r0, r7, lsl #1
    1290:	00064407 	andeq	r4, r6, r7, lsl #8
    1294:	05020800 	streq	r0, [r2, #-2048]
    1298:	000000b0 	strheq	r0, [r0], -r0
    129c:	0006e608 	andeq	lr, r6, r8, lsl #12
    12a0:	b0080200 	andlt	r0, r8, r0, lsl #4
    12a4:	02000000 	andeq	r0, r0, #0	; 0x0
    12a8:	70090023 	andvc	r0, r9, r3, lsr #32
    12ac:	02006572 	andeq	r6, r0, #478150656	; 0x1c800000
    12b0:	0000b009 	andeq	fp, r0, r9
    12b4:	04230200 	strteq	r0, [r3], #-512
    12b8:	7c040a00 	stcvc	10, cr0, [r4], {0}
    12bc:	07000000 	streq	r0, [r0, -r0]
    12c0:	00000612 	andeq	r0, r0, r2, lsl r6
    12c4:	ed060110 	stfs	f0, [r6, #-64]
    12c8:	08000000 	stmdaeq	r0, {}
    12cc:	000005bf 	strheq	r0, [r0], -pc
    12d0:	007c0701 	rsbseq	r0, ip, r1, lsl #14
    12d4:	23020000 	movwcs	r0, #8192	; 0x2000
    12d8:	066e0800 	strbteq	r0, [lr], -r0, lsl #16
    12dc:	08010000 	stmdaeq	r1, {}
    12e0:	000000b0 	strheq	r0, [r0], -r0
    12e4:	08082302 	stmdaeq	r8, {r1, r8, r9, sp}
    12e8:	0000052a 	andeq	r0, r0, sl, lsr #10
    12ec:	004f0901 	subeq	r0, pc, r1, lsl #18
    12f0:	23020000 	movwcs	r0, #8192	; 0x2000
    12f4:	7506000c 	strvc	r0, [r6, #-12]
    12f8:	01000006 	tsteq	r0, r6
    12fc:	0000b60a 	andeq	fp, r0, sl, lsl #12
    1300:	c6010b00 	strgt	r0, [r1], -r0, lsl #22
    1304:	01000005 	tsteq	r0, r5
    1308:	0001230d 	andeq	r2, r1, sp, lsl #6
    130c:	051c7000 	ldreq	r7, [ip]
    1310:	051cdc30 	ldreq	sp, [ip, #-3120]
    1314:	00076430 	andeq	r6, r7, r0, lsr r4
    1318:	00012300 	andeq	r2, r1, r0, lsl #6
    131c:	65720c00 	ldrbvs	r0, [r2, #-3072]!
    1320:	0e010074 	mcreq	0, 0, r0, cr1, cr4, {3}
    1324:	00000129 	andeq	r0, r0, r9, lsr #2
    1328:	00749102 	rsbseq	r9, r4, r2, lsl #2
    132c:	0075040a 	rsbseq	r0, r5, sl, lsl #8
    1330:	040a0000 	streq	r0, [sl]
    1334:	000000ed 	andeq	r0, r0, sp, ror #1
    1338:	0621010d 	strteq	r0, [r1], -sp, lsl #2
    133c:	1c010000 	stcne	0, cr0, [r1], {0}
    1340:	051cdc01 	ldreq	sp, [ip, #-3073]
    1344:	051d0030 	ldreq	r0, [sp, #-48]
    1348:	00078f30 	andeq	r8, r7, r0, lsr pc
    134c:	00015700 	andeq	r5, r1, r0, lsl #14
    1350:	069c0e00 	ldreq	r0, [ip], r0, lsl #28
    1354:	1b010000 	blne	4135c <_start-0x3000eca4>
    1358:	00000123 	andeq	r0, r0, r3, lsr #2
    135c:	00749102 	rsbseq	r9, r4, r2, lsl #2
    1360:	0602010d 	streq	r0, [r2], -sp, lsl #2
    1364:	21010000 	tstcs	r1, r0
    1368:	051d0001 	ldreq	r0, [sp, #-1]
    136c:	051d6030 	ldreq	r6, [sp, #-48]
    1370:	0007ba30 	andeq	fp, r7, r0, lsr sl
    1374:	00018d00 	andeq	r8, r1, r0, lsl #26
    1378:	069c0e00 	ldreq	r0, [ip], r0, lsl #28
    137c:	20010000 	andcs	r0, r1, r0
    1380:	00000123 	andeq	r0, r0, r3, lsr #2
    1384:	0f6c9102 	svceq	0x006c9102
    1388:	00000696 	muleq	r0, r6, r6
    138c:	01292201 	teqeq	r9, r1, lsl #4
    1390:	91020000 	tstls	r2, r0
    1394:	01100074 	tsteq	r0, r4, ror r0
    1398:	000006a1 	andeq	r0, r0, r1, lsr #13
    139c:	4f012e01 	svcmi	0x00012e01
    13a0:	60000000 	andvs	r0, r0, r0
    13a4:	ac30051d 	cfldr32ge	mvfx0, [r0], #-116
    13a8:	e530051d 	ldr	r0, [r0, #-1309]!
    13ac:	d5000007 	strle	r0, [r0, #-7]
    13b0:	0e000001 	cdpeq	0, 0, cr0, cr0, cr1, {0}
    13b4:	0000069c 	muleq	r0, ip, r6
    13b8:	01232d01 	teqeq	r3, r1, lsl #26
    13bc:	91020000 	tstls	r2, r0
    13c0:	06960f6c 	ldreq	r0, [r6], ip, ror #30
    13c4:	2f010000 	svccs	0x00010000
    13c8:	00000129 	andeq	r0, r0, r9, lsr #2
    13cc:	0c709102 	ldfeqp	f1, [r0], #-8
    13d0:	00746572 	rsbseq	r6, r4, r2, ror r5
    13d4:	004f3001 	subeq	r3, pc, r1
    13d8:	91020000 	tstls	r2, r0
    13dc:	01100074 	tsteq	r0, r4, ror r0
    13e0:	000006b2 	strheq	r0, [r0], -r2
    13e4:	4f013b01 	svcmi	0x00013b01
    13e8:	ac000000 	stcge	0, cr0, [r0], {0}
    13ec:	0c30051d 	cfldr32eq	mvfx0, [r0], #-116
    13f0:	1030051f 	eorsne	r0, r0, pc, lsl r5
    13f4:	6b000008 	blvs	141c <_start-0x3004ebe4>
    13f8:	0e000002 	cdpeq	0, 0, cr0, cr0, cr2, {0}
    13fc:	0000069c 	muleq	r0, ip, r6
    1400:	01233a01 	teqeq	r3, r1, lsl #20
    1404:	91020000 	tstls	r2, r0
    1408:	06570e5c 	undefined
    140c:	3a010000 	bcc	41414 <_start-0x3000ebec>
    1410:	000000b0 	strheq	r0, [r0], -r0
    1414:	11589102 	cmpne	r8, r2, lsl #2
    1418:	00736f70 	rsbseq	r6, r3, r0, ror pc
    141c:	004f3a01 	subeq	r3, pc, r1, lsl #20
    1420:	91020000 	tstls	r2, r0
    1424:	06960f54 	undefined
    1428:	3c010000 	stccc	0, cr0, [r1], {0}
    142c:	00000129 	andeq	r0, r0, r9, lsr #2
    1430:	0c649102 	stfeqp	f1, [r4], #-8
    1434:	00746572 	rsbseq	r6, r4, r2, ror r5
    1438:	004f3d01 	subeq	r3, pc, r1, lsl #26
    143c:	91020000 	tstls	r2, r0
    1440:	00690c68 	rsbeq	r0, r9, r8, ror #24
    1444:	004f3e01 	subeq	r3, pc, r1, lsl #28
    1448:	91020000 	tstls	r2, r0
    144c:	1e20126c 	cdpne	2, 2, cr1, cr0, cr12, {3}
    1450:	1ef83005 	cdpne	0, 15, cr3, cr8, cr5, {0}
    1454:	800f3005 	andhi	r3, pc, r5
    1458:	01000006 	tsteq	r0, r6
    145c:	0000b042 	andeq	fp, r0, r2, asr #32
    1460:	70910200 	addsvc	r0, r1, r0, lsl #4
    1464:	0006e60f 	andeq	lr, r6, pc, lsl #12
    1468:	b0430100 	sublt	r0, r3, r0, lsl #2
    146c:	02000000 	andeq	r0, r0, #0	; 0x0
    1470:	00007491 	muleq	r0, r1, r4
    1474:	06880110 	pkhbteq	r0, r8, r0, lsl #2
    1478:	63010000 	movwvs	r0, #4096	; 0x1000
    147c:	0000b001 	andeq	fp, r0, r1
    1480:	051f0c00 	ldreq	r0, [pc, #-3072]	; 888 <_start-0x3004f778>
    1484:	051fc030 	ldreq	ip, [pc, #-48]	; 145c <_start-0x3004eba4>
    1488:	00083b30 	andeq	r3, r8, r0, lsr fp
    148c:	0002e500 	andeq	lr, r2, r0, lsl #10
    1490:	069c0e00 	ldreq	r0, [ip], r0, lsl #28
    1494:	62010000 	andvs	r0, r1, #0	; 0x0
    1498:	00000123 	andeq	r0, r0, r3, lsr #2
    149c:	11649102 	cmnne	r4, r2, lsl #2
    14a0:	00736f70 	rsbseq	r6, r3, r0, ror pc
    14a4:	004f6201 	subeq	r6, pc, r1, lsl #4
    14a8:	91020000 	tstls	r2, r0
    14ac:	06960f60 	ldreq	r0, [r6], r0, ror #30
    14b0:	64010000 	strvs	r0, [r1]
    14b4:	00000129 	andeq	r0, r0, r9, lsr #2
    14b8:	0c689102 	stfeqp	f1, [r8], #-8
    14bc:	00746572 	rsbseq	r6, r4, r2, ror r5
    14c0:	00b06501 	adcseq	r6, r0, r1, lsl #10
    14c4:	91020000 	tstls	r2, r0
    14c8:	00690c6c 	rsbeq	r0, r9, ip, ror #24
    14cc:	004f6601 	subeq	r6, pc, r1, lsl #12
    14d0:	91020000 	tstls	r2, r0
    14d4:	1f641270 	svcne	0x00641270
    14d8:	1fac3005 	svcne	0x00ac3005
    14dc:	800f3005 	andhi	r3, pc, r5
    14e0:	01000006 	tsteq	r0, r6
    14e4:	0000b06a 	andeq	fp, r0, sl, rrx
    14e8:	74910200 	ldrvc	r0, [r1], #512
    14ec:	01100000 	tsteq	r0, r0
    14f0:	00000633 	andeq	r0, r0, r3, lsr r6
    14f4:	b0017801 	andlt	r7, r1, r1, lsl #16
    14f8:	c0000000 	andgt	r0, r0, r0
    14fc:	fc30051f 	ldc2	5, cr0, [r0], #-124
    1500:	66300520 	ldrtvs	r0, [r0], -r0, lsr #10
    1504:	6d000008 	stcvs	0, cr0, [r0, #-32]
    1508:	0e000003 	cdpeq	0, 0, cr0, cr0, cr3, {0}
    150c:	0000069c 	muleq	r0, ip, r6
    1510:	01237701 	teqeq	r3, r1, lsl #14
    1514:	91020000 	tstls	r2, r0
    1518:	6f70115c 	svcvs	0x0070115c
    151c:	77010073 	smlsdxvc	r1, r3, r0, r0
    1520:	0000004f 	andeq	r0, r0, pc, asr #32
    1524:	0f589102 	svceq	0x00589102
    1528:	00000696 	muleq	r0, r6, r6
    152c:	01297901 	teqeq	r9, r1, lsl #18
    1530:	91020000 	tstls	r2, r0
    1534:	65720c64 	ldrbvs	r0, [r2, #-3172]!
    1538:	7a010074 	bvc	41710 <_start-0x3000e8f0>
    153c:	000000b0 	strheq	r0, [r0], -r0
    1540:	0c689102 	stfeqp	f1, [r8], #-8
    1544:	7b010069 	blvc	416f0 <_start-0x3000e910>
    1548:	0000004f 	andeq	r0, r0, pc, asr #32
    154c:	126c9102 	rsbne	r9, ip, #-2147483648	; 0x80000000
    1550:	30052018 	andcc	r2, r5, r8, lsl r0
    1554:	300520e8 	andcc	r2, r5, r8, ror #1
    1558:	0006800f 	andeq	r8, r6, pc
    155c:	b07f0100 	rsbslt	r0, pc, r0, lsl #2
    1560:	02000000 	andeq	r0, r0, #0	; 0x0
    1564:	e60f7091 	undefined
    1568:	01000006 	tsteq	r0, r6
    156c:	0000b080 	andeq	fp, r0, r0, lsl #1
    1570:	74910200 	ldrvc	r0, [r1], #512
    1574:	01100000 	tsteq	r0, r0
    1578:	000006c3 	andeq	r0, r0, r3, asr #13
    157c:	b001a201 	andlt	sl, r1, r1, lsl #4
    1580:	fc000000 	stc2	0, cr0, [r0], {0}
    1584:	c4300520 	ldrtgt	r0, [r0], #-1312
    1588:	91300521 	teqls	r0, r1, lsr #10
    158c:	e7000008 	str	r0, [r0, -r8]
    1590:	0e000003 	cdpeq	0, 0, cr0, cr0, cr3, {0}
    1594:	0000069c 	muleq	r0, ip, r6
    1598:	0123a101 	teqeq	r3, r1, lsl #2
    159c:	91020000 	tstls	r2, r0
    15a0:	06570e64 	ldrbeq	r0, [r7], -r4, ror #28
    15a4:	a1010000 	tstge	r1, r0
    15a8:	000000b0 	strheq	r0, [r0], -r0
    15ac:	0f609102 	svceq	0x00609102
    15b0:	00000696 	muleq	r0, r6, r6
    15b4:	0129a301 	teqeq	r9, r1, lsl #6
    15b8:	91020000 	tstls	r2, r0
    15bc:	65720c68 	ldrbvs	r0, [r2, #-3176]!
    15c0:	a4010074 	strge	r0, [r1], #-116
    15c4:	000000b0 	strheq	r0, [r0], -r0
    15c8:	0c6c9102 	stfeqp	f1, [ip], #-8
    15cc:	a5010069 	strge	r0, [r1, #-105]
    15d0:	0000004f 	andeq	r0, r0, pc, asr #32
    15d4:	12709102 	rsbsne	r9, r0, #-2147483648	; 0x80000000
    15d8:	30052134 	andcc	r2, r5, r4, lsr r1
    15dc:	300521b0 	strhcc	r2, [r5], -r0
    15e0:	0006800f 	andeq	r8, r6, pc
    15e4:	b0a90100 	adclt	r0, r9, r0, lsl #2
    15e8:	02000000 	andeq	r0, r0, #0	; 0x0
    15ec:	00007491 	muleq	r0, r1, r4
    15f0:	05e30110 	strbeq	r0, [r3, #272]!
    15f4:	c0010000 	andgt	r0, r1, r0
    15f8:	0000b001 	andeq	fp, r0, r1
    15fc:	0521c400 	streq	ip, [r1, #-1024]!
    1600:	05222030 	streq	r2, [r2, #-48]!
    1604:	0008bc30 	andeq	fp, r8, r0, lsr ip
    1608:	00042f00 	andeq	r2, r4, r0, lsl #30
    160c:	069c0e00 	ldreq	r0, [ip], r0, lsl #28
    1610:	bf010000 	svclt	0x00010000
    1614:	00000123 	andeq	r0, r0, r3, lsr #2
    1618:	0f6c9102 	svceq	0x006c9102
    161c:	00000696 	muleq	r0, r6, r6
    1620:	0129c101 	teqeq	r9, r1, lsl #2
    1624:	91020000 	tstls	r2, r0
    1628:	65720c70 	ldrbvs	r0, [r2, #-3184]!
    162c:	c2010074 	andgt	r0, r1, #116	; 0x74
    1630:	000000b0 	strheq	r0, [r0], -r0
    1634:	00749102 	rsbseq	r9, r4, r2, lsl #2
    1638:	065c0110 	undefined
    163c:	ce010000 	cdpgt	0, 0, cr0, cr1, cr0, {0}
    1640:	0000b001 	andeq	fp, r0, r1
    1644:	05222000 	streq	r2, [r2]!
    1648:	05226c30 	streq	r6, [r2, #-3120]!
    164c:	0008e730 	andeq	lr, r8, r0, lsr r7
    1650:	00047700 	andeq	r7, r4, r0, lsl #14
    1654:	069c0e00 	ldreq	r0, [ip], r0, lsl #28
    1658:	cd010000 	stcgt	0, cr0, [r1]
    165c:	00000123 	andeq	r0, r0, r3, lsr #2
    1660:	0f6c9102 	svceq	0x006c9102
    1664:	00000696 	muleq	r0, r6, r6
    1668:	0129cf01 	teqeq	r9, r1, lsl #30
    166c:	91020000 	tstls	r2, r0
    1670:	65720c70 	ldrbvs	r0, [r2, #-3184]!
    1674:	d0010074 	andle	r0, r1, r4, ror r0
    1678:	000000b0 	strheq	r0, [r0], -r0
    167c:	00749102 	rsbseq	r9, r4, r2, lsl #2
    1680:	05f30110 	ldrbeq	r0, [r3, #272]!
    1684:	db010000 	blle	4168c <_start-0x3000e974>
    1688:	0000b001 	andeq	fp, r0, r1
    168c:	05226c00 	streq	r6, [r2, #-3072]!
    1690:	0522d830 	streq	sp, [r2, #-2096]!
    1694:	00091230 	andeq	r1, r9, r0, lsr r2
    1698:	0004bf00 	andeq	fp, r4, r0, lsl #30
    169c:	069c0e00 	ldreq	r0, [ip], r0, lsl #28
    16a0:	da010000 	ble	416a8 <_start-0x3000e958>
    16a4:	00000123 	andeq	r0, r0, r3, lsr #2
    16a8:	0f6c9102 	svceq	0x006c9102
    16ac:	00000696 	muleq	r0, r6, r6
    16b0:	0129dc01 	teqeq	r9, r1, lsl #24
    16b4:	91020000 	tstls	r2, r0
    16b8:	65720c70 	ldrbvs	r0, [r2, #-3184]!
    16bc:	dd010074 	stcle	0, cr0, [r1, #-464]
    16c0:	000000b0 	strheq	r0, [r0], -r0
    16c4:	00749102 	rsbseq	r9, r4, r2, lsl #2
    16c8:	06d80113 	undefined
    16cc:	e9010000 	stmdb	r1, {}
    16d0:	0000b001 	andeq	fp, r0, r1
    16d4:	0522d800 	streq	sp, [r2, #-2048]!
    16d8:	05234430 	streq	r4, [r3, #-1072]!
    16dc:	00093d30 	andeq	r3, r9, r0, lsr sp
    16e0:	069c0e00 	ldreq	r0, [ip], r0, lsl #28
    16e4:	e8010000 	stmda	r1, {}
    16e8:	00000123 	andeq	r0, r0, r3, lsr #2
    16ec:	0f6c9102 	svceq	0x006c9102
    16f0:	00000696 	muleq	r0, r6, r6
    16f4:	0129ea01 	teqeq	r9, r1, lsl #20
    16f8:	91020000 	tstls	r2, r0
    16fc:	65720c70 	ldrbvs	r0, [r2, #-3184]!
    1700:	eb010074 	bl	418d8 <_start-0x3000e728>
    1704:	000000b0 	strheq	r0, [r0], -r0
    1708:	00749102 	rsbseq	r9, r4, r2, lsl #2
    170c:	00018a00 	andeq	r8, r1, r0, lsl #20
    1710:	98000200 	stmdals	r0, {r9}
    1714:	04000008 	streq	r0, [r0], #-8
    1718:	0000ac01 	andeq	sl, r0, r1, lsl #24
    171c:	07240100 	streq	r0, [r4, -r0, lsl #2]!
    1720:	03370000 	teqeq	r7, #0	; 0x0
    1724:	23440000 	movtcs	r0, #16384	; 0x4000
    1728:	252c3005 	strcs	r3, [ip, #-5]!
    172c:	06263005 	strteq	r3, [r6], -r5
    1730:	04020000 	streq	r0, [r2]
    1734:	00004207 	andeq	r4, r0, r7, lsl #4
    1738:	08010200 	stmdaeq	r1, {r9}
    173c:	0000005e 	andeq	r0, r0, lr, asr r0
    1740:	8e070202 	cdphi	2, 0, cr0, cr7, cr2, {0}
    1744:	02000000 	andeq	r0, r0, #0	; 0x0
    1748:	003d0704 	eorseq	r0, sp, r4, lsl #14
    174c:	01020000 	tsteq	r2, r0
    1750:	00006006 	andeq	r6, r0, r6
    1754:	05020200 	streq	r0, [r2, #-512]
    1758:	0000002e 	andeq	r0, r0, lr, lsr #32
    175c:	69050403 	stmdbvs	r5, {r0, r1, sl}
    1760:	0200746e 	andeq	r7, r0, #1845493760	; 0x6e000000
    1764:	00000508 	andeq	r0, r0, r8, lsl #10
    1768:	08020000 	stmdaeq	r2, {}
    176c:	00003807 	andeq	r3, r0, r7, lsl #16
    1770:	05040200 	streq	r0, [r4, #-512]
    1774:	00000005 	andeq	r0, r0, r5
    1778:	02070404 	andeq	r0, r7, #67108864	; 0x4000000
    177c:	00670801 	rsbeq	r0, r7, r1, lsl #16
    1780:	eb050000 	bl	141788 <_start-0x2ff0e878>
    1784:	02000006 	andeq	r0, r0, #6	; 0x6
    1788:	00008004 	andeq	r8, r0, r4
    178c:	00330600 	eorseq	r0, r3, r0, lsl #12
    1790:	00900000 	addseq	r0, r0, r0
    1794:	6b070000 	blvs	1c179c <_start-0x2fe8e864>
    1798:	7f000000 	svcvc	0x00000000
    179c:	072f0800 	streq	r0, [pc, -r0, lsl #16]!
    17a0:	01020000 	tsteq	r2, r0
    17a4:	00ba0702 	adcseq	r0, sl, r2, lsl #14
    17a8:	0c090000 	stceq	0, cr0, [r9], {0}
    17ac:	02000007 	andeq	r0, r0, #7	; 0x7
    17b0:	00002c08 	andeq	r2, r0, r8, lsl #24
    17b4:	00230200 	eoreq	r0, r3, r0, lsl #4
    17b8:	00074009 	andeq	r4, r7, r9
    17bc:	75090200 	strvc	r0, [r9, #-512]
    17c0:	02000000 	andeq	r0, r0, #0	; 0x0
    17c4:	05000223 	streq	r0, [r0, #-547]
    17c8:	00000730 	andeq	r0, r0, r0, lsr r7
    17cc:	00900a02 	addseq	r0, r0, r2, lsl #20
    17d0:	010a0000 	tsteq	sl, r0
    17d4:	000006f8 	strdeq	r0, [r0], -r8
    17d8:	44012301 	strmi	r2, [r1], #-769
    17dc:	fc300523 	ldc2	5, cr0, [r0], #-140
    17e0:	68300523 	ldmdavs	r0!, {r0, r1, r5, r8, sl}
    17e4:	09000009 	stmdbeq	r0, {r0, r3}
    17e8:	0b000001 	bleq	17f4 <_start-0x3004e80c>
    17ec:	00000706 	andeq	r0, r0, r6, lsl #14
    17f0:	00332201 	eorseq	r2, r3, r1, lsl #4
    17f4:	91020000 	tstls	r2, r0
    17f8:	07400b6e 	strbeq	r0, [r0, -lr, ror #22]
    17fc:	22010000 	andcs	r0, r1, #0	; 0x0
    1800:	00000109 	andeq	r0, r0, r9, lsl #2
    1804:	0c689102 	stfeqp	f1, [r8], #-8
    1808:	000004bd 	strheq	r0, [r0], -sp
    180c:	00252401 	eoreq	r2, r5, r1, lsl #8
    1810:	91020000 	tstls	r2, r0
    1814:	040d0074 	streq	r0, [sp], #-116
    1818:	00000075 	andeq	r0, r0, r5, ror r0
    181c:	0717010e 	ldreq	r0, [r7, -lr, lsl #2]
    1820:	37010000 	strcc	r0, [r1, -r0]
    1824:	00002501 	andeq	r2, r0, r1, lsl #10
    1828:	0523fc00 	streq	pc, [r3, #-3072]!
    182c:	05252c30 	streq	r2, [r5, #-3120]!
    1830:	00099330 	andeq	r9, r9, r0, lsr r3
    1834:	00016500 	andeq	r6, r1, r0, lsl #10
    1838:	070c0b00 	streq	r0, [ip, -r0, lsl #22]
    183c:	36010000 	strcc	r0, [r1], -r0
    1840:	0000002c 	andeq	r0, r0, ip, lsr #32
    1844:	0b6f9102 	bleq	1be5c54 <_start-0x2e46a3ac>
    1848:	00000706 	andeq	r0, r0, r6, lsl #14
    184c:	00333601 	eorseq	r3, r3, r1, lsl #12
    1850:	91020000 	tstls	r2, r0
    1854:	07400b6c 	strbeq	r0, [r0, -ip, ror #22]
    1858:	36010000 	strcc	r0, [r1], -r0
    185c:	00000165 	andeq	r0, r0, r5, ror #2
    1860:	0c689102 	stfeqp	f1, [r8], #-8
    1864:	000004bd 	strheq	r0, [r0], -sp
    1868:	00253801 	eoreq	r3, r5, r1, lsl #16
    186c:	91020000 	tstls	r2, r0
    1870:	040d0074 	streq	r0, [sp], #-116
    1874:	00000109 	andeq	r0, r0, r9, lsl #2
    1878:	0000ba06 	andeq	fp, r0, r6, lsl #20
    187c:	00017b00 	andeq	r7, r1, r0, lsl #22
    1880:	006b0700 	rsbeq	r0, fp, r0, lsl #14
    1884:	00190000 	andseq	r0, r9, r0
    1888:	0007390f 	andeq	r3, r7, pc, lsl #18
    188c:	6b050100 	blvs	141c94 <_start-0x2ff0e36c>
    1890:	01000001 	tsteq	r0, r1
    1894:	d0260305 	eorle	r0, r6, r5, lsl #6
    1898:	72003005 	andvc	r3, r0, #5	; 0x5
    189c:	02000000 	.word	0x02000000
    18a0:	00097000 	.word	0x00097000
    18a4:	ac010400 	.word	0xac010400
    18a8:	01000000 	.word	0x01000000
    18ac:	0000074f 	.word	0x0000074f
    18b0:	00000337 	.word	0x00000337
    18b4:	3005252c 	.word	0x3005252c
    18b8:	3005252c 	.word	0x3005252c
    18bc:	000006b1 	.word	0x000006b1
    18c0:	42070402 	.word	0x42070402
    18c4:	02000000 	.word	0x02000000
    18c8:	005e0801 	.word	0x005e0801
    18cc:	02020000 	.word	0x02020000
    18d0:	00008e07 	.word	0x00008e07
    18d4:	07040200 	.word	0x07040200
    18d8:	0000003d 	.word	0x0000003d
    18dc:	60060102 	.word	0x60060102
    18e0:	02000000 	.word	0x02000000
    18e4:	002e0502 	.word	0x002e0502
    18e8:	04030000 	.word	0x04030000
    18ec:	746e6905 	.word	0x746e6905
    18f0:	05080200 	.word	0x05080200
    18f4:	00000000 	.word	0x00000000
    18f8:	38070802 	.word	0x38070802
    18fc:	02000000 	.word	0x02000000
    1900:	00050504 	.word	0x00050504
    1904:	04040000 	.word	0x04040000
    1908:	08010207 	.word	0x08010207
    190c:	00000067 	.word	0x00000067
    1910:	00030800 	.word	0x00030800
    1914:	a3000200 	.word	0xa3000200
    1918:	04000009 	.word	0x04000009
    191c:	0000ac01 	.word	0x0000ac01
    1920:	08300100 	.word	0x08300100
    1924:	07e40000 	.word	0x07e40000
    1928:	252c0000 	.word	0x252c0000
    192c:	29903005 	.word	0x29903005
    1930:	06ce3005 	.word	0x06ce3005
    1934:	04020000 	.word	0x04020000
    1938:	00004207 	.word	0x00004207
    193c:	08010200 	.word	0x08010200
    1940:	0000005e 	.word	0x0000005e
    1944:	8e070202 	.word	0x8e070202
    1948:	02000000 	.word	0x02000000
    194c:	003d0704 	.word	0x003d0704
    1950:	01020000 	.word	0x01020000
    1954:	00006006 	.word	0x00006006
    1958:	05020200 	.word	0x05020200
    195c:	0000002e 	.word	0x0000002e
    1960:	69050403 	.word	0x69050403
    1964:	0200746e 	.word	0x0200746e
    1968:	00000508 	.word	0x00000508
    196c:	08020000 	.word	0x08020000
    1970:	00003807 	.word	0x00003807
    1974:	05040200 	.word	0x05040200
    1978:	00000005 	.word	0x00000005
    197c:	02070404 	.word	0x02070404
    1980:	00670801 	.word	0x00670801
    1984:	8f050000 	.word	0x8f050000
    1988:	02000007 	.word	0x02000007
    198c:	076e0604 	.word	0x076e0604
    1990:	05020000 	.word	0x05020000
    1994:	00000025 	.word	0x00000025
    1998:	00078e06 	.word	0x00078e06
    199c:	92070100 	.word	0x92070100
    19a0:	07000000 	.word	0x07000000
    19a4:	00000789 	.word	0x00000789
    19a8:	c907010c 	.word	0xc907010c
    19ac:	08000000 	.word	0x08000000
    19b0:	000007b7 	.word	0x000007b7
    19b4:	004f0a01 	.word	0x004f0a01
    19b8:	23020000 	.word	0x23020000
    19bc:	052a0800 	.word	0x052a0800
    19c0:	0b010000 	.word	0x0b010000
    19c4:	0000004f 	.word	0x0000004f
    19c8:	08042302 	.word	0x08042302
    19cc:	00000657 	.word	0x00000657
    19d0:	00c90c01 	.word	0x00c90c01
    19d4:	23020000 	.word	0x23020000
    19d8:	04090008 	.word	0x04090008
    19dc:	0000007c 	.word	0x0000007c
    19e0:	07a8010a 	.word	0x07a8010a
    19e4:	10010000 	.word	0x10010000
    19e8:	00010901 	.word	0x00010901
    19ec:	05252c00 	.word	0x05252c00
    19f0:	0525d430 	.word	0x0525d430
    19f4:	0009be30 	.word	0x0009be30
    19f8:	00010900 	.word	0x00010900
    19fc:	07b70b00 	.word	0x07b70b00
    1a00:	0f010000 	.word	0x0f010000
    1a04:	0000004f 	.word	0x0000004f
    1a08:	0c6c9102 	.word	0x0c6c9102
    1a0c:	00746572 	.word	0x00746572
    1a10:	010f1101 	.word	0x010f1101
    1a14:	91020000 	.word	0x91020000
    1a18:	04090074 	.word	0x04090074
    1a1c:	00000075 	.word	0x00000075
    1a20:	00870409 	.word	0x00870409
    1a24:	010d0000 	.word	0x010d0000
    1a28:	00000820 	.word	0x00000820
    1a2c:	d4012601 	.word	0xd4012601
    1a30:	04300525 	.word	0x04300525
    1a34:	e9300526 	.word	0xe9300526
    1a38:	3d000009 	.word	0x3d000009
    1a3c:	0b000001 	.word	0x0b000001
    1a40:	00000758 	.word	0x00000758
    1a44:	01092501 	.word	0x01092501
    1a48:	91020000 	.word	0x91020000
    1a4c:	010d0074 	.word	0x010d0074
    1a50:	00000760 	.word	0x00000760
    1a54:	04012e01 	.word	0x04012e01
    1a58:	4c300526 	.word	0x4c300526
    1a5c:	14300526 	.word	0x14300526
    1a60:	7300000a 	.word	0x7300000a
    1a64:	0b000001 	.word	0x0b000001
    1a68:	00000758 	.word	0x00000758
    1a6c:	01092d01 	.word	0x01092d01
    1a70:	91020000 	.word	0x91020000
    1a74:	07db0e6c 	.word	0x07db0e6c
    1a78:	2f010000 	.word	0x2f010000
    1a7c:	0000010f 	.word	0x0000010f
    1a80:	00749102 	.word	0x00749102
    1a84:	0811010a 	.word	0x0811010a
    1a88:	39010000 	.word	0x39010000
    1a8c:	00004f01 	.word	0x00004f01
    1a90:	05264c00 	.word	0x05264c00
    1a94:	05279430 	.word	0x05279430
    1a98:	000a3f30 	.word	0x000a3f30
    1a9c:	0001e300 	.word	0x0001e300
    1aa0:	07580b00 	.word	0x07580b00
    1aa4:	38010000 	.word	0x38010000
    1aa8:	00000109 	.word	0x00000109
    1aac:	0b649102 	.word	0x0b649102
    1ab0:	00000657 	.word	0x00000657
    1ab4:	00c93801 	.word	0x00c93801
    1ab8:	91020000 	.word	0x91020000
    1abc:	6f700f60 	.word	0x6f700f60
    1ac0:	38010073 	.word	0x38010073
    1ac4:	0000004f 	.word	0x0000004f
    1ac8:	0e5c9102 	.word	0x0e5c9102
    1acc:	000007db 	.word	0x000007db
    1ad0:	010f3a01 	.word	0x010f3a01
    1ad4:	91020000 	.word	0x91020000
    1ad8:	65720c6c 	.word	0x65720c6c
    1adc:	3b010074 	.word	0x3b010074
    1ae0:	0000004f 	.word	0x0000004f
    1ae4:	0c709102 	.word	0x0c709102
    1ae8:	3c010069 	.word	0x3c010069
    1aec:	0000004f 	.word	0x0000004f
    1af0:	00749102 	.word	0x00749102
    1af4:	077a010a 	.word	0x077a010a
    1af8:	5e010000 	.word	0x5e010000
    1afc:	0000c901 	.word	0x0000c901
    1b00:	05279400 	.word	0x05279400
    1b04:	0528b030 	.word	0x0528b030
    1b08:	000a6a30 	.word	0x000a6a30
    1b0c:	00024500 	.word	0x00024500
    1b10:	07580b00 	.word	0x07580b00
    1b14:	5d010000 	.word	0x5d010000
    1b18:	00000109 	.word	0x00000109
    1b1c:	0f649102 	.word	0x0f649102
    1b20:	00736f70 	.word	0x00736f70
    1b24:	004f5d01 	.word	0x004f5d01
    1b28:	91020000 	.word	0x91020000
    1b2c:	07db0e60 	.word	0x07db0e60
    1b30:	5f010000 	.word	0x5f010000
    1b34:	0000010f 	.word	0x0000010f
    1b38:	0c6c9102 	.word	0x0c6c9102
    1b3c:	00746572 	.word	0x00746572
    1b40:	00c96001 	.word	0x00c96001
    1b44:	91020000 	.word	0x91020000
    1b48:	00690c70 	.word	0x00690c70
    1b4c:	004f6101 	.word	0x004f6101
    1b50:	91020000 	.word	0x91020000
    1b54:	010a0074 	.word	0x010a0074
    1b58:	000007cf 	.word	0x000007cf
    1b5c:	c9017501 	.word	0xc9017501
    1b60:	b0000000 	.word	0xb0000000
    1b64:	30300528 	.word	0x30300528
    1b68:	95300529 	.word	0x95300529
    1b6c:	9b00000a 	.word	0x9b00000a
    1b70:	0b000002 	.word	0x0b000002
    1b74:	00000758 	.word	0x00000758
    1b78:	01097401 	.word	0x01097401
    1b7c:	91020000 	.word	0x91020000
    1b80:	6f700f6c 	.word	0x6f700f6c
    1b84:	74010073 	.word	0x74010073
    1b88:	0000004f 	.word	0x0000004f
    1b8c:	0e689102 	.word	0x0e689102
    1b90:	000007db 	.word	0x000007db
    1b94:	010f7601 	.word	0x010f7601
    1b98:	91020000 	.word	0x91020000
    1b9c:	65720c70 	.word	0x65720c70
    1ba0:	77010074 	.word	0x77010074
    1ba4:	000000c9 	.word	0x000000c9
    1ba8:	00749102 	.word	0x00749102
    1bac:	07c0010a 	.word	0x07c0010a
    1bb0:	82010000 	.word	0x82010000
    1bb4:	00004f01 	.word	0x00004f01
    1bb8:	05293000 	.word	0x05293000
    1bbc:	05296030 	.word	0x05296030
    1bc0:	000ac030 	.word	0x000ac030
    1bc4:	0002d500 	.word	0x0002d500
    1bc8:	07580b00 	.word	0x07580b00
    1bcc:	81010000 	.word	0x81010000
    1bd0:	00000109 	.word	0x00000109
    1bd4:	0e6c9102 	.word	0x0e6c9102
    1bd8:	000007db 	.word	0x000007db
    1bdc:	010f8301 	.word	0x010f8301
    1be0:	91020000 	.word	0x91020000
    1be4:	01100074 	.word	0x01100074
    1be8:	00000797 	.word	0x00000797
    1bec:	4f018901 	.word	0x4f018901
    1bf0:	60000000 	.word	0x60000000
    1bf4:	90300529 	.word	0x90300529
    1bf8:	eb300529 	.word	0xeb300529
    1bfc:	0b00000a 	.word	0x0b00000a
    1c00:	00000758 	.word	0x00000758
    1c04:	01098801 	.word	0x01098801
    1c08:	91020000 	.word	0x91020000
    1c0c:	07db0e6c 	.word	0x07db0e6c
    1c10:	8a010000 	.word	0x8a010000
    1c14:	0000010f 	.word	0x0000010f
    1c18:	00749102 	.word	0x00749102
    1c1c:	0001e300 	.word	0x0001e300
    1c20:	98000200 	.word	0x98000200
    1c24:	0400000a 	.word	0x0400000a
    1c28:	0000ac01 	.word	0x0000ac01
    1c2c:	08a30100 	.word	0x08a30100
    1c30:	07e40000 	.word	0x07e40000
    1c34:	29900000 	.word	0x29900000
    1c38:	2b143005 	.word	0x2b143005
    1c3c:	077c3005 	.word	0x077c3005
    1c40:	04020000 	.word	0x04020000
    1c44:	00004207 	.word	0x00004207
    1c48:	08010200 	.word	0x08010200
    1c4c:	0000005e 	.word	0x0000005e
    1c50:	8e070202 	.word	0x8e070202
    1c54:	02000000 	.word	0x02000000
    1c58:	003d0704 	.word	0x003d0704
    1c5c:	01020000 	.word	0x01020000
    1c60:	00006006 	.word	0x00006006
    1c64:	05020200 	.word	0x05020200
    1c68:	0000002e 	.word	0x0000002e
    1c6c:	69050403 	.word	0x69050403
    1c70:	0200746e 	.word	0x0200746e
    1c74:	00000508 	.word	0x00000508
    1c78:	08020000 	.word	0x08020000
    1c7c:	00003807 	.word	0x00003807
    1c80:	05040200 	.word	0x05040200
    1c84:	00000005 	.word	0x00000005
    1c88:	05070404 	.word	0x05070404
    1c8c:	08010204 	.word	0x08010204
    1c90:	00000067 	.word	0x00000067
    1c94:	00083a06 	.word	0x00083a06
    1c98:	07040200 	.word	0x07040200
    1c9c:	00087801 	.word	0x00087801
    1ca0:	01070100 	.word	0x01070100
    1ca4:	000000aa 	.word	0x000000aa
    1ca8:	30052990 	.word	0x30052990
    1cac:	300529bc 	.word	0x300529bc
    1cb0:	00000b16 	.word	0x00000b16
    1cb4:	000000aa 	.word	0x000000aa
    1cb8:	0007b708 	.word	0x0007b708
    1cbc:	4f060100 	.word	0x4f060100
    1cc0:	02000000 	.word	0x02000000
    1cc4:	09007491 	.word	0x09007491
    1cc8:	00007704 	.word	0x00007704
    1ccc:	5a010a00 	.word	0x5a010a00
    1cd0:	01000008 	.word	0x01000008
    1cd4:	29bc010c 	.word	0x29bc010c
    1cd8:	29e03005 	.word	0x29e03005
    1cdc:	0b413005 	.word	0x0b413005
    1ce0:	00d80000 	.word	0x00d80000
    1ce4:	bc080000 	.word	0xbc080000
    1ce8:	01000008 	.word	0x01000008
    1cec:	0000aa0b 	.word	0x0000aa0b
    1cf0:	74910200 	.word	0x74910200
    1cf4:	c5010a00 	.word	0xc5010a00
    1cf8:	01000008 	.word	0x01000008
    1cfc:	29e00111 	.word	0x29e00111
    1d00:	2a043005 	.word	0x2a043005
    1d04:	0b6c3005 	.word	0x0b6c3005
    1d08:	01000000 	.word	0x01000000
    1d0c:	bc080000 	.word	0xbc080000
    1d10:	01000008 	.word	0x01000008
    1d14:	0000aa10 	.word	0x0000aa10
    1d18:	74910200 	.word	0x74910200
    1d1c:	88010700 	.word	0x88010700
    1d20:	01000008 	.word	0x01000008
    1d24:	004f0116 	.word	0x004f0116
    1d28:	2a040000 	.word	0x2a040000
    1d2c:	2a443005 	.word	0x2a443005
    1d30:	0b973005 	.word	0x0b973005
    1d34:	013a0000 	.word	0x013a0000
    1d38:	bc080000 	.word	0xbc080000
    1d3c:	01000008 	.word	0x01000008
    1d40:	0000aa15 	.word	0x0000aa15
    1d44:	6c910200 	.word	0x6c910200
    1d48:	00084308 	.word	0x00084308
    1d4c:	6e150100 	.word	0x6e150100
    1d50:	02000000 	.word	0x02000000
    1d54:	07006891 	.word	0x07006891
    1d58:	00089601 	.word	0x00089601
    1d5c:	011b0100 	.word	0x011b0100
    1d60:	0000006e 	.word	0x0000006e
    1d64:	30052a44 	.word	0x30052a44
    1d68:	30052a80 	.word	0x30052a80
    1d6c:	00000bc2 	.word	0x00000bc2
    1d70:	00000166 	.word	0x00000166
    1d74:	0008bc08 	.word	0x0008bc08
    1d78:	aa1a0100 	.word	0xaa1a0100
    1d7c:	02000000 	.word	0x02000000
    1d80:	07007491 	.word	0x07007491
    1d84:	00086b01 	.word	0x00086b01
    1d88:	01200100 	.word	0x01200100
    1d8c:	0000006e 	.word	0x0000006e
    1d90:	30052a80 	.word	0x30052a80
    1d94:	30052abc 	.word	0x30052abc
    1d98:	00000bed 	.word	0x00000bed
    1d9c:	00000192 	.word	0x00000192
    1da0:	0008bc08 	.word	0x0008bc08
    1da4:	aa1f0100 	.word	0xaa1f0100
    1da8:	02000000 	.word	0x02000000
    1dac:	07007491 	.word	0x07007491
    1db0:	0008ae01 	.word	0x0008ae01
    1db4:	01250100 	.word	0x01250100
    1db8:	0000004f 	.word	0x0000004f
    1dbc:	30052abc 	.word	0x30052abc
    1dc0:	30052ae8 	.word	0x30052ae8
    1dc4:	00000c18 	.word	0x00000c18
    1dc8:	000001be 	.word	0x000001be
    1dcc:	0008bc08 	.word	0x0008bc08
    1dd0:	aa240100 	.word	0xaa240100
    1dd4:	02000000 	.word	0x02000000
    1dd8:	0b007491 	.word	0x0b007491
    1ddc:	00084801 	.word	0x00084801
    1de0:	012b0100 	.word	0x012b0100
    1de4:	0000004f 	.word	0x0000004f
    1de8:	30052ae8 	.word	0x30052ae8
    1dec:	30052b14 	.word	0x30052b14
    1df0:	00000c43 	.word	0x00000c43
    1df4:	0008bc08 	.word	0x0008bc08
    1df8:	aa2a0100 	.word	0xaa2a0100
    1dfc:	02000000 	.word	0x02000000
    1e00:	00007491 	.word	0x00007491
    1e04:	000001e3 	.word	0x000001e3
    1e08:	0b3c0002 	.word	0x0b3c0002
    1e0c:	01040000 	.word	0x01040000
    1e10:	000000ac 	.word	0x000000ac
    1e14:	00095a01 	.word	0x00095a01
    1e18:	0007e400 	.word	0x0007e400
    1e1c:	052b1400 	.word	0x052b1400
    1e20:	052c8830 	.word	0x052c8830
    1e24:	0007fb30 	.word	0x0007fb30
    1e28:	07040200 	.word	0x07040200
    1e2c:	00000042 	.word	0x00000042
    1e30:	5e080102 	.word	0x5e080102
    1e34:	02000000 	.word	0x02000000
    1e38:	008e0702 	.word	0x008e0702
    1e3c:	04020000 	.word	0x04020000
    1e40:	00003d07 	.word	0x00003d07
    1e44:	06010200 	.word	0x06010200
    1e48:	00000060 	.word	0x00000060
    1e4c:	2e050202 	.word	0x2e050202
    1e50:	03000000 	.word	0x03000000
    1e54:	6e690504 	.word	0x6e690504
    1e58:	08020074 	.word	0x08020074
    1e5c:	00000005 	.word	0x00000005
    1e60:	07080200 	.word	0x07080200
    1e64:	00000038 	.word	0x00000038
    1e68:	05050402 	.word	0x05050402
    1e6c:	04000000 	.word	0x04000000
    1e70:	04050704 	.word	0x04050704
    1e74:	67080102 	.word	0x67080102
    1e78:	06000000 	.word	0x06000000
    1e7c:	000008f6 	.word	0x000008f6
    1e80:	01070402 	.word	0x01070402
    1e84:	00000965 	.word	0x00000965
    1e88:	aa010701 	.word	0xaa010701
    1e8c:	14000000 	.word	0x14000000
    1e90:	4030052b 	.word	0x4030052b
    1e94:	6e30052b 	.word	0x6e30052b
    1e98:	aa00000c 	.word	0xaa00000c
    1e9c:	08000000 	.word	0x08000000
    1ea0:	000007b7 	.word	0x000007b7
    1ea4:	004f0601 	.word	0x004f0601
    1ea8:	91020000 	.word	0x91020000
    1eac:	04090074 	.word	0x04090074
    1eb0:	00000077 	.word	0x00000077
    1eb4:	0908010a 	.word	0x0908010a
    1eb8:	0c010000 	.word	0x0c010000
    1ebc:	052b4001 	.word	0x052b4001
    1ec0:	052b6430 	.word	0x052b6430
    1ec4:	000c9930 	.word	0x000c9930
    1ec8:	0000d800 	.word	0x0000d800
    1ecc:	08ff0800 	.word	0x08ff0800
    1ed0:	0b010000 	.word	0x0b010000
    1ed4:	000000aa 	.word	0x000000aa
    1ed8:	00749102 	.word	0x00749102
    1edc:	093b010a 	.word	0x093b010a
    1ee0:	11010000 	.word	0x11010000
    1ee4:	052b6401 	.word	0x052b6401
    1ee8:	052b8830 	.word	0x052b8830
    1eec:	000cc430 	.word	0x000cc430
    1ef0:	00010000 	.word	0x00010000
    1ef4:	08ff0800 	.word	0x08ff0800
    1ef8:	10010000 	.word	0x10010000
    1efc:	000000aa 	.word	0x000000aa
    1f00:	00749102 	.word	0x00749102
    1f04:	09190107 	.word	0x09190107
    1f08:	16010000 	.word	0x16010000
    1f0c:	00004f01 	.word	0x00004f01
    1f10:	052b8800 	.word	0x052b8800
    1f14:	052bd030 	.word	0x052bd030
    1f18:	000cef30 	.word	0x000cef30
    1f1c:	00013a00 	.word	0x00013a00
    1f20:	08ff0800 	.word	0x08ff0800
    1f24:	15010000 	.word	0x15010000
    1f28:	000000aa 	.word	0x000000aa
    1f2c:	086c9102 	.word	0x086c9102
    1f30:	00000843 	.word	0x00000843
    1f34:	006e1501 	.word	0x006e1501
    1f38:	91020000 	.word	0x91020000
    1f3c:	01070068 	.word	0x01070068
    1f40:	000008d4 	.word	0x000008d4
    1f44:	6e011b01 	.word	0x6e011b01
    1f48:	d0000000 	.word	0xd0000000
    1f4c:	0030052b 	.word	0x0030052b
    1f50:	1a30052c 	.word	0x1a30052c
    1f54:	6600000d 	.word	0x6600000d
    1f58:	08000001 	.word	0x08000001
    1f5c:	000008ff 	.word	0x000008ff
    1f60:	00aa1a01 	.word	0x00aa1a01
    1f64:	91020000 	.word	0x91020000
    1f68:	01070074 	.word	0x01070074
    1f6c:	000008e6 	.word	0x000008e6
    1f70:	6e012001 	.word	0x6e012001
    1f74:	00000000 	.word	0x00000000
    1f78:	3030052c 	.word	0x3030052c
    1f7c:	4530052c 	.word	0x4530052c
    1f80:	9200000d 	.word	0x9200000d
    1f84:	08000001 	.word	0x08000001
    1f88:	000008ff 	.word	0x000008ff
    1f8c:	00aa1f01 	.word	0x00aa1f01
    1f90:	91020000 	.word	0x91020000
    1f94:	01070074 	.word	0x01070074
    1f98:	0000094a 	.word	0x0000094a
    1f9c:	4f012501 	.word	0x4f012501
    1fa0:	30000000 	.word	0x30000000
    1fa4:	5c30052c 	.word	0x5c30052c
    1fa8:	7030052c 	.word	0x7030052c
    1fac:	be00000d 	.word	0xbe00000d
    1fb0:	08000001 	.word	0x08000001
    1fb4:	000008ff 	.word	0x000008ff
    1fb8:	00aa2401 	.word	0x00aa2401
    1fbc:	91020000 	.word	0x91020000
    1fc0:	010b0074 	.word	0x010b0074
    1fc4:	00000929 	.word	0x00000929
    1fc8:	4f012a01 	.word	0x4f012a01
    1fcc:	5c000000 	.word	0x5c000000
    1fd0:	8830052c 	.word	0x8830052c
    1fd4:	9b30052c 	.word	0x9b30052c
    1fd8:	0800000d 	.word	0x0800000d
    1fdc:	000008ff 	.word	0x000008ff
    1fe0:	00aa2901 	.word	0x00aa2901
    1fe4:	91020000 	.word	0x91020000
    1fe8:	2e000074 	.word	0x2e000074
    1fec:	02000003 	.word	0x02000003
    1ff0:	000be000 	.word	0x000be000
    1ff4:	ac010400 	.word	0xac010400
    1ff8:	01000000 	.word	0x01000000
    1ffc:	000005d8 	.word	0x000005d8
    2000:	00000991 	.word	0x00000991
    2004:	30052c88 	.word	0x30052c88
    2008:	30053024 	.word	0x30053024
    200c:	0000087b 	.word	0x0000087b
    2010:	42070402 	.word	0x42070402
    2014:	02000000 	.word	0x02000000
    2018:	005e0801 	.word	0x005e0801
    201c:	02020000 	.word	0x02020000
    2020:	00008e07 	.word	0x00008e07
    2024:	07040200 	.word	0x07040200
    2028:	0000003d 	.word	0x0000003d
    202c:	60060102 	.word	0x60060102
    2030:	02000000 	.word	0x02000000
    2034:	002e0502 	.word	0x002e0502
    2038:	04030000 	.word	0x04030000
    203c:	746e6905 	.word	0x746e6905
    2040:	05080200 	.word	0x05080200
    2044:	00000000 	.word	0x00000000
    2048:	38070802 	.word	0x38070802
    204c:	02000000 	.word	0x02000000
    2050:	00050504 	.word	0x00050504
    2054:	04040000 	.word	0x04040000
    2058:	08010207 	.word	0x08010207
    205c:	00000067 	.word	0x00000067
    2060:	00067705 	.word	0x00067705
    2064:	06040200 	.word	0x06040200
    2068:	0000064a 	.word	0x0000064a
    206c:	00870502 	.word	0x00870502
    2070:	7f070000 	.word	0x7f070000
    2074:	04000009 	.word	0x04000009
    2078:	00a20502 	.word	0x00a20502
    207c:	e6080000 	.word	0xe6080000
    2080:	02000006 	.word	0x02000006
    2084:	0000a208 	.word	0x0000a208
    2088:	00230200 	.word	0x00230200
    208c:	7c040900 	.word	0x7c040900
    2090:	07000000 	.word	0x07000000
    2094:	000009ba 	.word	0x000009ba
    2098:	d1060108 	.word	0xd1060108
    209c:	08000000 	.word	0x08000000
    20a0:	000005bf 	.word	0x000005bf
    20a4:	007c0701 	.word	0x007c0701
    20a8:	23020000 	.word	0x23020000
    20ac:	052a0800 	.word	0x052a0800
    20b0:	08010000 	.word	0x08010000
    20b4:	0000004f 	.word	0x0000004f
    20b8:	00042302 	.word	0x00042302
    20bc:	00097506 	.word	0x00097506
    20c0:	a8090100 	.word	0xa8090100
    20c4:	0a000000 	.word	0x0a000000
    20c8:	0005c701 	.word	0x0005c701
    20cc:	070c0100 	.word	0x070c0100
    20d0:	88000001 	.word	0x88000001
    20d4:	dc30052c 	.word	0xdc30052c
    20d8:	c630052c 	.word	0xc630052c
    20dc:	0700000d 	.word	0x0700000d
    20e0:	0b000001 	.word	0x0b000001
    20e4:	00746572 	.word	0x00746572
    20e8:	010d0d01 	.word	0x010d0d01
    20ec:	91020000 	.word	0x91020000
    20f0:	04090074 	.word	0x04090074
    20f4:	00000075 	.word	0x00000075
    20f8:	00d10409 	.word	0x00d10409
    20fc:	010c0000 	.word	0x010c0000
    2100:	00000622 	.word	0x00000622
    2104:	dc011901 	.word	0xdc011901
    2108:	0030052c 	.word	0x0030052c
    210c:	f130052d 	.word	0xf130052d
    2110:	3b00000d 	.word	0x3b00000d
    2114:	0d000001 	.word	0x0d000001
    2118:	0000069c 	.word	0x0000069c
    211c:	01071801 	.word	0x01071801
    2120:	91020000 	.word	0x91020000
    2124:	010c0074 	.word	0x010c0074
    2128:	00000603 	.word	0x00000603
    212c:	00011e01 	.word	0x00011e01
    2130:	4830052d 	.word	0x4830052d
    2134:	1c30052d 	.word	0x1c30052d
    2138:	7100000e 	.word	0x7100000e
    213c:	0d000001 	.word	0x0d000001
    2140:	0000069c 	.word	0x0000069c
    2144:	01071d01 	.word	0x01071d01
    2148:	91020000 	.word	0x91020000
    214c:	06960e6c 	.word	0x06960e6c
    2150:	1f010000 	.word	0x1f010000
    2154:	0000010d 	.word	0x0000010d
    2158:	00749102 	.word	0x00749102
    215c:	06a2010f 	.word	0x06a2010f
    2160:	29010000 	.word	0x29010000
    2164:	00004f01 	.word	0x00004f01
    2168:	052d4800 	.word	0x052d4800
    216c:	052d9430 	.word	0x052d9430
    2170:	000e4730 	.word	0x000e4730
    2174:	0001b900 	.word	0x0001b900
    2178:	069c0d00 	.word	0x069c0d00
    217c:	28010000 	.word	0x28010000
    2180:	00000107 	.word	0x00000107
    2184:	0e6c9102 	.word	0x0e6c9102
    2188:	00000696 	.word	0x00000696
    218c:	010d2a01 	.word	0x010d2a01
    2190:	91020000 	.word	0x91020000
    2194:	65720b70 	.word	0x65720b70
    2198:	2b010074 	.word	0x2b010074
    219c:	0000004f 	.word	0x0000004f
    21a0:	00749102 	.word	0x00749102
    21a4:	06b3010f 	.word	0x06b3010f
    21a8:	36010000 	.word	0x36010000
    21ac:	00004f01 	.word	0x00004f01
    21b0:	052d9400 	.word	0x052d9400
    21b4:	052e9830 	.word	0x052e9830
    21b8:	000e7230 	.word	0x000e7230
    21bc:	00024100 	.word	0x00024100
    21c0:	069c0d00 	.word	0x069c0d00
    21c4:	35010000 	.word	0x35010000
    21c8:	00000107 	.word	0x00000107
    21cc:	0d649102 	.word	0x0d649102
    21d0:	00000657 	.word	0x00000657
    21d4:	00a23501 	.word	0x00a23501
    21d8:	91020000 	.word	0x91020000
    21dc:	6f701060 	.word	0x6f701060
    21e0:	35010073 	.word	0x35010073
    21e4:	0000004f 	.word	0x0000004f
    21e8:	0e5c9102 	.word	0x0e5c9102
    21ec:	00000696 	.word	0x00000696
    21f0:	010d3701 	.word	0x010d3701
    21f4:	91020000 	.word	0x91020000
    21f8:	65720b68 	.word	0x65720b68
    21fc:	38010074 	.word	0x38010074
    2200:	0000004f 	.word	0x0000004f
    2204:	0b6c9102 	.word	0x0b6c9102
    2208:	39010069 	.word	0x39010069
    220c:	0000004f 	.word	0x0000004f
    2210:	11709102 	.word	0x11709102
    2214:	30052e08 	.word	0x30052e08
    2218:	30052e84 	.word	0x30052e84
    221c:	0006800e 	.word	0x0006800e
    2220:	a23d0100 	.word	0xa23d0100
    2224:	02000000 	.word	0x02000000
    2228:	00007491 	.word	0x00007491
    222c:	0689010f 	.word	0x0689010f
    2230:	4e010000 	.word	0x4e010000
    2234:	0000a201 	.word	0x0000a201
    2238:	052e9800 	.word	0x052e9800
    223c:	052f4c30 	.word	0x052f4c30
    2240:	000e9d30 	.word	0x000e9d30
    2244:	0002bb00 	.word	0x0002bb00
    2248:	069c0d00 	.word	0x069c0d00
    224c:	4d010000 	.word	0x4d010000
    2250:	00000107 	.word	0x00000107
    2254:	10649102 	.word	0x10649102
    2258:	00736f70 	.word	0x00736f70
    225c:	004f4d01 	.word	0x004f4d01
    2260:	91020000 	.word	0x91020000
    2264:	06960e60 	.word	0x06960e60
    2268:	4f010000 	.word	0x4f010000
    226c:	0000010d 	.word	0x0000010d
    2270:	0b689102 	.word	0x0b689102
    2274:	00746572 	.word	0x00746572
    2278:	00a25001 	.word	0x00a25001
    227c:	91020000 	.word	0x91020000
    2280:	00690b6c 	.word	0x00690b6c
    2284:	004f5101 	.word	0x004f5101
    2288:	91020000 	.word	0x91020000
    228c:	2ef01170 	.word	0x2ef01170
    2290:	2f383005 	.word	0x2f383005
    2294:	800e3005 	.word	0x800e3005
    2298:	01000006 	.word	0x01000006
    229c:	0000a255 	.word	0x0000a255
    22a0:	74910200 	.word	0x74910200
    22a4:	01120000 	.word	0x01120000
    22a8:	00000634 	.word	0x00000634
    22ac:	a2016301 	.word	0xa2016301
    22b0:	4c000000 	.word	0x4c000000
    22b4:	2430052f 	.word	0x2430052f
    22b8:	c8300530 	.word	0xc8300530
    22bc:	0d00000e 	.word	0x0d00000e
    22c0:	0000069c 	.word	0x0000069c
    22c4:	01076201 	.word	0x01076201
    22c8:	91020000 	.word	0x91020000
    22cc:	6f701064 	.word	0x6f701064
    22d0:	62010073 	.word	0x62010073
    22d4:	0000004f 	.word	0x0000004f
    22d8:	0e609102 	.word	0x0e609102
    22dc:	00000696 	.word	0x00000696
    22e0:	010d6401 	.word	0x010d6401
    22e4:	91020000 	.word	0x91020000
    22e8:	65720b68 	.word	0x65720b68
    22ec:	65010074 	.word	0x65010074
    22f0:	000000a2 	.word	0x000000a2
    22f4:	0b6c9102 	.word	0x0b6c9102
    22f8:	66010069 	.word	0x66010069
    22fc:	0000004f 	.word	0x0000004f
    2300:	11709102 	.word	0x11709102
    2304:	30052fa4 	.word	0x30052fa4
    2308:	30053010 	.word	0x30053010
    230c:	0006800e 	.word	0x0006800e
    2310:	a26a0100 	.word	0xa26a0100
    2314:	02000000 	.word	0x02000000
    2318:	00007491 	.word	0x00007491
    231c:	00025d00 	.word	0x00025d00
    2320:	f5000200 	.word	0xf5000200
    2324:	0400000c 	.word	0x0400000c
    2328:	0000ac01 	.word	0x0000ac01
    232c:	09fa0100 	.word	0x09fa0100
    2330:	09910000 	.word	0x09910000
    2334:	30240000 	.word	0x30240000
    2338:	32443005 	.word	0x32443005
    233c:	09273005 	.word	0x09273005
    2340:	04020000 	.word	0x04020000
    2344:	00004207 	.word	0x00004207
    2348:	08010200 	.word	0x08010200
    234c:	0000005e 	.word	0x0000005e
    2350:	8e070202 	.word	0x8e070202
    2354:	02000000 	.word	0x02000000
    2358:	003d0704 	.word	0x003d0704
    235c:	01020000 	.word	0x01020000
    2360:	00006006 	.word	0x00006006
    2364:	05020200 	.word	0x05020200
    2368:	0000002e 	.word	0x0000002e
    236c:	69050403 	.word	0x69050403
    2370:	0200746e 	.word	0x0200746e
    2374:	00000508 	.word	0x00000508
    2378:	08020000 	.word	0x08020000
    237c:	00003807 	.word	0x00003807
    2380:	05040200 	.word	0x05040200
    2384:	00000005 	.word	0x00000005
    2388:	05070404 	.word	0x05070404
    238c:	08010204 	.word	0x08010204
    2390:	00000067 	.word	0x00000067
    2394:	000a4206 	.word	0x000a4206
    2398:	07040300 	.word	0x07040300
    239c:	0000064a 	.word	0x0000064a
    23a0:	00890502 	.word	0x00890502
    23a4:	7f080000 	.word	0x7f080000
    23a8:	04000009 	.word	0x04000009
    23ac:	00a40502 	.word	0x00a40502
    23b0:	e6090000 	.word	0xe6090000
    23b4:	02000006 	.word	0x02000006
    23b8:	0000a408 	.word	0x0000a408
    23bc:	00230200 	.word	0x00230200
    23c0:	7e040a00 	.word	0x7e040a00
    23c4:	08000000 	.word	0x08000000
    23c8:	000009e7 	.word	0x000009e7
    23cc:	d3080108 	.word	0xd3080108
    23d0:	09000000 	.word	0x09000000
    23d4:	000005bf 	.word	0x000005bf
    23d8:	007e0901 	.word	0x007e0901
    23dc:	23020000 	.word	0x23020000
    23e0:	08430900 	.word	0x08430900
    23e4:	0a010000 	.word	0x0a010000
    23e8:	0000006e 	.word	0x0000006e
    23ec:	00042302 	.word	0x00042302
    23f0:	000a5607 	.word	0x000a5607
    23f4:	aa0b0100 	.word	0xaa0b0100
    23f8:	0b000000 	.word	0x0b000000
    23fc:	0009c801 	.word	0x0009c801
    2400:	f60e0100 	.word	0xf60e0100
    2404:	24000000 	.word	0x24000000
    2408:	44300530 	.word	0x44300530
    240c:	f3300530 	.word	0xf3300530
    2410:	0a00000e 	.word	0x0a00000e
    2414:	00007704 	.word	0x00007704
    2418:	65010c00 	.word	0x65010c00
    241c:	0100000a 	.word	0x0100000a
    2420:	30440113 	.word	0x30440113
    2424:	30703005 	.word	0x30703005
    2428:	0f1e3005 	.word	0x0f1e3005
    242c:	01240000 	.word	0x01240000
    2430:	4c0d0000 	.word	0x4c0d0000
    2434:	0100000a 	.word	0x0100000a
    2438:	0000f612 	.word	0x0000f612
    243c:	74910200 	.word	0x74910200
    2440:	24010c00 	.word	0x24010c00
    2444:	0100000a 	.word	0x0100000a
    2448:	30700119 	.word	0x30700119
    244c:	30ac3005 	.word	0x30ac3005
    2450:	0f493005 	.word	0x0f493005
    2454:	014c0000 	.word	0x014c0000
    2458:	4c0d0000 	.word	0x4c0d0000
    245c:	0100000a 	.word	0x0100000a
    2460:	0000f618 	.word	0x0000f618
    2464:	74910200 	.word	0x74910200
    2468:	06010e00 	.word	0x06010e00
    246c:	0100000a 	.word	0x0100000a
    2470:	004f0121 	.word	0x004f0121
    2474:	30ac0000 	.word	0x30ac0000
    2478:	31603005 	.word	0x31603005
    247c:	0f743005 	.word	0x0f743005
    2480:	01a20000 	.word	0x01a20000
    2484:	4c0d0000 	.word	0x4c0d0000
    2488:	0100000a 	.word	0x0100000a
    248c:	0000f620 	.word	0x0000f620
    2490:	6c910200 	.word	0x6c910200
    2494:	0008430d 	.word	0x0008430d
    2498:	6e200100 	.word	0x6e200100
    249c:	02000000 	.word	0x02000000
    24a0:	570f6891 	.word	0x570f6891
    24a4:	01000006 	.word	0x01000006
    24a8:	0001a222 	.word	0x0001a222
    24ac:	70910200 	.word	0x70910200
    24b0:	74657210 	.word	0x74657210
    24b4:	4f230100 	.word	0x4f230100
    24b8:	02000000 	.word	0x02000000
    24bc:	0a007491 	.word	0x0a007491
    24c0:	0000d304 	.word	0x0000d304
    24c4:	d9010e00 	.word	0xd9010e00
    24c8:	01000009 	.word	0x01000009
    24cc:	006e0134 	.word	0x006e0134
    24d0:	31600000 	.word	0x31600000
    24d4:	31c03005 	.word	0x31c03005
    24d8:	0f9f3005 	.word	0x0f9f3005
    24dc:	01f00000 	.word	0x01f00000
    24e0:	4c0d0000 	.word	0x4c0d0000
    24e4:	0100000a 	.word	0x0100000a
    24e8:	0000f633 	.word	0x0000f633
    24ec:	6c910200 	.word	0x6c910200
    24f0:	0006570f 	.word	0x0006570f
    24f4:	a2350100 	.word	0xa2350100
    24f8:	02000001 	.word	0x02000001
    24fc:	72107091 	.word	0x72107091
    2500:	01007465 	.word	0x01007465
    2504:	00006e36 	.word	0x00006e36
    2508:	74910200 	.word	0x74910200
    250c:	34010e00 	.word	0x34010e00
    2510:	0100000a 	.word	0x0100000a
    2514:	006e0143 	.word	0x006e0143
    2518:	31c00000 	.word	0x31c00000
    251c:	32183005 	.word	0x32183005
    2520:	0fca3005 	.word	0x0fca3005
    2524:	02380000 	.word	0x02380000
    2528:	4c0d0000 	.word	0x4c0d0000
    252c:	0100000a 	.word	0x0100000a
    2530:	0000f642 	.word	0x0000f642
    2534:	6c910200 	.word	0x6c910200
    2538:	0006570f 	.word	0x0006570f
    253c:	a2440100 	.word	0xa2440100
    2540:	02000001 	.word	0x02000001
    2544:	72107091 	.word	0x72107091
    2548:	01007465 	.word	0x01007465
    254c:	00006e45 	.word	0x00006e45
    2550:	74910200 	.word	0x74910200
    2554:	15011100 	.word	0x15011100
    2558:	0100000a 	.word	0x0100000a
    255c:	004f0150 	.word	0x004f0150
    2560:	32180000 	.word	0x32180000
    2564:	32443005 	.word	0x32443005
    2568:	0ff53005 	.word	0x0ff53005
    256c:	4c0d0000 	.word	0x4c0d0000
    2570:	0100000a 	.word	0x0100000a
    2574:	0000f64f 	.word	0x0000f64f
    2578:	74910200 	.word	0x74910200
    257c:	025a0000 	.word	0x025a0000
    2580:	00020000 	.word	0x00020000
    2584:	00000df7 	.word	0x00000df7
    2588:	00ac0104 	.word	0x00ac0104
    258c:	e9010000 	.word	0xe9010000
    2590:	9100000a 	.word	0x9100000a
    2594:	44000009 	.word	0x44000009
    2598:	dc300532 	.word	0xdc300532
    259c:	c8300534 	.word	0xc8300534
    25a0:	02000009 	.word	0x02000009
    25a4:	00420704 	.word	0x00420704
    25a8:	01020000 	.word	0x01020000
    25ac:	00005e08 	.word	0x00005e08
    25b0:	07020200 	.word	0x07020200
    25b4:	0000008e 	.word	0x0000008e
    25b8:	3d070402 	.word	0x3d070402
    25bc:	02000000 	.word	0x02000000
    25c0:	00600601 	.word	0x00600601
    25c4:	02020000 	.word	0x02020000
    25c8:	00002e05 	.word	0x00002e05
    25cc:	05040300 	.word	0x05040300
    25d0:	00746e69 	.word	0x00746e69
    25d4:	00050802 	.word	0x00050802
    25d8:	02000000 	.word	0x02000000
    25dc:	00380708 	.word	0x00380708
    25e0:	04020000 	.word	0x04020000
    25e4:	00000505 	.word	0x00000505
    25e8:	07040400 	.word	0x07040400
    25ec:	01020405 	.word	0x01020405
    25f0:	00006708 	.word	0x00006708
    25f4:	064a0600 	.word	0x064a0600
    25f8:	05020000 	.word	0x05020000
    25fc:	00000082 	.word	0x00000082
    2600:	00097f07 	.word	0x00097f07
    2604:	05020400 	.word	0x05020400
    2608:	0000009d 	.word	0x0000009d
    260c:	0006e608 	.word	0x0006e608
    2610:	9d080200 	.word	0x9d080200
    2614:	02000000 	.word	0x02000000
    2618:	09000023 	.word	0x09000023
    261c:	00007704 	.word	0x00007704
    2620:	0a9b0a00 	.word	0x0a9b0a00
    2624:	04030000 	.word	0x04030000
    2628:	000af507 	.word	0x000af507
    262c:	08010800 	.word	0x08010800
    2630:	000000d3 	.word	0x000000d3
    2634:	0005bf08 	.word	0x0005bf08
    2638:	77090100 	.word	0x77090100
    263c:	02000000 	.word	0x02000000
    2640:	43080023 	.word	0x43080023
    2644:	01000008 	.word	0x01000008
    2648:	00006e0a 	.word	0x00006e0a
    264c:	04230200 	.word	0x04230200
    2650:	d8010b00 	.word	0xd8010b00
    2654:	0100000a 	.word	0x0100000a
    2658:	0000eb0e 	.word	0x0000eb0e
    265c:	05324400 	.word	0x05324400
    2660:	05326430 	.word	0x05326430
    2664:	00102030 	.word	0x00102030
    2668:	a3040900 	.word	0xa3040900
    266c:	0c000000 	.word	0x0c000000
    2670:	000ab601 	.word	0x000ab601
    2674:	01130100 	.word	0x01130100
    2678:	30053264 	.word	0x30053264
    267c:	3005329c 	.word	0x3005329c
    2680:	0000104b 	.word	0x0000104b
    2684:	00000119 	.word	0x00000119
    2688:	000b080d 	.word	0x000b080d
    268c:	eb120100 	.word	0xeb120100
    2690:	02000000 	.word	0x02000000
    2694:	0c007491 	.word	0x0c007491
    2698:	000ac801 	.word	0x000ac801
    269c:	011c0100 	.word	0x011c0100
    26a0:	3005329c 	.word	0x3005329c
    26a4:	30053320 	.word	0x30053320
    26a8:	00001076 	.word	0x00001076
    26ac:	0000014f 	.word	0x0000014f
    26b0:	000b080d 	.word	0x000b080d
    26b4:	eb1b0100 	.word	0xeb1b0100
    26b8:	02000000 	.word	0x02000000
    26bc:	570e6c91 	.word	0x570e6c91
    26c0:	01000006 	.word	0x01000006
    26c4:	00009d1d 	.word	0x00009d1d
    26c8:	74910200 	.word	0x74910200
    26cc:	12010f00 	.word	0x12010f00
    26d0:	0100000b 	.word	0x0100000b
    26d4:	004f012d 	.word	0x004f012d
    26d8:	33200000 	.word	0x33200000
    26dc:	33d03005 	.word	0x33d03005
    26e0:	10a13005 	.word	0x10a13005
    26e4:	01a50000 	.word	0x01a50000
    26e8:	080d0000 	.word	0x080d0000
    26ec:	0100000b 	.word	0x0100000b
    26f0:	0000eb2c 	.word	0x0000eb2c
    26f4:	6c910200 	.word	0x6c910200
    26f8:	0008430d 	.word	0x0008430d
    26fc:	6e2c0100 	.word	0x6e2c0100
    2700:	02000000 	.word	0x02000000
    2704:	72106891 	.word	0x72106891
    2708:	01007465 	.word	0x01007465
    270c:	00004f2e 	.word	0x00004f2e
    2710:	70910200 	.word	0x70910200
    2714:	0006570e 	.word	0x0006570e
    2718:	9d2f0100 	.word	0x9d2f0100
    271c:	02000000 	.word	0x02000000
    2720:	0f007491 	.word	0x0f007491
    2724:	000a7701 	.word	0x000a7701
    2728:	01460100 	.word	0x01460100
    272c:	0000006e 	.word	0x0000006e
    2730:	300533d0 	.word	0x300533d0
    2734:	30053444 	.word	0x30053444
    2738:	000010cc 	.word	0x000010cc
    273c:	000001ed 	.word	0x000001ed
    2740:	000b080d 	.word	0x000b080d
    2744:	eb450100 	.word	0xeb450100
    2748:	02000000 	.word	0x02000000
    274c:	72106c91 	.word	0x72106c91
    2750:	01007465 	.word	0x01007465
    2754:	00006e47 	.word	0x00006e47
    2758:	70910200 	.word	0x70910200
    275c:	0006570e 	.word	0x0006570e
    2760:	9d480100 	.word	0x9d480100
    2764:	02000000 	.word	0x02000000
    2768:	0f007491 	.word	0x0f007491
    276c:	000aa501 	.word	0x000aa501
    2770:	01590100 	.word	0x01590100
    2774:	0000006e 	.word	0x0000006e
    2778:	30053444 	.word	0x30053444
    277c:	300534b0 	.word	0x300534b0
    2780:	000010f7 	.word	0x000010f7
    2784:	00000235 	.word	0x00000235
    2788:	000b080d 	.word	0x000b080d
    278c:	eb580100 	.word	0xeb580100
    2790:	02000000 	.word	0x02000000
    2794:	72106c91 	.word	0x72106c91
    2798:	01007465 	.word	0x01007465
    279c:	00006e5a 	.word	0x00006e5a
    27a0:	70910200 	.word	0x70910200
    27a4:	0006570e 	.word	0x0006570e
    27a8:	9d5b0100 	.word	0x9d5b0100
    27ac:	02000000 	.word	0x02000000
    27b0:	11007491 	.word	0x11007491
    27b4:	000a8a01 	.word	0x000a8a01
    27b8:	016a0100 	.word	0x016a0100
    27bc:	0000004f 	.word	0x0000004f
    27c0:	300534b0 	.word	0x300534b0
    27c4:	300534dc 	.word	0x300534dc
    27c8:	00001122 	.word	0x00001122
    27cc:	000b080d 	.word	0x000b080d
    27d0:	eb690100 	.word	0xeb690100
    27d4:	02000000 	.word	0x02000000
    27d8:	00007491 	.word	0x00007491
    27dc:	0000011d 	.word	0x0000011d
    27e0:	0ef90002 	.word	0x0ef90002
    27e4:	01040000 	.word	0x01040000
    27e8:	000000ac 	.word	0x000000ac
    27ec:	000b8501 	.word	0x000b8501
    27f0:	000b2300 	.word	0x000b2300
    27f4:	05a77c00 	.word	0x05a77c00
    27f8:	05a80c30 	.word	0x05a80c30
    27fc:	000a7730 	.word	0x000a7730
    2800:	07040200 	.word	0x07040200
    2804:	00000042 	.word	0x00000042
    2808:	5e080102 	.word	0x5e080102
    280c:	02000000 	.word	0x02000000
    2810:	008e0702 	.word	0x008e0702
    2814:	04020000 	.word	0x04020000
    2818:	00003d07 	.word	0x00003d07
    281c:	06010200 	.word	0x06010200
    2820:	00000060 	.word	0x00000060
    2824:	2e050202 	.word	0x2e050202
    2828:	03000000 	.word	0x03000000
    282c:	6e690504 	.word	0x6e690504
    2830:	08020074 	.word	0x08020074
    2834:	00000005 	.word	0x00000005
    2838:	07080200 	.word	0x07080200
    283c:	00000038 	.word	0x00000038
    2840:	05050402 	.word	0x05050402
    2844:	04000000 	.word	0x04000000
    2848:	04050704 	.word	0x04050704
    284c:	67080102 	.word	0x67080102
    2850:	06000000 	.word	0x06000000
    2854:	0000064a 	.word	0x0000064a
    2858:	00820502 	.word	0x00820502
    285c:	7f070000 	.word	0x7f070000
    2860:	04000009 	.word	0x04000009
    2864:	009d0502 	.word	0x009d0502
    2868:	e6080000 	.word	0xe6080000
    286c:	02000006 	.word	0x02000006
    2870:	00009d08 	.word	0x00009d08
    2874:	00230200 	.word	0x00230200
    2878:	77040900 	.word	0x77040900
    287c:	07000000 	.word	0x07000000
    2880:	00000b42 	.word	0x00000b42
    2884:	cc080108 	.word	0xcc080108
    2888:	08000000 	.word	0x08000000
    288c:	000006e6 	.word	0x000006e6
    2890:	009d0901 	.word	0x009d0901
    2894:	23020000 	.word	0x23020000
    2898:	0b770800 	.word	0x0b770800
    289c:	0a010000 	.word	0x0a010000
    28a0:	0000004f 	.word	0x0000004f
    28a4:	00042302 	.word	0x00042302
    28a8:	000b4306 	.word	0x000b4306
    28ac:	a30b0100 	.word	0xa30b0100
    28b0:	0a000000 	.word	0x0a000000
    28b4:	000b6a01 	.word	0x000b6a01
    28b8:	7c0f0100 	.word	0x7c0f0100
    28bc:	0c3005a7 	.word	0x0c3005a7
    28c0:	4d3005a8 	.word	0x4d3005a8
    28c4:	1a000011 	.word	0x1a000011
    28c8:	0b000001 	.word	0x0b000001
    28cc:	00000b55 	.word	0x00000b55
    28d0:	006e1001 	.word	0x006e1001
    28d4:	91020000 	.word	0x91020000
    28d8:	0b7f0b68 	.word	0x0b7f0b68
    28dc:	12010000 	.word	0x12010000
    28e0:	000000cc 	.word	0x000000cc
    28e4:	0b609102 	.word	0x0b609102
    28e8:	00000b61 	.word	0x00000b61
    28ec:	011a1601 	.word	0x011a1601
    28f0:	91020000 	.word	0x91020000
    28f4:	0409006c 	.word	0x0409006c
    28f8:	000000cc 	.word	0x000000cc
	...
Disassembly of section .debug_abbrev:

00000000 <.debug_abbrev>:
   0:	10001101 	andne	r1, r0, r1, lsl #2
   4:	12011106 	andne	r1, r1, #-2147483647	; 0x80000001
   8:	1b080301 	blne	200c14 <_start-0x2fe4f3ec>
   c:	13082508 	movwne	r2, #34056	; 0x8508
  10:	00000005 	andeq	r0, r0, r5
  14:	25011101 	strcs	r1, [r1, #-257]
  18:	030b130e 	movweq	r1, #45838	; 0xb30e
  1c:	110e1b0e 	tstne	lr, lr, lsl #22
  20:	10011201 	andne	r1, r1, r1, lsl #4
  24:	02000006 	andeq	r0, r0, #6	; 0x6
  28:	0b0b0024 	bleq	2c00c0 <_start-0x2fd8ff40>
  2c:	0e030b3e 	vmoveq.16	d3[0], r0
  30:	24030000 	strcs	r0, [r3]
  34:	3e0b0b00 	fmacdcc	d0, d11, d0
  38:	0008030b 	andeq	r0, r8, fp, lsl #6
  3c:	00240400 	eoreq	r0, r4, r0, lsl #8
  40:	0b3e0b0b 	bleq	f82c74 <_start-0x2f0cd38c>
  44:	2e050000 	cdpcs	0, 0, cr0, cr5, cr0, {0}
  48:	030c3f01 	movweq	r3, #52993	; 0xcf01
  4c:	3b0b3a0e 	blcc	2ce88c <_start-0x2fd81774>
  50:	490c270b 	stmdbmi	ip, {r0, r1, r3, r8, r9, sl, sp}
  54:	12011113 	andne	r1, r1, #-1073741820	; 0xc0000004
  58:	01064001 	tsteq	r6, r1
  5c:	06000013 	undefined
  60:	08030005 	stmdaeq	r3, {r0, r2}
  64:	0b3b0b3a 	bleq	ec2d54 <_start-0x2f18d2ac>
  68:	0a021349 	beq	84d94 <_start-0x2ffcb26c>
  6c:	2e070000 	cdpcs	0, 0, cr0, cr7, cr0, {0}
  70:	030c3f01 	movweq	r3, #52993	; 0xcf01
  74:	3b0b3a0e 	blcc	2ce8b4 <_start-0x2fd8174c>
  78:	1113490b 	tstne	r3, fp, lsl #18
  7c:	40011201 	andmi	r1, r1, r1, lsl #4
  80:	00130106 	andseq	r0, r3, r6, lsl #2
  84:	00340800 	eorseq	r0, r4, r0, lsl #16
  88:	0b3a0e03 	bleq	e8389c <_start-0x2f1cc764>
  8c:	13490b3b 	movtne	r0, #39739	; 0x9b3b
  90:	00000a02 	andeq	r0, r0, r2, lsl #20
  94:	03003409 	movweq	r3, #1033	; 0x409
  98:	3b0b3a08 	blcc	2ce8c0 <_start-0x2fd81740>
  9c:	0213490b 	andseq	r4, r3, #180224	; 0x2c000
  a0:	0a00000a 	beq	d0 <_start-0x3004ff30>
  a4:	0111010b 	tsteq	r1, fp, lsl #2
  a8:	00000112 	andeq	r0, r0, r2, lsl r1
  ac:	4901010b 	stmdbmi	r1, {r0, r1, r3, r8}
  b0:	00130113 	andseq	r0, r3, r3, lsl r1
  b4:	00210c00 	eoreq	r0, r1, r0, lsl #24
  b8:	0b2f1349 	bleq	bc4de4 <_start-0x2f48b21c>
  bc:	210d0000 	tstcs	sp, r0
  c0:	0e000000 	cdpeq	0, 0, cr0, cr0, cr0, {0}
  c4:	0e030034 	mcreq	0, 0, r0, cr3, cr4, {1}
  c8:	0b3b0b3a 	bleq	ec2db8 <_start-0x2f18d248>
  cc:	0c3f1349 	ldceq	3, cr1, [pc], #-292
  d0:	00000c3c 	andeq	r0, r0, ip, lsr ip
  d4:	0300340f 	movweq	r3, #1039	; 0x40f
  d8:	3b0b3a0e 	blcc	2ce918 <_start-0x2fd816e8>
  dc:	3f13490b 	svccc	0x0013490b
  e0:	000a020c 	andeq	r0, sl, ip, lsl #4
  e4:	11010000 	tstne	r1, r0
  e8:	130e2501 	movwne	r2, #58625	; 0xe501
  ec:	1b0e030b 	blne	380d20 <_start-0x2fccf2e0>
  f0:	1201110e 	andne	r1, r1, #-2147483645	; 0x80000003
  f4:	00061001 	andeq	r1, r6, r1
  f8:	00240200 	eoreq	r0, r4, r0, lsl #4
  fc:	0b3e0b0b 	bleq	f82d30 <_start-0x2f0cd2d0>
 100:	00000e03 	andeq	r0, r0, r3, lsl #28
 104:	0b002403 	bleq	9118 <_start-0x30046ee8>
 108:	030b3e0b 	movweq	r3, #48651	; 0xbe0b
 10c:	04000008 	streq	r0, [r0], #-8
 110:	0b0b0024 	bleq	2c01a8 <_start-0x2fd8fe58>
 114:	00000b3e 	andeq	r0, r0, lr, lsr fp
 118:	0b000f05 	bleq	3d34 <_start-0x3004c2cc>
 11c:	0013490b 	andseq	r4, r3, fp, lsl #18
 120:	01040600 	tsteq	r4, r0, lsl #12
 124:	0b0b0e03 	bleq	2c3938 <_start-0x2fd8c6c8>
 128:	0b3b0b3a 	bleq	ec2e18 <_start-0x2f18d1e8>
 12c:	00001301 	andeq	r1, r0, r1, lsl #6
 130:	03002807 	movweq	r2, #2055	; 0x807
 134:	000d1c0e 	andeq	r1, sp, lr, lsl #24
 138:	00160800 	andseq	r0, r6, r0, lsl #16
 13c:	0b3a0e03 	bleq	e83950 <_start-0x2f1cc6b0>
 140:	13490b3b 	movtne	r0, #39739	; 0x9b3b
 144:	13090000 	movwne	r0, #36864	; 0x9000
 148:	0b0e0301 	bleq	380d54 <_start-0x2fccf2ac>
 14c:	3b0b3a0b 	blcc	2ce980 <_start-0x2fd81680>
 150:	0013010b 	andseq	r0, r3, fp, lsl #2
 154:	000d0a00 	andeq	r0, sp, r0, lsl #20
 158:	0b3a0e03 	bleq	e8396c <_start-0x2f1cc694>
 15c:	13490b3b 	movtne	r0, #39739	; 0x9b3b
 160:	00000a38 	andeq	r0, r0, r8, lsr sl
 164:	2701150b 	strcs	r1, [r1, -fp, lsl #10]
 168:	0113490c 	tsteq	r3, ip, lsl #18
 16c:	0c000013 	stceq	0, cr0, [r0], {19}
 170:	13490005 	movtne	r0, #36869	; 0x9005
 174:	010d0000 	tsteq	sp, r0
 178:	01134901 	tsteq	r3, r1, lsl #18
 17c:	0e000013 	mcreq	0, 0, r0, cr0, cr3, {0}
 180:	13490021 	movtne	r0, #36897	; 0x9021
 184:	00000b2f 	andeq	r0, r0, pc, lsr #22
 188:	3f012e0f 	svccc	0x00012e0f
 18c:	3a0e030c 	bcc	380dc4 <_start-0x2fccf23c>
 190:	270b3b0b 	strcs	r3, [fp, -fp, lsl #22]
 194:	1113490c 	tstne	r3, ip, lsl #18
 198:	40011201 	andmi	r1, r1, r1, lsl #4
 19c:	00130106 	andseq	r0, r3, r6, lsl #2
 1a0:	00051000 	andeq	r1, r5, r0
 1a4:	0b3a0e03 	bleq	e839b8 <_start-0x2f1cc648>
 1a8:	13490b3b 	movtne	r0, #39739	; 0x9b3b
 1ac:	00000a02 	andeq	r0, r0, r2, lsl #20
 1b0:	03003411 	movweq	r3, #1041	; 0x411
 1b4:	3b0b3a0e 	blcc	2ce9f4 <_start-0x2fd8160c>
 1b8:	0213490b 	andseq	r4, r3, #180224	; 0x2c000
 1bc:	1200000a 	andne	r0, r0, #10	; 0xa
 1c0:	08030034 	stmdaeq	r3, {r2, r4, r5}
 1c4:	0b3b0b3a 	bleq	ec2eb4 <_start-0x2f18d14c>
 1c8:	0a021349 	beq	84ef4 <_start-0x2ffcb10c>
 1cc:	2e130000 	wxorcs	wr0, wr3, wr0
 1d0:	030c3f01 	movweq	r3, #52993	; 0xcf01
 1d4:	3b0b3a0e 	blcc	2cea14 <_start-0x2fd815ec>
 1d8:	110c270b 	tstne	ip, fp, lsl #14
 1dc:	40011201 	andmi	r1, r1, r1, lsl #4
 1e0:	00130106 	andseq	r0, r3, r6, lsl #2
 1e4:	00341400 	eorseq	r1, r4, r0, lsl #8
 1e8:	0b3a0e03 	bleq	e839fc <_start-0x2f1cc604>
 1ec:	13490b3b 	movtne	r0, #39739	; 0x9b3b
 1f0:	0a020c3f 	beq	832f4 <_start-0x2ffccd0c>
 1f4:	01000000 	tsteq	r0, r0
 1f8:	0e250111 	mcreq	1, 1, r0, cr5, cr1, {0}
 1fc:	0e030b13 	vmoveq.32	d3[0], r0
 200:	01110e1b 	tsteq	r1, fp, lsl lr
 204:	06100112 	undefined
 208:	24020000 	strcs	r0, [r2]
 20c:	3e0b0b00 	fmacdcc	d0, d11, d0
 210:	000e030b 	andeq	r0, lr, fp, lsl #6
 214:	00240300 	eoreq	r0, r4, r0, lsl #6
 218:	0b3e0b0b 	bleq	f82e4c <_start-0x2f0cd1b4>
 21c:	00000803 	andeq	r0, r0, r3, lsl #16
 220:	0b002404 	bleq	9238 <_start-0x30046dc8>
 224:	000b3e0b 	andeq	r3, fp, fp, lsl #28
 228:	01010500 	tsteq	r1, r0, lsl #10
 22c:	13011349 	movwne	r1, #4937	; 0x1349
 230:	21060000 	tstcs	r6, r0
 234:	2f134900 	svccs	0x00134900
 238:	0700000b 	streq	r0, [r0, -fp]
 23c:	0b0b000f 	bleq	2c0280 <_start-0x2fd8fd80>
 240:	00001349 	andeq	r1, r0, r9, asr #6
 244:	49002608 	stmdbmi	r0, {r3, r9, sl, sp}
 248:	09000013 	stmdbeq	r0, {r0, r1, r4}
 24c:	0e030104 	adfeqs	f0, f3, f4
 250:	0b3a0b0b 	bleq	e82e84 <_start-0x2f1cd17c>
 254:	13010b3b 	movwne	r0, #6971	; 0x1b3b
 258:	280a0000 	stmdacs	sl, {}
 25c:	1c0e0300 	stcne	3, cr0, [lr], {0}
 260:	0b00000d 	bleq	29c <_start-0x3004fd64>
 264:	0e030016 	mcreq	0, 0, r0, cr3, cr6, {0}
 268:	0b3b0b3a 	bleq	ec2f58 <_start-0x2f18d0a8>
 26c:	00001349 	andeq	r1, r0, r9, asr #6
 270:	0301130c 	movweq	r1, #4876	; 0x130c
 274:	3a0b0b0e 	bcc	2c2eb4 <_start-0x2fd8d14c>
 278:	010b3b0b 	tsteq	fp, fp, lsl #22
 27c:	0d000013 	stceq	0, cr0, [r0, #-76]
 280:	0e03000d 	cdpeq	0, 0, cr0, cr3, cr13, {0}
 284:	0b3b0b3a 	bleq	ec2f74 <_start-0x2f18d08c>
 288:	0a381349 	beq	e04fb4 <_start-0x2f24b04c>
 28c:	0d0e0000 	stceq	0, cr0, [lr]
 290:	3a080300 	bcc	200e98 <_start-0x2fe4f168>
 294:	490b3b0b 	stmdbmi	fp, {r0, r1, r3, r8, r9, fp, ip, sp}
 298:	000a3813 	andeq	r3, sl, r3, lsl r8
 29c:	01170f00 	tsteq	r7, r0, lsl #30
 2a0:	0b3a0b0b 	bleq	e82ed4 <_start-0x2f1cd12c>
 2a4:	13010b3b 	movwne	r0, #6971	; 0x1b3b
 2a8:	0d100000 	ldceq	0, cr0, [r0]
 2ac:	3a0e0300 	bcc	380eb4 <_start-0x2fccf14c>
 2b0:	490b3b0b 	stmdbmi	fp, {r0, r1, r3, r8, r9, fp, ip, sp}
 2b4:	11000013 	tstne	r0, r3, lsl r0
 2b8:	0803000d 	stmdaeq	r3, {r0, r2, r3}
 2bc:	0b3b0b3a 	bleq	ec2fac <_start-0x2f18d054>
 2c0:	00001349 	andeq	r1, r0, r9, asr #6
 2c4:	03001612 	movweq	r1, #1554	; 0x612
 2c8:	3b0b3a08 	blcc	2ceaf0 <_start-0x2fd81510>
 2cc:	0013490b 	andseq	r4, r3, fp, lsl #18
 2d0:	002e1300 	eoreq	r1, lr, r0, lsl #6
 2d4:	0e030c3f 	mcreq	12, 0, r0, cr3, cr15, {1}
 2d8:	0b3b0b3a 	bleq	ec2fc8 <_start-0x2f18d038>
 2dc:	01120111 	tsteq	r2, r1, lsl r1
 2e0:	00000640 	andeq	r0, r0, r0, asr #12
 2e4:	3f012e14 	svccc	0x00012e14
 2e8:	3a0e030c 	bcc	380f20 <_start-0x2fccf0e0>
 2ec:	110b3b0b 	tstne	fp, fp, lsl #22
 2f0:	40011201 	andmi	r1, r1, r1, lsl #4
 2f4:	00130106 	andseq	r0, r3, r6, lsl #2
 2f8:	00341500 	eorseq	r1, r4, r0, lsl #10
 2fc:	0b3a0e03 	bleq	e83b10 <_start-0x2f1cc4f0>
 300:	13490b3b 	movtne	r0, #39739	; 0x9b3b
 304:	00000a02 	andeq	r0, r0, r2, lsl #20
 308:	3f012e16 	svccc	0x00012e16
 30c:	3a0e030c 	bcc	380f44 <_start-0x2fccf0bc>
 310:	270b3b0b 	strcs	r3, [fp, -fp, lsl #22]
 314:	1113490c 	tstne	r3, ip, lsl #18
 318:	40011201 	andmi	r1, r1, r1, lsl #4
 31c:	00130106 	andseq	r0, r3, r6, lsl #2
 320:	00051700 	andeq	r1, r5, r0, lsl #14
 324:	0b3a0e03 	bleq	e83b38 <_start-0x2f1cc4c8>
 328:	13490b3b 	movtne	r0, #39739	; 0x9b3b
 32c:	00000a02 	andeq	r0, r0, r2, lsl #20
 330:	03003418 	movweq	r3, #1048	; 0x418
 334:	3b0b3a0e 	blcc	2ceb74 <_start-0x2fd8148c>
 338:	3f13490b 	svccc	0x0013490b
 33c:	000a020c 	andeq	r0, sl, ip, lsl #4
 340:	01151900 	tsteq	r5, r0, lsl #18
 344:	13010c27 	movwne	r0, #7207	; 0x1c27
 348:	051a0000 	ldreq	r0, [sl]
 34c:	00134900 	andseq	r4, r3, r0, lsl #18
 350:	11010000 	tstne	r1, r0
 354:	130e2501 	movwne	r2, #58625	; 0xe501
 358:	1b0e030b 	blne	380f8c <_start-0x2fccf074>
 35c:	1201110e 	andne	r1, r1, #-2147483645	; 0x80000003
 360:	00061001 	andeq	r1, r6, r1
 364:	002e0200 	eoreq	r0, lr, r0, lsl #4
 368:	0e030c3f 	mcreq	12, 0, r0, cr3, cr15, {1}
 36c:	0b3b0b3a 	bleq	ec305c <_start-0x2f18cfa4>
 370:	01120111 	tsteq	r2, r1, lsl r1
 374:	00000640 	andeq	r0, r0, r0, asr #12
 378:	3f012e03 	svccc	0x00012e03
 37c:	3a0e030c 	bcc	380fb4 <_start-0x2fccf04c>
 380:	270b3b0b 	strcs	r3, [fp, -fp, lsl #22]
 384:	1201110c 	andne	r1, r1, #3	; 0x3
 388:	01064001 	tsteq	r6, r1
 38c:	04000013 	streq	r0, [r0], #-19
 390:	08030005 	stmdaeq	r3, {r0, r2}
 394:	0b3b0b3a 	bleq	ec3084 <_start-0x2f18cf7c>
 398:	0a021349 	beq	850c4 <_start-0x2ffcaf3c>
 39c:	24050000 	strcs	r0, [r5]
 3a0:	3e0b0b00 	fmacdcc	d0, d11, d0
 3a4:	000e030b 	andeq	r0, lr, fp, lsl #6
 3a8:	00050600 	andeq	r0, r5, r0, lsl #12
 3ac:	0b3a0e03 	bleq	e83bc0 <_start-0x2f1cc440>
 3b0:	13490b3b 	movtne	r0, #39739	; 0x9b3b
 3b4:	00000a02 	andeq	r0, r0, r2, lsl #20
 3b8:	03003407 	movweq	r3, #1031	; 0x407
 3bc:	3b0b3a08 	blcc	2cebe4 <_start-0x2fd8141c>
 3c0:	0213490b 	andseq	r4, r3, #180224	; 0x2c000
 3c4:	0800000a 	stmdaeq	r0, {r1, r3}
 3c8:	0b0b000f 	bleq	2c040c <_start-0x2fd8fbf4>
 3cc:	00001349 	andeq	r1, r0, r9, asr #6
 3d0:	0b002409 	bleq	93fc <_start-0x30046c04>
 3d4:	030b3e0b 	movweq	r3, #48651	; 0xbe0b
 3d8:	0a000008 	beq	400 <_start-0x3004fc00>
 3dc:	0c3f012e 	ldfeqs	f0, [pc], #-184
 3e0:	0b3a0e03 	bleq	e83bf4 <_start-0x2f1cc40c>
 3e4:	0c270b3b 	stceq	11, cr0, [r7], #-236
 3e8:	01111349 	tsteq	r1, r9, asr #6
 3ec:	06400112 	undefined
 3f0:	00001301 	andeq	r1, r0, r1, lsl #6
 3f4:	3f012e0b 	svccc	0x00012e0b
 3f8:	3a0e030c 	bcc	381030 <_start-0x2fccefd0>
 3fc:	270b3b0b 	strcs	r3, [fp, -fp, lsl #22]
 400:	1113490c 	tstne	r3, ip, lsl #18
 404:	40011201 	andmi	r1, r1, r1, lsl #4
 408:	00000006 	andeq	r0, r0, r6
 40c:	25011101 	strcs	r1, [r1, #-257]
 410:	030b130e 	movweq	r1, #45838	; 0xb30e
 414:	110e1b0e 	tstne	lr, lr, lsl #22
 418:	10011201 	andne	r1, r1, r1, lsl #4
 41c:	02000006 	andeq	r0, r0, #6	; 0x6
 420:	0c3f012e 	ldfeqs	f0, [pc], #-184
 424:	0b3a0e03 	bleq	e83c38 <_start-0x2f1cc3c8>
 428:	0c270b3b 	stceq	11, cr0, [r7], #-236
 42c:	01120111 	tsteq	r2, r1, lsl r1
 430:	13010640 	movwne	r0, #5696	; 0x1640
 434:	05030000 	streq	r0, [r3]
 438:	3a080300 	bcc	201040 <_start-0x2fe4efc0>
 43c:	490b3b0b 	stmdbmi	fp, {r0, r1, r3, r8, r9, fp, ip, sp}
 440:	000a0213 	andeq	r0, sl, r3, lsl r2
 444:	00240400 	eoreq	r0, r4, r0, lsl #8
 448:	0b3e0b0b 	bleq	f8307c <_start-0x2f0ccf84>
 44c:	00000803 	andeq	r0, r0, r3, lsl #16
 450:	3f012e05 	svccc	0x00012e05
 454:	3a0e030c 	bcc	38108c <_start-0x2fccef74>
 458:	270b3b0b 	strcs	r3, [fp, -fp, lsl #22]
 45c:	1113490c 	tstne	r3, ip, lsl #18
 460:	40011201 	andmi	r1, r1, r1, lsl #4
 464:	00130106 	andseq	r0, r3, r6, lsl #2
 468:	00050600 	andeq	r0, r5, r0, lsl #12
 46c:	0b3a0e03 	bleq	e83c80 <_start-0x2f1cc380>
 470:	13490b3b 	movtne	r0, #39739	; 0x9b3b
 474:	00000a02 	andeq	r0, r0, r2, lsl #20
 478:	03003407 	movweq	r3, #1031	; 0x407
 47c:	3b0b3a08 	blcc	2ceca4 <_start-0x2fd8135c>
 480:	0213490b 	andseq	r4, r3, #180224	; 0x2c000
 484:	0800000a 	stmdaeq	r0, {r1, r3}
 488:	0e030034 	mcreq	0, 0, r0, cr3, cr4, {1}
 48c:	0b3b0b3a 	bleq	ec317c <_start-0x2f18ce84>
 490:	0a021349 	beq	851bc <_start-0x2ffcae44>
 494:	0f090000 	svceq	0x00090000
 498:	490b0b00 	stmdbmi	fp, {r8, r9, fp}
 49c:	0a000013 	beq	4f0 <_start-0x3004fb10>
 4a0:	0b0b0024 	bleq	2c0538 <_start-0x2fd8fac8>
 4a4:	0e030b3e 	vmoveq.16	d3[0], r0
 4a8:	01000000 	tsteq	r0, r0
 4ac:	0e250111 	mcreq	1, 1, r0, cr5, cr1, {0}
 4b0:	0e030b13 	vmoveq.32	d3[0], r0
 4b4:	01110e1b 	tsteq	r1, fp, lsl lr
 4b8:	06100112 	undefined
 4bc:	24020000 	strcs	r0, [r2]
 4c0:	3e0b0b00 	fmacdcc	d0, d11, d0
 4c4:	000e030b 	andeq	r0, lr, fp, lsl #6
 4c8:	00240300 	eoreq	r0, r4, r0, lsl #6
 4cc:	0b3e0b0b 	bleq	f83100 <_start-0x2f0ccf00>
 4d0:	00000803 	andeq	r0, r0, r3, lsl #16
 4d4:	0b002404 	bleq	94ec <_start-0x30046b14>
 4d8:	000b3e0b 	andeq	r3, fp, fp, lsl #28
 4dc:	000f0500 	andeq	r0, pc, r0, lsl #10
 4e0:	00000b0b 	andeq	r0, r0, fp, lsl #22
 4e4:	0b000f06 	bleq	4104 <_start-0x3004befc>
 4e8:	0013490b 	andseq	r4, r3, fp, lsl #18
 4ec:	012e0700 	teqeq	lr, r0, lsl #14
 4f0:	0e030c3f 	mcreq	12, 0, r0, cr3, cr15, {1}
 4f4:	0b3b0b3a 	bleq	ec31e4 <_start-0x2f18ce1c>
 4f8:	13490c27 	movtne	r0, #39975	; 0x9c27
 4fc:	01120111 	tsteq	r2, r1, lsl r1
 500:	13010640 	movwne	r0, #5696	; 0x1640
 504:	05080000 	streq	r0, [r8]
 508:	3a0e0300 	bcc	381110 <_start-0x2fcceef0>
 50c:	490b3b0b 	stmdbmi	fp, {r0, r1, r3, r8, r9, fp, ip, sp}
 510:	000a0213 	andeq	r0, sl, r3, lsl r2
 514:	00340900 	eorseq	r0, r4, r0, lsl #18
 518:	0b3a0803 	bleq	e8252c <_start-0x2f1cdad4>
 51c:	13490b3b 	movtne	r0, #39739	; 0x9b3b
 520:	00000a02 	andeq	r0, r0, r2, lsl #20
 524:	0300340a 	movweq	r3, #1034	; 0x40a
 528:	3b0b3a0e 	blcc	2ced68 <_start-0x2fd81298>
 52c:	0213490b 	andseq	r4, r3, #180224	; 0x2c000
 530:	0b00000a 	bleq	560 <_start-0x3004faa0>
 534:	0c3f012e 	ldfeqs	f0, [pc], #-184
 538:	0b3a0e03 	bleq	e83d4c <_start-0x2f1cc2b4>
 53c:	0c270b3b 	stceq	11, cr0, [r7], #-236
 540:	01120111 	tsteq	r2, r1, lsl r1
 544:	13010640 	movwne	r0, #5696	; 0x1640
 548:	010c0000 	tsteq	ip, r0
 54c:	01134901 	tsteq	r3, r1, lsl #18
 550:	0d000013 	stceq	0, cr0, [r0, #-76]
 554:	13490021 	movtne	r0, #36897	; 0x9021
 558:	00000b2f 	andeq	r0, r0, pc, lsr #22
 55c:	01110100 	tsteq	r1, r0, lsl #2
 560:	0b130e25 	bleq	4c3dfc <_start-0x2fb8c204>
 564:	0e1b0e03 	cdpeq	14, 1, cr0, cr11, cr3, {0}
 568:	01120111 	tsteq	r2, r1, lsl r1
 56c:	00000610 	andeq	r0, r0, r0, lsl r6
 570:	0b002402 	bleq	9580 <_start-0x30046a80>
 574:	030b3e0b 	movweq	r3, #48651	; 0xbe0b
 578:	0300000e 	movweq	r0, #14	; 0xe
 57c:	0c3f002e 	ldceq	0, cr0, [pc], #-184
 580:	0b3a0e03 	bleq	e83d94 <_start-0x2f1cc26c>
 584:	01110b3b 	tsteq	r1, fp, lsr fp
 588:	06400112 	undefined
 58c:	2e040000 	cdpcs	0, 0, cr0, cr4, cr0, {0}
 590:	030c3f01 	movweq	r3, #52993	; 0xcf01
 594:	3b0b3a0e 	blcc	2cedd4 <_start-0x2fd8122c>
 598:	490c270b 	stmdbmi	ip, {r0, r1, r3, r8, r9, sl, sp}
 59c:	12011113 	andne	r1, r1, #-1073741820	; 0xc0000004
 5a0:	01064001 	tsteq	r6, r1
 5a4:	05000013 	streq	r0, [r0, #-19]
 5a8:	0e030005 	cdpeq	0, 0, cr0, cr3, cr5, {0}
 5ac:	0b3b0b3a 	bleq	ec329c <_start-0x2f18cd64>
 5b0:	0a021349 	beq	852dc <_start-0x2ffcad24>
 5b4:	34060000 	strcc	r0, [r6]
 5b8:	3a0e0300 	bcc	3811c0 <_start-0x2fccee40>
 5bc:	490b3b0b 	stmdbmi	fp, {r0, r1, r3, r8, r9, fp, ip, sp}
 5c0:	000a0213 	andeq	r0, sl, r3, lsl r2
 5c4:	00340700 	eorseq	r0, r4, r0, lsl #14
 5c8:	0b3a0803 	bleq	e825dc <_start-0x2f1cda24>
 5cc:	13490b3b 	movtne	r0, #39739	; 0x9b3b
 5d0:	00000a02 	andeq	r0, r0, r2, lsl #20
 5d4:	0b002408 	bleq	95fc <_start-0x30046a04>
 5d8:	030b3e0b 	movweq	r3, #48651	; 0xbe0b
 5dc:	09000008 	stmdbeq	r0, {r3}
 5e0:	13490101 	movtne	r0, #37121	; 0x9101
 5e4:	00001301 	andeq	r1, r0, r1, lsl #6
 5e8:	4900210a 	stmdbmi	r0, {r1, r3, r8, sp}
 5ec:	000b2f13 	andeq	r2, fp, r3, lsl pc
 5f0:	00240b00 	eoreq	r0, r4, r0, lsl #22
 5f4:	0b3e0b0b 	bleq	f83228 <_start-0x2f0ccdd8>
 5f8:	0f0c0000 	svceq	0x000c0000
 5fc:	490b0b00 	stmdbmi	fp, {r8, r9, fp}
 600:	0d000013 	stceq	0, cr0, [r0, #-76]
 604:	13490026 	movtne	r0, #36902	; 0x9026
 608:	340e0000 	strcc	r0, [lr]
 60c:	3a0e0300 	bcc	381214 <_start-0x2fccedec>
 610:	490b3b0b 	stmdbmi	fp, {r0, r1, r3, r8, r9, fp, ip, sp}
 614:	020c3f13 	andeq	r3, ip, #76	; 0x4c
 618:	0000000a 	andeq	r0, r0, sl
 61c:	25011101 	strcs	r1, [r1, #-257]
 620:	030b130e 	movweq	r1, #45838	; 0xb30e
 624:	110e1b0e 	tstne	lr, lr, lsl #22
 628:	10011201 	andne	r1, r1, r1, lsl #4
 62c:	02000006 	andeq	r0, r0, #6	; 0x6
 630:	0e030104 	adfeqs	f0, f3, f4
 634:	0b3a0b0b 	bleq	e83268 <_start-0x2f1ccd98>
 638:	13010b3b 	movwne	r0, #6971	; 0x1b3b
 63c:	28030000 	stmdacs	r3, {}
 640:	1c0e0300 	stcne	3, cr0, [lr], {0}
 644:	0400000d 	streq	r0, [r0], #-13
 648:	0e030016 	mcreq	0, 0, r0, cr3, cr6, {0}
 64c:	0b3b0b3a 	bleq	ec333c <_start-0x2f18ccc4>
 650:	00001349 	andeq	r1, r0, r9, asr #6
 654:	0b002405 	bleq	9670 <_start-0x30046990>
 658:	030b3e0b 	movweq	r3, #48651	; 0xbe0b
 65c:	0600000e 	streq	r0, [r0], -lr
 660:	0b0b0024 	bleq	2c06f8 <_start-0x2fd8f908>
 664:	08030b3e 	stmdaeq	r3, {r1, r2, r3, r4, r5, r8, r9, fp}
 668:	2e070000 	cdpcs	0, 0, cr0, cr7, cr0, {0}
 66c:	030c3f01 	movweq	r3, #52993	; 0xcf01
 670:	3b0b3a0e 	blcc	2ceeb0 <_start-0x2fd81150>
 674:	110c270b 	tstne	ip, fp, lsl #14
 678:	40011201 	andmi	r1, r1, r1, lsl #4
 67c:	08000006 	stmdaeq	r0, {r1, r2}
 680:	0e030005 	cdpeq	0, 0, cr0, cr3, cr5, {0}
 684:	0b3b0b3a 	bleq	ec3374 <_start-0x2f18cc8c>
 688:	0a021349 	beq	853b4 <_start-0x2ffcac4c>
 68c:	01000000 	tsteq	r0, r0
 690:	0e250111 	mcreq	1, 1, r0, cr5, cr1, {0}
 694:	0e030b13 	vmoveq.32	d3[0], r0
 698:	01110e1b 	tsteq	r1, fp, lsl lr
 69c:	06100112 	undefined
 6a0:	24020000 	strcs	r0, [r2]
 6a4:	3e0b0b00 	fmacdcc	d0, d11, d0
 6a8:	000e030b 	andeq	r0, lr, fp, lsl #6
 6ac:	00240300 	eoreq	r0, r4, r0, lsl #6
 6b0:	0b3e0b0b 	bleq	f832e4 <_start-0x2f0ccd1c>
 6b4:	00000803 	andeq	r0, r0, r3, lsl #16
 6b8:	0b002404 	bleq	96d0 <_start-0x30046930>
 6bc:	000b3e0b 	andeq	r3, fp, fp, lsl #28
 6c0:	000f0500 	andeq	r0, pc, r0, lsl #10
 6c4:	00000b0b 	andeq	r0, r0, fp, lsl #22
 6c8:	03011306 	movweq	r1, #4870	; 0x1306
 6cc:	3a0b0b0e 	bcc	2c330c <_start-0x2fd8ccf4>
 6d0:	010b3b0b 	tsteq	fp, fp, lsl #22
 6d4:	07000013 	smladeq	r0, r3, r0, r0
 6d8:	0e03000d 	cdpeq	0, 0, cr0, cr3, cr13, {0}
 6dc:	0b3b0b3a 	bleq	ec33cc <_start-0x2f18cc34>
 6e0:	0a381349 	beq	e0540c <_start-0x2f24abf4>
 6e4:	01080000 	tsteq	r8, r0
 6e8:	01134901 	tsteq	r3, r1, lsl #18
 6ec:	09000013 	stmdbeq	r0, {r0, r1, r4}
 6f0:	13490021 	movtne	r0, #36897	; 0x9021
 6f4:	00000b2f 	andeq	r0, r0, pc, lsr #22
 6f8:	0300160a 	movweq	r1, #1546	; 0x60a
 6fc:	3b0b3a0e 	blcc	2cef3c <_start-0x2fd810c4>
 700:	0013490b 	andseq	r4, r3, fp, lsl #18
 704:	012e0b00 	teqeq	lr, r0, lsl #22
 708:	0e030c3f 	mcreq	12, 0, r0, cr3, cr15, {1}
 70c:	0b3b0b3a 	bleq	ec33fc <_start-0x2f18cc04>
 710:	13490c27 	movtne	r0, #39975	; 0x9c27
 714:	01120111 	tsteq	r2, r1, lsl r1
 718:	13010640 	movwne	r0, #5696	; 0x1640
 71c:	050c0000 	streq	r0, [ip]
 720:	3a0e0300 	bcc	381328 <_start-0x2fccecd8>
 724:	490b3b0b 	stmdbmi	fp, {r0, r1, r3, r8, r9, fp, ip, sp}
 728:	000a0213 	andeq	r0, sl, r3, lsl r2
 72c:	00340d00 	eorseq	r0, r4, r0, lsl #26
 730:	0b3a0803 	bleq	e82744 <_start-0x2f1cd8bc>
 734:	13490b3b 	movtne	r0, #39739	; 0x9b3b
 738:	00000a02 	andeq	r0, r0, r2, lsl #20
 73c:	3f012e0e 	svccc	0x00012e0e
 740:	3a0e030c 	bcc	381378 <_start-0x2fccec88>
 744:	270b3b0b 	strcs	r3, [fp, -fp, lsl #22]
 748:	1201110c 	andne	r1, r1, #3	; 0x3
 74c:	01064001 	tsteq	r6, r1
 750:	0f000013 	svceq	0x00000013
 754:	08030005 	stmdaeq	r3, {r0, r2}
 758:	0b3b0b3a 	bleq	ec3448 <_start-0x2f18cbb8>
 75c:	0a021349 	beq	85488 <_start-0x2ffcab78>
 760:	34100000 	ldrcc	r0, [r0]
 764:	3a0e0300 	bcc	38136c <_start-0x2fccec94>
 768:	490b3b0b 	stmdbmi	fp, {r0, r1, r3, r8, r9, fp, ip, sp}
 76c:	020c3f13 	andeq	r3, ip, #76	; 0x4c
 770:	0000000a 	andeq	r0, r0, sl
 774:	25011101 	strcs	r1, [r1, #-257]
 778:	030b130e 	movweq	r1, #45838	; 0xb30e
 77c:	110e1b0e 	tstne	lr, lr, lsl #22
 780:	10011201 	andne	r1, r1, r1, lsl #4
 784:	02000006 	andeq	r0, r0, #6	; 0x6
 788:	0b0b0024 	bleq	2c0820 <_start-0x2fd8f7e0>
 78c:	0e030b3e 	vmoveq.16	d3[0], r0
 790:	24030000 	strcs	r0, [r3]
 794:	3e0b0b00 	fmacdcc	d0, d11, d0
 798:	0008030b 	andeq	r0, r8, fp, lsl #6
 79c:	00240400 	eoreq	r0, r4, r0, lsl #8
 7a0:	0b3e0b0b 	bleq	f833d4 <_start-0x2f0ccc2c>
 7a4:	16050000 	strne	r0, [r5], -r0
 7a8:	3a0e0300 	bcc	3813b0 <_start-0x2fccec50>
 7ac:	000b3b0b 	andeq	r3, fp, fp, lsl #22
 7b0:	00160600 	andseq	r0, r6, r0, lsl #12
 7b4:	0b3a0e03 	bleq	e83fc8 <_start-0x2f1cc038>
 7b8:	13490b3b 	movtne	r0, #39739	; 0x9b3b
 7bc:	13070000 	movwne	r0, #28672	; 0x7000
 7c0:	0b0e0301 	bleq	3813cc <_start-0x2fccec34>
 7c4:	3b0b3a0b 	blcc	2ceff8 <_start-0x2fd81008>
 7c8:	0013010b 	andseq	r0, r3, fp, lsl #2
 7cc:	000d0800 	andeq	r0, sp, r0, lsl #16
 7d0:	0b3a0e03 	bleq	e83fe4 <_start-0x2f1cc01c>
 7d4:	13490b3b 	movtne	r0, #39739	; 0x9b3b
 7d8:	00000a38 	andeq	r0, r0, r8, lsr sl
 7dc:	03000d09 	movweq	r0, #3337	; 0xd09
 7e0:	3b0b3a08 	blcc	2cf008 <_start-0x2fd80ff8>
 7e4:	3813490b 	ldmdacc	r3, {r0, r1, r3, r8, fp, lr}
 7e8:	0a00000a 	beq	818 <_start-0x3004f7e8>
 7ec:	0b0b000f 	bleq	2c0830 <_start-0x2fd8f7d0>
 7f0:	00001349 	andeq	r1, r0, r9, asr #6
 7f4:	3f012e0b 	svccc	0x00012e0b
 7f8:	3a0e030c 	bcc	381430 <_start-0x2fccebd0>
 7fc:	490b3b0b 	stmdbmi	fp, {r0, r1, r3, r8, r9, fp, ip, sp}
 800:	12011113 	andne	r1, r1, #-1073741820	; 0xc0000004
 804:	01064001 	tsteq	r6, r1
 808:	0c000013 	stceq	0, cr0, [r0], {19}
 80c:	08030034 	stmdaeq	r3, {r2, r4, r5}
 810:	0b3b0b3a 	bleq	ec3500 <_start-0x2f18cb00>
 814:	0a021349 	beq	85540 <_start-0x2ffcaac0>
 818:	2e0d0000 	cdpcs	0, 0, cr0, cr13, cr0, {0}
 81c:	030c3f01 	movweq	r3, #52993	; 0xcf01
 820:	3b0b3a0e 	blcc	2cf060 <_start-0x2fd80fa0>
 824:	110c270b 	tstne	ip, fp, lsl #14
 828:	40011201 	andmi	r1, r1, r1, lsl #4
 82c:	00130106 	andseq	r0, r3, r6, lsl #2
 830:	00050e00 	andeq	r0, r5, r0, lsl #28
 834:	0b3a0e03 	bleq	e84048 <_start-0x2f1cbfb8>
 838:	13490b3b 	movtne	r0, #39739	; 0x9b3b
 83c:	00000a02 	andeq	r0, r0, r2, lsl #20
 840:	0300340f 	movweq	r3, #1039	; 0x40f
 844:	3b0b3a0e 	blcc	2cf084 <_start-0x2fd80f7c>
 848:	0213490b 	andseq	r4, r3, #180224	; 0x2c000
 84c:	1000000a 	andne	r0, r0, sl
 850:	0c3f012e 	ldfeqs	f0, [pc], #-184
 854:	0b3a0e03 	bleq	e84068 <_start-0x2f1cbf98>
 858:	0c270b3b 	stceq	11, cr0, [r7], #-236
 85c:	01111349 	tsteq	r1, r9, asr #6
 860:	06400112 	undefined
 864:	00001301 	andeq	r1, r0, r1, lsl #6
 868:	03000511 	movweq	r0, #1297	; 0x511
 86c:	3b0b3a08 	blcc	2cf094 <_start-0x2fd80f6c>
 870:	0213490b 	andseq	r4, r3, #180224	; 0x2c000
 874:	1200000a 	andne	r0, r0, #10	; 0xa
 878:	0111010b 	tsteq	r1, fp, lsl #2
 87c:	00000112 	andeq	r0, r0, r2, lsl r1
 880:	3f012e13 	svccc	0x00012e13
 884:	3a0e030c 	bcc	3814bc <_start-0x2fcceb44>
 888:	270b3b0b 	strcs	r3, [fp, -fp, lsl #22]
 88c:	1113490c 	tstne	r3, ip, lsl #18
 890:	40011201 	andmi	r1, r1, r1, lsl #4
 894:	00000006 	andeq	r0, r0, r6
 898:	25011101 	strcs	r1, [r1, #-257]
 89c:	030b130e 	movweq	r1, #45838	; 0xb30e
 8a0:	110e1b0e 	tstne	lr, lr, lsl #22
 8a4:	10011201 	andne	r1, r1, r1, lsl #4
 8a8:	02000006 	andeq	r0, r0, #6	; 0x6
 8ac:	0b0b0024 	bleq	2c0944 <_start-0x2fd8f6bc>
 8b0:	0e030b3e 	vmoveq.16	d3[0], r0
 8b4:	24030000 	strcs	r0, [r3]
 8b8:	3e0b0b00 	fmacdcc	d0, d11, d0
 8bc:	0008030b 	andeq	r0, r8, fp, lsl #6
 8c0:	00240400 	eoreq	r0, r4, r0, lsl #8
 8c4:	0b3e0b0b 	bleq	f834f8 <_start-0x2f0ccb08>
 8c8:	16050000 	strne	r0, [r5], -r0
 8cc:	3a0e0300 	bcc	3814d4 <_start-0x2fcceb2c>
 8d0:	490b3b0b 	stmdbmi	fp, {r0, r1, r3, r8, r9, fp, ip, sp}
 8d4:	06000013 	undefined
 8d8:	13490101 	movtne	r0, #37121	; 0x9101
 8dc:	00001301 	andeq	r1, r0, r1, lsl #6
 8e0:	49002107 	stmdbmi	r0, {r0, r1, r2, r8, sp}
 8e4:	000b2f13 	andeq	r2, fp, r3, lsl pc
 8e8:	01130800 	tsteq	r3, r0, lsl #16
 8ec:	050b0e03 	streq	r0, [fp, #-3587]
 8f0:	0b3b0b3a 	bleq	ec35e0 <_start-0x2f18ca20>
 8f4:	00001301 	andeq	r1, r0, r1, lsl #6
 8f8:	03000d09 	movweq	r0, #3337	; 0xd09
 8fc:	3b0b3a0e 	blcc	2cf13c <_start-0x2fd80ec4>
 900:	3813490b 	ldmdacc	r3, {r0, r1, r3, r8, fp, lr}
 904:	0a00000a 	beq	934 <_start-0x3004f6cc>
 908:	0c3f012e 	ldfeqs	f0, [pc], #-184
 90c:	0b3a0e03 	bleq	e84120 <_start-0x2f1cbee0>
 910:	0c270b3b 	stceq	11, cr0, [r7], #-236
 914:	01120111 	tsteq	r2, r1, lsl r1
 918:	13010640 	movwne	r0, #5696	; 0x1640
 91c:	050b0000 	streq	r0, [fp]
 920:	3a0e0300 	bcc	381528 <_start-0x2fccead8>
 924:	490b3b0b 	stmdbmi	fp, {r0, r1, r3, r8, r9, fp, ip, sp}
 928:	000a0213 	andeq	r0, sl, r3, lsl r2
 92c:	00340c00 	eorseq	r0, r4, r0, lsl #24
 930:	0b3a0e03 	bleq	e84144 <_start-0x2f1cbebc>
 934:	13490b3b 	movtne	r0, #39739	; 0x9b3b
 938:	00000a02 	andeq	r0, r0, r2, lsl #20
 93c:	0b000f0d 	bleq	4578 <_start-0x3004ba88>
 940:	0013490b 	andseq	r4, r3, fp, lsl #18
 944:	012e0e00 	teqeq	lr, r0, lsl #28
 948:	0e030c3f 	mcreq	12, 0, r0, cr3, cr15, {1}
 94c:	0b3b0b3a 	bleq	ec363c <_start-0x2f18c9c4>
 950:	13490c27 	movtne	r0, #39975	; 0x9c27
 954:	01120111 	tsteq	r2, r1, lsl r1
 958:	13010640 	movwne	r0, #5696	; 0x1640
 95c:	340f0000 	strcc	r0, [pc], #0	; 964 <_start-0x3004f69c>
 960:	3a0e0300 	bcc	381568 <_start-0x2fccea98>
 964:	490b3b0b 	stmdbmi	fp, {r0, r1, r3, r8, r9, fp, ip, sp}
 968:	020c3f13 	andeq	r3, ip, #76	; 0x4c
 96c:	0000000a 	andeq	r0, r0, sl
 970:	25011101 	strcs	r1, [r1, #-257]
 974:	030b130e 	movweq	r1, #45838	; 0xb30e
 978:	110e1b0e 	tstne	lr, lr, lsl #22
 97c:	10011201 	andne	r1, r1, r1, lsl #4
 980:	02000006 	andeq	r0, r0, #6	; 0x6
 984:	0b0b0024 	bleq	2c0a1c <_start-0x2fd8f5e4>
 988:	0e030b3e 	vmoveq.16	d3[0], r0
 98c:	24030000 	strcs	r0, [r3]
 990:	3e0b0b00 	fmacdcc	d0, d11, d0
 994:	0008030b 	andeq	r0, r8, fp, lsl #6
 998:	00240400 	eoreq	r0, r4, r0, lsl #8
 99c:	0b3e0b0b 	bleq	f835d0 <_start-0x2f0cca30>
 9a0:	01000000 	tsteq	r0, r0
 9a4:	0e250111 	mcreq	1, 1, r0, cr5, cr1, {0}
 9a8:	0e030b13 	vmoveq.32	d3[0], r0
 9ac:	01110e1b 	tsteq	r1, fp, lsl lr
 9b0:	06100112 	undefined
 9b4:	24020000 	strcs	r0, [r2]
 9b8:	3e0b0b00 	fmacdcc	d0, d11, d0
 9bc:	000e030b 	andeq	r0, lr, fp, lsl #6
 9c0:	00240300 	eoreq	r0, r4, r0, lsl #6
 9c4:	0b3e0b0b 	bleq	f835f8 <_start-0x2f0cca08>
 9c8:	00000803 	andeq	r0, r0, r3, lsl #16
 9cc:	0b002404 	bleq	99e4 <_start-0x3004661c>
 9d0:	000b3e0b 	andeq	r3, fp, fp, lsl #28
 9d4:	00160500 	andseq	r0, r6, r0, lsl #10
 9d8:	0b3a0e03 	bleq	e841ec <_start-0x2f1cbe14>
 9dc:	00000b3b 	andeq	r0, r0, fp, lsr fp
 9e0:	03001606 	movweq	r1, #1542	; 0x606
 9e4:	3b0b3a0e 	blcc	2cf224 <_start-0x2fd80ddc>
 9e8:	0013490b 	andseq	r4, r3, fp, lsl #18
 9ec:	01130700 	tsteq	r3, r0, lsl #14
 9f0:	0b0b0e03 	bleq	2c4204 <_start-0x2fd8bdfc>
 9f4:	0b3b0b3a 	bleq	ec36e4 <_start-0x2f18c91c>
 9f8:	00001301 	andeq	r1, r0, r1, lsl #6
 9fc:	03000d08 	movweq	r0, #3336	; 0xd08
 a00:	3b0b3a0e 	blcc	2cf240 <_start-0x2fd80dc0>
 a04:	3813490b 	ldmdacc	r3, {r0, r1, r3, r8, fp, lr}
 a08:	0900000a 	stmdbeq	r0, {r1, r3}
 a0c:	0b0b000f 	bleq	2c0a50 <_start-0x2fd8f5b0>
 a10:	00001349 	andeq	r1, r0, r9, asr #6
 a14:	3f012e0a 	svccc	0x00012e0a
 a18:	3a0e030c 	bcc	381650 <_start-0x2fcce9b0>
 a1c:	270b3b0b 	strcs	r3, [fp, -fp, lsl #22]
 a20:	1113490c 	tstne	r3, ip, lsl #18
 a24:	40011201 	andmi	r1, r1, r1, lsl #4
 a28:	00130106 	andseq	r0, r3, r6, lsl #2
 a2c:	00050b00 	andeq	r0, r5, r0, lsl #22
 a30:	0b3a0e03 	bleq	e84244 <_start-0x2f1cbdbc>
 a34:	13490b3b 	movtne	r0, #39739	; 0x9b3b
 a38:	00000a02 	andeq	r0, r0, r2, lsl #20
 a3c:	0300340c 	movweq	r3, #1036	; 0x40c
 a40:	3b0b3a08 	blcc	2cf268 <_start-0x2fd80d98>
 a44:	0213490b 	andseq	r4, r3, #180224	; 0x2c000
 a48:	0d00000a 	stceq	0, cr0, [r0, #-40]
 a4c:	0c3f012e 	ldfeqs	f0, [pc], #-184
 a50:	0b3a0e03 	bleq	e84264 <_start-0x2f1cbd9c>
 a54:	0c270b3b 	stceq	11, cr0, [r7], #-236
 a58:	01120111 	tsteq	r2, r1, lsl r1
 a5c:	13010640 	movwne	r0, #5696	; 0x1640
 a60:	340e0000 	strcc	r0, [lr]
 a64:	3a0e0300 	bcc	38166c <_start-0x2fcce994>
 a68:	490b3b0b 	stmdbmi	fp, {r0, r1, r3, r8, r9, fp, ip, sp}
 a6c:	000a0213 	andeq	r0, sl, r3, lsl r2
 a70:	00050f00 	andeq	r0, r5, r0, lsl #30
 a74:	0b3a0803 	bleq	e82a88 <_start-0x2f1cd578>
 a78:	13490b3b 	movtne	r0, #39739	; 0x9b3b
 a7c:	00000a02 	andeq	r0, r0, r2, lsl #20
 a80:	3f012e10 	svccc	0x00012e10
 a84:	3a0e030c 	bcc	3816bc <_start-0x2fcce944>
 a88:	270b3b0b 	strcs	r3, [fp, -fp, lsl #22]
 a8c:	1113490c 	tstne	r3, ip, lsl #18
 a90:	40011201 	andmi	r1, r1, r1, lsl #4
 a94:	00000006 	andeq	r0, r0, r6
 a98:	25011101 	strcs	r1, [r1, #-257]
 a9c:	030b130e 	movweq	r1, #45838	; 0xb30e
 aa0:	110e1b0e 	tstne	lr, lr, lsl #22
 aa4:	10011201 	andne	r1, r1, r1, lsl #4
 aa8:	02000006 	andeq	r0, r0, #6	; 0x6
 aac:	0b0b0024 	bleq	2c0b44 <_start-0x2fd8f4bc>
 ab0:	0e030b3e 	vmoveq.16	d3[0], r0
 ab4:	24030000 	strcs	r0, [r3]
 ab8:	3e0b0b00 	fmacdcc	d0, d11, d0
 abc:	0008030b 	andeq	r0, r8, fp, lsl #6
 ac0:	00240400 	eoreq	r0, r4, r0, lsl #8
 ac4:	0b3e0b0b 	bleq	f836f8 <_start-0x2f0cc908>
 ac8:	0f050000 	svceq	0x00050000
 acc:	000b0b00 	andeq	r0, fp, r0, lsl #22
 ad0:	00160600 	andseq	r0, r6, r0, lsl #12
 ad4:	0b3a0e03 	bleq	e842e8 <_start-0x2f1cbd18>
 ad8:	00000b3b 	andeq	r0, r0, fp, lsr fp
 adc:	3f012e07 	svccc	0x00012e07
 ae0:	3a0e030c 	bcc	381718 <_start-0x2fcce8e8>
 ae4:	270b3b0b 	strcs	r3, [fp, -fp, lsl #22]
 ae8:	1113490c 	tstne	r3, ip, lsl #18
 aec:	40011201 	andmi	r1, r1, r1, lsl #4
 af0:	00130106 	andseq	r0, r3, r6, lsl #2
 af4:	00050800 	andeq	r0, r5, r0, lsl #16
 af8:	0b3a0e03 	bleq	e8430c <_start-0x2f1cbcf4>
 afc:	13490b3b 	movtne	r0, #39739	; 0x9b3b
 b00:	00000a02 	andeq	r0, r0, r2, lsl #20
 b04:	0b000f09 	bleq	4730 <_start-0x3004b8d0>
 b08:	0013490b 	andseq	r4, r3, fp, lsl #18
 b0c:	012e0a00 	teqeq	lr, r0, lsl #20
 b10:	0e030c3f 	mcreq	12, 0, r0, cr3, cr15, {1}
 b14:	0b3b0b3a 	bleq	ec3804 <_start-0x2f18c7fc>
 b18:	01110c27 	tsteq	r1, r7, lsr #24
 b1c:	06400112 	undefined
 b20:	00001301 	andeq	r1, r0, r1, lsl #6
 b24:	3f012e0b 	svccc	0x00012e0b
 b28:	3a0e030c 	bcc	381760 <_start-0x2fcce8a0>
 b2c:	270b3b0b 	strcs	r3, [fp, -fp, lsl #22]
 b30:	1113490c 	tstne	r3, ip, lsl #18
 b34:	40011201 	andmi	r1, r1, r1, lsl #4
 b38:	00000006 	andeq	r0, r0, r6
 b3c:	25011101 	strcs	r1, [r1, #-257]
 b40:	030b130e 	movweq	r1, #45838	; 0xb30e
 b44:	110e1b0e 	tstne	lr, lr, lsl #22
 b48:	10011201 	andne	r1, r1, r1, lsl #4
 b4c:	02000006 	andeq	r0, r0, #6	; 0x6
 b50:	0b0b0024 	bleq	2c0be8 <_start-0x2fd8f418>
 b54:	0e030b3e 	vmoveq.16	d3[0], r0
 b58:	24030000 	strcs	r0, [r3]
 b5c:	3e0b0b00 	fmacdcc	d0, d11, d0
 b60:	0008030b 	andeq	r0, r8, fp, lsl #6
 b64:	00240400 	eoreq	r0, r4, r0, lsl #8
 b68:	0b3e0b0b 	bleq	f8379c <_start-0x2f0cc864>
 b6c:	0f050000 	svceq	0x00050000
 b70:	000b0b00 	andeq	r0, fp, r0, lsl #22
 b74:	00160600 	andseq	r0, r6, r0, lsl #12
 b78:	0b3a0e03 	bleq	e8438c <_start-0x2f1cbc74>
 b7c:	00000b3b 	andeq	r0, r0, fp, lsr fp
 b80:	3f012e07 	svccc	0x00012e07
 b84:	3a0e030c 	bcc	3817bc <_start-0x2fcce844>
 b88:	270b3b0b 	strcs	r3, [fp, -fp, lsl #22]
 b8c:	1113490c 	tstne	r3, ip, lsl #18
 b90:	40011201 	andmi	r1, r1, r1, lsl #4
 b94:	00130106 	andseq	r0, r3, r6, lsl #2
 b98:	00050800 	andeq	r0, r5, r0, lsl #16
 b9c:	0b3a0e03 	bleq	e843b0 <_start-0x2f1cbc50>
 ba0:	13490b3b 	movtne	r0, #39739	; 0x9b3b
 ba4:	00000a02 	andeq	r0, r0, r2, lsl #20
 ba8:	0b000f09 	bleq	47d4 <_start-0x3004b82c>
 bac:	0013490b 	andseq	r4, r3, fp, lsl #18
 bb0:	012e0a00 	teqeq	lr, r0, lsl #20
 bb4:	0e030c3f 	mcreq	12, 0, r0, cr3, cr15, {1}
 bb8:	0b3b0b3a 	bleq	ec38a8 <_start-0x2f18c758>
 bbc:	01110c27 	tsteq	r1, r7, lsr #24
 bc0:	06400112 	undefined
 bc4:	00001301 	andeq	r1, r0, r1, lsl #6
 bc8:	3f012e0b 	svccc	0x00012e0b
 bcc:	3a0e030c 	bcc	381804 <_start-0x2fcce7fc>
 bd0:	270b3b0b 	strcs	r3, [fp, -fp, lsl #22]
 bd4:	1113490c 	tstne	r3, ip, lsl #18
 bd8:	40011201 	andmi	r1, r1, r1, lsl #4
 bdc:	00000006 	andeq	r0, r0, r6
 be0:	25011101 	strcs	r1, [r1, #-257]
 be4:	030b130e 	movweq	r1, #45838	; 0xb30e
 be8:	110e1b0e 	tstne	lr, lr, lsl #22
 bec:	10011201 	andne	r1, r1, r1, lsl #4
 bf0:	02000006 	andeq	r0, r0, #6	; 0x6
 bf4:	0b0b0024 	bleq	2c0c8c <_start-0x2fd8f374>
 bf8:	0e030b3e 	vmoveq.16	d3[0], r0
 bfc:	24030000 	strcs	r0, [r3]
 c00:	3e0b0b00 	fmacdcc	d0, d11, d0
 c04:	0008030b 	andeq	r0, r8, fp, lsl #6
 c08:	00240400 	eoreq	r0, r4, r0, lsl #8
 c0c:	0b3e0b0b 	bleq	f83840 <_start-0x2f0cc7c0>
 c10:	16050000 	strne	r0, [r5], -r0
 c14:	3a0e0300 	bcc	38181c <_start-0x2fcce7e4>
 c18:	000b3b0b 	andeq	r3, fp, fp, lsl #22
 c1c:	00160600 	andseq	r0, r6, r0, lsl #12
 c20:	0b3a0e03 	bleq	e84434 <_start-0x2f1cbbcc>
 c24:	13490b3b 	movtne	r0, #39739	; 0x9b3b
 c28:	13070000 	movwne	r0, #28672	; 0x7000
 c2c:	0b0e0301 	bleq	381838 <_start-0x2fcce7c8>
 c30:	3b0b3a0b 	blcc	2cf464 <_start-0x2fd80b9c>
 c34:	0013010b 	andseq	r0, r3, fp, lsl #2
 c38:	000d0800 	andeq	r0, sp, r0, lsl #16
 c3c:	0b3a0e03 	bleq	e84450 <_start-0x2f1cbbb0>
 c40:	13490b3b 	movtne	r0, #39739	; 0x9b3b
 c44:	00000a38 	andeq	r0, r0, r8, lsr sl
 c48:	0b000f09 	bleq	4874 <_start-0x3004b78c>
 c4c:	0013490b 	andseq	r4, r3, fp, lsl #18
 c50:	012e0a00 	teqeq	lr, r0, lsl #20
 c54:	0e030c3f 	mcreq	12, 0, r0, cr3, cr15, {1}
 c58:	0b3b0b3a 	bleq	ec3948 <_start-0x2f18c6b8>
 c5c:	01111349 	tsteq	r1, r9, asr #6
 c60:	06400112 	undefined
 c64:	00001301 	andeq	r1, r0, r1, lsl #6
 c68:	0300340b 	movweq	r3, #1035	; 0x40b
 c6c:	3b0b3a08 	blcc	2cf494 <_start-0x2fd80b6c>
 c70:	0213490b 	andseq	r4, r3, #180224	; 0x2c000
 c74:	0c00000a 	stceq	0, cr0, [r0], {10}
 c78:	0c3f012e 	ldfeqs	f0, [pc], #-184
 c7c:	0b3a0e03 	bleq	e84490 <_start-0x2f1cbb70>
 c80:	0c270b3b 	stceq	11, cr0, [r7], #-236
 c84:	01120111 	tsteq	r2, r1, lsl r1
 c88:	13010640 	movwne	r0, #5696	; 0x1640
 c8c:	050d0000 	streq	r0, [sp]
 c90:	3a0e0300 	bcc	381898 <_start-0x2fcce768>
 c94:	490b3b0b 	stmdbmi	fp, {r0, r1, r3, r8, r9, fp, ip, sp}
 c98:	000a0213 	andeq	r0, sl, r3, lsl r2
 c9c:	00340e00 	eorseq	r0, r4, r0, lsl #28
 ca0:	0b3a0e03 	bleq	e844b4 <_start-0x2f1cbb4c>
 ca4:	13490b3b 	movtne	r0, #39739	; 0x9b3b
 ca8:	00000a02 	andeq	r0, r0, r2, lsl #20
 cac:	3f012e0f 	svccc	0x00012e0f
 cb0:	3a0e030c 	bcc	3818e8 <_start-0x2fcce718>
 cb4:	270b3b0b 	strcs	r3, [fp, -fp, lsl #22]
 cb8:	1113490c 	tstne	r3, ip, lsl #18
 cbc:	40011201 	andmi	r1, r1, r1, lsl #4
 cc0:	00130106 	andseq	r0, r3, r6, lsl #2
 cc4:	00051000 	andeq	r1, r5, r0
 cc8:	0b3a0803 	bleq	e82cdc <_start-0x2f1cd324>
 ccc:	13490b3b 	movtne	r0, #39739	; 0x9b3b
 cd0:	00000a02 	andeq	r0, r0, r2, lsl #20
 cd4:	11010b11 	tstne	r1, r1, lsl fp
 cd8:	00011201 	andeq	r1, r1, r1, lsl #4
 cdc:	012e1200 	teqeq	lr, r0, lsl #4
 ce0:	0e030c3f 	mcreq	12, 0, r0, cr3, cr15, {1}
 ce4:	0b3b0b3a 	bleq	ec39d4 <_start-0x2f18c62c>
 ce8:	13490c27 	movtne	r0, #39975	; 0x9c27
 cec:	01120111 	tsteq	r2, r1, lsl r1
 cf0:	00000640 	andeq	r0, r0, r0, asr #12
 cf4:	01110100 	tsteq	r1, r0, lsl #2
 cf8:	0b130e25 	bleq	4c4594 <_start-0x2fb8ba6c>
 cfc:	0e1b0e03 	cdpeq	14, 1, cr0, cr11, cr3, {0}
 d00:	01120111 	tsteq	r2, r1, lsl r1
 d04:	00000610 	andeq	r0, r0, r0, lsl r6
 d08:	0b002402 	bleq	9d18 <_start-0x300462e8>
 d0c:	030b3e0b 	movweq	r3, #48651	; 0xbe0b
 d10:	0300000e 	movweq	r0, #14	; 0xe
 d14:	0b0b0024 	bleq	2c0dac <_start-0x2fd8f254>
 d18:	08030b3e 	stmdaeq	r3, {r1, r2, r3, r4, r5, r8, r9, fp}
 d1c:	24040000 	strcs	r0, [r4]
 d20:	3e0b0b00 	fmacdcc	d0, d11, d0
 d24:	0500000b 	streq	r0, [r0, #-11]
 d28:	0b0b000f 	bleq	2c0d6c <_start-0x2fd8f294>
 d2c:	16060000 	strne	r0, [r6], -r0
 d30:	3a0e0300 	bcc	381938 <_start-0x2fcce6c8>
 d34:	000b3b0b 	andeq	r3, fp, fp, lsl #22
 d38:	00160700 	andseq	r0, r6, r0, lsl #14
 d3c:	0b3a0e03 	bleq	e84550 <_start-0x2f1cbab0>
 d40:	13490b3b 	movtne	r0, #39739	; 0x9b3b
 d44:	13080000 	movwne	r0, #32768	; 0x8000
 d48:	0b0e0301 	bleq	381954 <_start-0x2fcce6ac>
 d4c:	3b0b3a0b 	blcc	2cf580 <_start-0x2fd80a80>
 d50:	0013010b 	andseq	r0, r3, fp, lsl #2
 d54:	000d0900 	andeq	r0, sp, r0, lsl #18
 d58:	0b3a0e03 	bleq	e8456c <_start-0x2f1cba94>
 d5c:	13490b3b 	movtne	r0, #39739	; 0x9b3b
 d60:	00000a38 	andeq	r0, r0, r8, lsr sl
 d64:	0b000f0a 	bleq	4994 <_start-0x3004b66c>
 d68:	0013490b 	andseq	r4, r3, fp, lsl #18
 d6c:	002e0b00 	eoreq	r0, lr, r0, lsl #22
 d70:	0e030c3f 	mcreq	12, 0, r0, cr3, cr15, {1}
 d74:	0b3b0b3a 	bleq	ec3a64 <_start-0x2f18c59c>
 d78:	01111349 	tsteq	r1, r9, asr #6
 d7c:	06400112 	undefined
 d80:	2e0c0000 	cdpcs	0, 0, cr0, cr12, cr0, {0}
 d84:	030c3f01 	movweq	r3, #52993	; 0xcf01
 d88:	3b0b3a0e 	blcc	2cf5c8 <_start-0x2fd80a38>
 d8c:	110c270b 	tstne	ip, fp, lsl #14
 d90:	40011201 	andmi	r1, r1, r1, lsl #4
 d94:	00130106 	andseq	r0, r3, r6, lsl #2
 d98:	00050d00 	andeq	r0, r5, r0, lsl #26
 d9c:	0b3a0e03 	bleq	e845b0 <_start-0x2f1cba50>
 da0:	13490b3b 	movtne	r0, #39739	; 0x9b3b
 da4:	00000a02 	andeq	r0, r0, r2, lsl #20
 da8:	3f012e0e 	svccc	0x00012e0e
 dac:	3a0e030c 	bcc	3819e4 <_start-0x2fcce61c>
 db0:	270b3b0b 	strcs	r3, [fp, -fp, lsl #22]
 db4:	1113490c 	tstne	r3, ip, lsl #18
 db8:	40011201 	andmi	r1, r1, r1, lsl #4
 dbc:	00130106 	andseq	r0, r3, r6, lsl #2
 dc0:	00340f00 	eorseq	r0, r4, r0, lsl #30
 dc4:	0b3a0e03 	bleq	e845d8 <_start-0x2f1cba28>
 dc8:	13490b3b 	movtne	r0, #39739	; 0x9b3b
 dcc:	00000a02 	andeq	r0, r0, r2, lsl #20
 dd0:	03003410 	movweq	r3, #1040	; 0x410
 dd4:	3b0b3a08 	blcc	2cf5fc <_start-0x2fd80a04>
 dd8:	0213490b 	andseq	r4, r3, #180224	; 0x2c000
 ddc:	1100000a 	tstne	r0, sl
 de0:	0c3f012e 	ldfeqs	f0, [pc], #-184
 de4:	0b3a0e03 	bleq	e845f8 <_start-0x2f1cba08>
 de8:	0c270b3b 	stceq	11, cr0, [r7], #-236
 dec:	01111349 	tsteq	r1, r9, asr #6
 df0:	06400112 	undefined
 df4:	01000000 	tsteq	r0, r0
 df8:	0e250111 	mcreq	1, 1, r0, cr5, cr1, {0}
 dfc:	0e030b13 	vmoveq.32	d3[0], r0
 e00:	01110e1b 	tsteq	r1, fp, lsl lr
 e04:	06100112 	undefined
 e08:	24020000 	strcs	r0, [r2]
 e0c:	3e0b0b00 	fmacdcc	d0, d11, d0
 e10:	000e030b 	andeq	r0, lr, fp, lsl #6
 e14:	00240300 	eoreq	r0, r4, r0, lsl #6
 e18:	0b3e0b0b 	bleq	f83a4c <_start-0x2f0cc5b4>
 e1c:	00000803 	andeq	r0, r0, r3, lsl #16
 e20:	0b002404 	bleq	9e38 <_start-0x300461c8>
 e24:	000b3e0b 	andeq	r3, fp, fp, lsl #28
 e28:	000f0500 	andeq	r0, pc, r0, lsl #10
 e2c:	00000b0b 	andeq	r0, r0, fp, lsl #22
 e30:	03001606 	movweq	r1, #1542	; 0x606
 e34:	3b0b3a0e 	blcc	2cf674 <_start-0x2fd8098c>
 e38:	0013490b 	andseq	r4, r3, fp, lsl #18
 e3c:	01130700 	tsteq	r3, r0, lsl #14
 e40:	0b0b0e03 	bleq	2c4654 <_start-0x2fd8b9ac>
 e44:	0b3b0b3a 	bleq	ec3b34 <_start-0x2f18c4cc>
 e48:	00001301 	andeq	r1, r0, r1, lsl #6
 e4c:	03000d08 	movweq	r0, #3336	; 0xd08
 e50:	3b0b3a0e 	blcc	2cf690 <_start-0x2fd80970>
 e54:	3813490b 	ldmdacc	r3, {r0, r1, r3, r8, fp, lr}
 e58:	0900000a 	stmdbeq	r0, {r1, r3}
 e5c:	0b0b000f 	bleq	2c0ea0 <_start-0x2fd8f160>
 e60:	00001349 	andeq	r1, r0, r9, asr #6
 e64:	0300160a 	movweq	r1, #1546	; 0x60a
 e68:	3b0b3a0e 	blcc	2cf6a8 <_start-0x2fd80958>
 e6c:	0b00000b 	bleq	ea0 <_start-0x3004f160>
 e70:	0c3f002e 	ldceq	0, cr0, [pc], #-184
 e74:	0b3a0e03 	bleq	e84688 <_start-0x2f1cb978>
 e78:	13490b3b 	movtne	r0, #39739	; 0x9b3b
 e7c:	01120111 	tsteq	r2, r1, lsl r1
 e80:	00000640 	andeq	r0, r0, r0, asr #12
 e84:	3f012e0c 	svccc	0x00012e0c
 e88:	3a0e030c 	bcc	381ac0 <_start-0x2fcce540>
 e8c:	270b3b0b 	strcs	r3, [fp, -fp, lsl #22]
 e90:	1201110c 	andne	r1, r1, #3	; 0x3
 e94:	01064001 	tsteq	r6, r1
 e98:	0d000013 	stceq	0, cr0, [r0, #-76]
 e9c:	0e030005 	cdpeq	0, 0, cr0, cr3, cr5, {0}
 ea0:	0b3b0b3a 	bleq	ec3b90 <_start-0x2f18c470>
 ea4:	0a021349 	beq	85bd0 <_start-0x2ffca430>
 ea8:	340e0000 	strcc	r0, [lr]
 eac:	3a0e0300 	bcc	381ab4 <_start-0x2fcce54c>
 eb0:	490b3b0b 	stmdbmi	fp, {r0, r1, r3, r8, r9, fp, ip, sp}
 eb4:	000a0213 	andeq	r0, sl, r3, lsl r2
 eb8:	012e0f00 	teqeq	lr, r0, lsl #30
 ebc:	0e030c3f 	mcreq	12, 0, r0, cr3, cr15, {1}
 ec0:	0b3b0b3a 	bleq	ec3bb0 <_start-0x2f18c450>
 ec4:	13490c27 	movtne	r0, #39975	; 0x9c27
 ec8:	01120111 	tsteq	r2, r1, lsl r1
 ecc:	13010640 	movwne	r0, #5696	; 0x1640
 ed0:	34100000 	ldrcc	r0, [r0]
 ed4:	3a080300 	bcc	201adc <_start-0x2fe4e524>
 ed8:	490b3b0b 	stmdbmi	fp, {r0, r1, r3, r8, r9, fp, ip, sp}
 edc:	000a0213 	andeq	r0, sl, r3, lsl r2
 ee0:	012e1100 	teqeq	lr, r0, lsl #2
 ee4:	0e030c3f 	mcreq	12, 0, r0, cr3, cr15, {1}
 ee8:	0b3b0b3a 	bleq	ec3bd8 <_start-0x2f18c428>
 eec:	13490c27 	movtne	r0, #39975	; 0x9c27
 ef0:	01120111 	tsteq	r2, r1, lsl r1
 ef4:	00000640 	andeq	r0, r0, r0, asr #12
 ef8:	01110100 	tsteq	r1, r0, lsl #2
 efc:	0b130e25 	bleq	4c4798 <_start-0x2fb8b868>
 f00:	0e1b0e03 	cdpeq	14, 1, cr0, cr11, cr3, {0}
 f04:	01120111 	tsteq	r2, r1, lsl r1
 f08:	00000610 	andeq	r0, r0, r0, lsl r6
 f0c:	0b002402 	bleq	9f1c <_start-0x300460e4>
 f10:	030b3e0b 	movweq	r3, #48651	; 0xbe0b
 f14:	0300000e 	movweq	r0, #14	; 0xe
 f18:	0b0b0024 	bleq	2c0fb0 <_start-0x2fd8f050>
 f1c:	08030b3e 	stmdaeq	r3, {r1, r2, r3, r4, r5, r8, r9, fp}
 f20:	24040000 	strcs	r0, [r4]
 f24:	3e0b0b00 	fmacdcc	d0, d11, d0
 f28:	0500000b 	streq	r0, [r0, #-11]
 f2c:	0b0b000f 	bleq	2c0f70 <_start-0x2fd8f090>
 f30:	16060000 	strne	r0, [r6], -r0
 f34:	3a0e0300 	bcc	381b3c <_start-0x2fcce4c4>
 f38:	490b3b0b 	stmdbmi	fp, {r0, r1, r3, r8, r9, fp, ip, sp}
 f3c:	07000013 	smladeq	r0, r3, r0, r0
 f40:	0e030113 	mcreq	1, 0, r0, cr3, cr3, {0}
 f44:	0b3a0b0b 	bleq	e83b78 <_start-0x2f1cc488>
 f48:	13010b3b 	movwne	r0, #6971	; 0x1b3b
 f4c:	0d080000 	stceq	0, cr0, [r8]
 f50:	3a0e0300 	bcc	381b58 <_start-0x2fcce4a8>
 f54:	490b3b0b 	stmdbmi	fp, {r0, r1, r3, r8, r9, fp, ip, sp}
 f58:	000a3813 	andeq	r3, sl, r3, lsl r8
 f5c:	000f0900 	andeq	r0, pc, r0, lsl #18
 f60:	13490b0b 	movtne	r0, #39691	; 0x9b0b
 f64:	2e0a0000 	cdpcs	0, 0, cr0, cr10, cr0, {0}
 f68:	030c3f01 	movweq	r3, #52993	; 0xcf01
 f6c:	3b0b3a0e 	blcc	2cf7ac <_start-0x2fd80854>
 f70:	1201110b 	andne	r1, r1, #-1073741822	; 0xc0000002
 f74:	01064001 	tsteq	r6, r1
 f78:	0b000013 	bleq	fcc <_start-0x3004f034>
 f7c:	0e030034 	mcreq	0, 0, r0, cr3, cr4, {1}
 f80:	0b3b0b3a 	bleq	ec3c70 <_start-0x2f18c390>
 f84:	0a021349 	beq	85cb0 <_start-0x2ffca350>
 f88:	Address 0x00000f88 is out of bounds.

Disassembly of section .debug_aranges:

00000000 <.debug_aranges>:
   0:	0000001c 	andeq	r0, r0, ip, lsl r0
   4:	00000002 	andeq	r0, r0, r2
   8:	00040000 	andeq	r0, r4, r0
   c:	00000000 	andeq	r0, r0, r0
  10:	30050000 	andcc	r0, r5, r0
  14:	000001f8 	strdeq	r0, [r0], -r8
	...
  20:	0000001c 	andeq	r0, r0, ip, lsl r0
  24:	004b0002 	subeq	r0, fp, r2
  28:	00040000 	andeq	r0, r4, r0
  2c:	00000000 	andeq	r0, r0, r0
  30:	300501f8 	strdcc	r0, [r5], -r8
  34:	00000114 	andeq	r0, r0, r4, lsl r1
	...
  40:	0000001c 	andeq	r0, r0, ip, lsl r0
  44:	01c60002 	biceq	r0, r6, r2
  48:	00040000 	andeq	r0, r4, r0
  4c:	00000000 	andeq	r0, r0, r0
  50:	3005030c 	andcc	r0, r5, ip, lsl #6
  54:	000004fc 	strdeq	r0, [r0], -ip
	...
  60:	0000001c 	andeq	r0, r0, ip, lsl r0
  64:	058b0002 	streq	r0, [fp, #2]
  68:	00040000 	andeq	r0, r4, r0
  6c:	00000000 	andeq	r0, r0, r0
  70:	30050808 	andcc	r0, r5, r8, lsl #16
  74:	00000294 	muleq	r0, r4, r2
	...
  80:	0000001c 	andeq	r0, r0, ip, lsl r0
  84:	08990002 	ldmeq	r9, {r1}
  88:	00040000 	andeq	r0, r4, r0
  8c:	00000000 	andeq	r0, r0, r0
  90:	30050a9c 	mulcc	r5, ip, sl
  94:	00000468 	andeq	r0, r0, r8, ror #8
	...
  a0:	0000001c 	andeq	r0, r0, ip, lsl r0
  a4:	0ac50002 	beq	ff1400b4 <bss_end+0xcf0b5e44>
  a8:	00040000 	andeq	r0, r4, r0
  ac:	00000000 	andeq	r0, r0, r0
  b0:	30050f04 	andcc	r0, r5, r4, lsl #30
  b4:	00000154 	andeq	r0, r0, r4, asr r1
	...
  c0:	0000001c 	andeq	r0, r0, ip, lsl r0
  c4:	0bb50002 	bleq	fed400d4 <bss_end+0xcecb5e64>
  c8:	00040000 	andeq	r0, r4, r0
  cc:	00000000 	andeq	r0, r0, r0
  d0:	30051058 	andcc	r1, r5, r8, asr r0
  d4:	00000864 	andeq	r0, r0, r4, ror #16
	...
  e0:	0000001c 	andeq	r0, r0, ip, lsl r0
  e4:	0f370002 	svceq	0x00370002
  e8:	00040000 	andeq	r0, r4, r0
  ec:	00000000 	andeq	r0, r0, r0
  f0:	300518bc 	strhcc	r1, [r5], -ip
  f4:	00000124 	andeq	r0, r0, r4, lsr #2
	...
 100:	0000001c 	andeq	r0, r0, ip, lsl r0
 104:	102e0002 	eorne	r0, lr, r2
 108:	00040000 	andeq	r0, r4, r0
 10c:	00000000 	andeq	r0, r0, r0
 110:	300519e0 	andcc	r1, r5, r0, ror #19
 114:	0000006c 	andeq	r0, r0, ip, rrx
	...
 120:	0000001c 	andeq	r0, r0, ip, lsl r0
 124:	10b10002 	adcsne	r0, r1, r2
 128:	00040000 	andeq	r0, r4, r0
 12c:	00000000 	andeq	r0, r0, r0
 130:	30051a4c 	andcc	r1, r5, ip, asr #20
 134:	00000224 	andeq	r0, r0, r4, lsr #4
	...
 140:	0000001c 	andeq	r0, r0, ip, lsl r0
 144:	12090002 	andne	r0, r9, #2	; 0x2
 148:	00040000 	andeq	r0, r4, r0
 14c:	00000000 	andeq	r0, r0, r0
 150:	30051c70 	andcc	r1, r5, r0, ror ip
 154:	000006d4 	ldrdeq	r0, [r0], -r4
	...
 160:	0000001c 	andeq	r0, r0, ip, lsl r0
 164:	170d0002 	strne	r0, [sp, -r2]
 168:	00040000 	andeq	r0, r4, r0
 16c:	00000000 	andeq	r0, r0, r0
 170:	30052344 	andcc	r2, r5, r4, asr #6
 174:	000001e8 	andeq	r0, r0, r8, ror #3
	...
 180:	0000001c 	andeq	r0, r0, ip, lsl r0
 184:	19110002 	ldmdbne	r1, {r1}
 188:	00040000 	andeq	r0, r4, r0
 18c:	00000000 	andeq	r0, r0, r0
 190:	3005252c 	andcc	r2, r5, ip, lsr #10
 194:	00000464 	andeq	r0, r0, r4, ror #8
	...
 1a0:	0000001c 	andeq	r0, r0, ip, lsl r0
 1a4:	1c1d0002 	ldcne	0, cr0, [sp], {2}
 1a8:	00040000 	andeq	r0, r4, r0
 1ac:	00000000 	andeq	r0, r0, r0
 1b0:	30052990 	mulcc	r5, r0, r9
 1b4:	00000184 	andeq	r0, r0, r4, lsl #3
	...
 1c0:	0000001c 	andeq	r0, r0, ip, lsl r0
 1c4:	1e040002 	cdpne	0, 0, cr0, cr4, cr2, {0}
 1c8:	00040000 	andeq	r0, r4, r0
 1cc:	00000000 	andeq	r0, r0, r0
 1d0:	30052b14 	andcc	r2, r5, r4, lsl fp
 1d4:	00000174 	andeq	r0, r0, r4, ror r1
	...
 1e0:	0000001c 	andeq	r0, r0, ip, lsl r0
 1e4:	1feb0002 	svcne	0x00eb0002
 1e8:	00040000 	andeq	r0, r4, r0
 1ec:	00000000 	andeq	r0, r0, r0
 1f0:	30052c88 	andcc	r2, r5, r8, lsl #25
 1f4:	0000039c 	muleq	r0, ip, r3
	...
 200:	0000001c 	andeq	r0, r0, ip, lsl r0
 204:	231d0002 	tstcs	sp, #2	; 0x2
 208:	00040000 	andeq	r0, r4, r0
 20c:	00000000 	andeq	r0, r0, r0
 210:	30053024 	andcc	r3, r5, r4, lsr #32
 214:	00000220 	andeq	r0, r0, r0, lsr #4
	...
 220:	0000001c 	andeq	r0, r0, ip, lsl r0
 224:	257e0002 	ldrbcs	r0, [lr, #-2]!
 228:	00040000 	andeq	r0, r4, r0
 22c:	00000000 	andeq	r0, r0, r0
 230:	30053244 	andcc	r3, r5, r4, asr #4
 234:	00000298 	muleq	r0, r8, r2
	...
 240:	0000001c 	andeq	r0, r0, ip, lsl r0
 244:	27dc0002 	ldrbcs	r0, [ip, r2]
 248:	00040000 	andeq	r0, r4, r0
 24c:	00000000 	andeq	r0, r0, r0
 250:	3005a77c 	andcc	sl, r5, ip, ror r7
 254:	00000090 	muleq	r0, r0, r0
	...
Disassembly of section .debug_frame:

00000000 <.debug_frame>:
   0:	0000000c 	andeq	r0, r0, ip
   4:	ffffffff 	undefined instruction 0xffffffff
   8:	7c010001 	stcvc	0, cr0, [r1], {1}
   c:	000d0c0e 	andeq	r0, sp, lr, lsl #24
  10:	00000014 	andeq	r0, r0, r4, lsl r0
  14:	00000000 	andeq	r0, r0, r0
  18:	300501f8 	strdcc	r0, [r5], -r8
  1c:	0000001c 	andeq	r0, r0, ip, lsl r0
  20:	8b040e44 	blhi	103938 <_start-0x2ff4c6c8>
  24:	0b0d4401 	bleq	351030 <_start-0x2fcfefd0>
  28:	00000018 	andeq	r0, r0, r8, lsl r0
  2c:	00000000 	andeq	r0, r0, r0
  30:	30050214 	andcc	r0, r5, r4, lsl r2
  34:	000000f8 	strdeq	r0, [r0], -r8
  38:	8e080e44 	cdphi	14, 0, cr0, cr8, cr4, {2}
  3c:	44028b01 	strmi	r8, [r2], #-2817
  40:	00040b0c 	andeq	r0, r4, ip, lsl #22
  44:	0000000c 	.word	0x0000000c
  48:	ffffffff 	.word	0xffffffff
  4c:	7c010001 	.word	0x7c010001
  50:	000d0c0e 	.word	0x000d0c0e
  54:	0018      	.short	0x0018
  56:	0000      	.short	0x0000
  58:	00000044 	.word	0x00000044
  5c:	3005030c 	.word	0x3005030c
  60:	00000034 	.word	0x00000034
  64:	8e080e44 	.word	0x8e080e44
  68:	44028b01 	.word	0x44028b01
  6c:	00040b0c 	.word	0x00040b0c
  70:	00000018 	.word	0x00000018
  74:	00000044 	.word	0x00000044
  78:	30050340 	.word	0x30050340
  7c:	0000003c 	.word	0x0000003c
  80:	8e080e44 	.word	0x8e080e44
  84:	44028b01 	.word	0x44028b01
  88:	00040b0c 	.word	0x00040b0c
  8c:	00000018 	.word	0x00000018
  90:	00000044 	.word	0x00000044
  94:	3005037c 	.word	0x3005037c
  98:	0000003c 	.word	0x0000003c
  9c:	8e080e44 	.word	0x8e080e44
  a0:	44028b01 	.word	0x44028b01
  a4:	00040b0c 	.word	0x00040b0c
  a8:	00000018 	.word	0x00000018
  ac:	00000044 	.word	0x00000044
  b0:	300503b8 	.word	0x300503b8
  b4:	0000004c 	.word	0x0000004c
  b8:	8e080e44 	.word	0x8e080e44
  bc:	44028b01 	.word	0x44028b01
  c0:	00040b0c 	.word	0x00040b0c
  c4:	00000018 	.word	0x00000018
  c8:	00000044 	.word	0x00000044
  cc:	30050404 	.word	0x30050404
  d0:	000001c8 	.word	0x000001c8
  d4:	8e080e44 	.word	0x8e080e44
  d8:	44028b01 	.word	0x44028b01
  dc:	00040b0c 	.word	0x00040b0c
  e0:	00000018 	.word	0x00000018
  e4:	00000044 	.word	0x00000044
  e8:	300505cc 	.word	0x300505cc
  ec:	000000d0 	.word	0x000000d0
  f0:	8e080e44 	.word	0x8e080e44
  f4:	44028b01 	.word	0x44028b01
  f8:	00040b0c 	.word	0x00040b0c
  fc:	00000018 	.word	0x00000018
 100:	00000044 	.word	0x00000044
 104:	3005069c 	.word	0x3005069c
 108:	0000016c 	.word	0x0000016c
 10c:	8e080e44 	.word	0x8e080e44
 110:	44028b01 	.word	0x44028b01
 114:	00040b0c 	.word	0x00040b0c
 118:	0000000c 	.word	0x0000000c
 11c:	ffffffff 	.word	0xffffffff
 120:	7c010001 	.word	0x7c010001
 124:	000d0c0e 	.word	0x000d0c0e
 128:	00000014 	.word	0x00000014
 12c:	00000118 	.word	0x00000118
 130:	30050808 	.word	0x30050808
 134:	000000a0 	.word	0x000000a0
 138:	8b040e44 	.word	0x8b040e44
 13c:	0b0d4401 	.word	0x0b0d4401
 140:	00000014 	.word	0x00000014
 144:	00000118 	.word	0x00000118
 148:	300508a8 	.word	0x300508a8
 14c:	00000080 	.word	0x00000080
 150:	8b040e44 	.word	0x8b040e44
 154:	0b0d4401 	.word	0x0b0d4401
 158:	00000018 	.word	0x00000018
 15c:	00000118 	.word	0x00000118
 160:	30050928 	.word	0x30050928
 164:	000000ac 	.word	0x000000ac
 168:	8e080e44 	.word	0x8e080e44
 16c:	44028b01 	.word	0x44028b01
 170:	00040b0c 	.word	0x00040b0c
 174:	00000014 	.word	0x00000014
 178:	00000118 	.word	0x00000118
 17c:	300509d4 	.word	0x300509d4
 180:	0038      	.short	0x0038
 182:	00          	.byte	0x00
 183:	00          	.byte	0x00
 184:	8b040e44 	.word	0x8b040e44
 188:	0b0d4401 	.word	0x0b0d4401
 18c:	00000018 	.word	0x00000018
 190:	00000118 	.word	0x00000118
 194:	30050a0c 	.word	0x30050a0c
 198:	0000005c 	.word	0x0000005c
 19c:	8e080e44 	.word	0x8e080e44
 1a0:	44028b01 	.word	0x44028b01
 1a4:	00040b0c 	.word	0x00040b0c
 1a8:	00000018 	.word	0x00000018
 1ac:	00000118 	.word	0x00000118
 1b0:	30050a68 	.word	0x30050a68
 1b4:	00000034 	.word	0x00000034
 1b8:	8e080e44 	.word	0x8e080e44
 1bc:	44028b01 	.word	0x44028b01
 1c0:	00040b0c 	.word	0x00040b0c
 1c4:	0000000c 	.word	0x0000000c
 1c8:	ffffffff 	.word	0xffffffff
 1cc:	7c010001 	.word	0x7c010001
 1d0:	000d0c0e 	.word	0x000d0c0e
 1d4:	00000014 	.word	0x00000014
 1d8:	000001c4 	.word	0x000001c4
 1dc:	30050a9c 	.word	0x30050a9c
 1e0:	00000030 	.word	0x00000030
 1e4:	8b040e44 	.word	0x8b040e44
 1e8:	0b0d4401 	.word	0x0b0d4401
 1ec:	00000014 	.word	0x00000014
 1f0:	000001c4 	.word	0x000001c4
 1f4:	30050acc 	.word	0x30050acc
 1f8:	00000030 	.word	0x00000030
 1fc:	8b040e44 	.word	0x8b040e44
 200:	0b0d4401 	.word	0x0b0d4401
 204:	00000014 	.word	0x00000014
 208:	000001c4 	.word	0x000001c4
 20c:	30050afc 	.word	0x30050afc
 210:	00000038 	.word	0x00000038
 214:	8b040e44 	.word	0x8b040e44
 218:	0b0d4401 	.word	0x0b0d4401
 21c:	00000014 	.word	0x00000014
 220:	000001c4 	.word	0x000001c4
 224:	30050b34 	.word	0x30050b34
 228:	00000030 	.word	0x00000030
 22c:	8b040e44 	.word	0x8b040e44
 230:	0b0d4401 	.word	0x0b0d4401
 234:	00000014 	.word	0x00000014
 238:	000001c4 	.word	0x000001c4
 23c:	30050b64 	.word	0x30050b64
 240:	00000030 	.word	0x00000030
 244:	8b040e44 	.word	0x8b040e44
 248:	0b0d4401 	.word	0x0b0d4401
 24c:	00000014 	.word	0x00000014
 250:	000001c4 	.word	0x000001c4
 254:	30050b94 	.word	0x30050b94
 258:	00000030 	.word	0x00000030
 25c:	8b040e44 	.word	0x8b040e44
 260:	0b0d4401 	.word	0x0b0d4401
 264:	00000018 	.word	0x00000018
 268:	000001c4 	.word	0x000001c4
 26c:	30050bc4 	.word	0x30050bc4
 270:	0000002c 	.word	0x0000002c
 274:	8e080e44 	.word	0x8e080e44
 278:	44028b01 	.word	0x44028b01
 27c:	00040b0c 	.word	0x00040b0c
 280:	00000018 	.word	0x00000018
 284:	c4          	.byte	0xc4
 285:	01          	.byte	0x01
 286:	0000      	.short	0x0000
 288:	30050bf0 	.word	0x30050bf0
 28c:	00000038 	.word	0x00000038
 290:	8e080e44 	.word	0x8e080e44
 294:	44028b01 	.word	0x44028b01
 298:	00040b0c 	.word	0x00040b0c
 29c:	00000018 	.word	0x00000018
 2a0:	000001c4 	.word	0x000001c4
 2a4:	30050c28 	.word	0x30050c28
 2a8:	000000d4 	.word	0x000000d4
 2ac:	8e080e44 	.word	0x8e080e44
 2b0:	44028b01 	.word	0x44028b01
 2b4:	00040b0c 	.word	0x00040b0c
 2b8:	00000018 	.word	0x00000018
 2bc:	000001c4 	.word	0x000001c4
 2c0:	30050cfc 	.word	0x30050cfc
 2c4:	00000074 	.word	0x00000074
 2c8:	8e080e44 	.word	0x8e080e44
 2cc:	44028b01 	.word	0x44028b01
 2d0:	00040b0c 	.word	0x00040b0c
 2d4:	00000018 	.word	0x00000018
 2d8:	000001c4 	.word	0x000001c4
 2dc:	30050d70 	.word	0x30050d70
 2e0:	00000098 	.word	0x00000098
 2e4:	8e080e44 	.word	0x8e080e44
 2e8:	44028b01 	.word	0x44028b01
 2ec:	00040b0c 	.word	0x00040b0c
 2f0:	00000018 	.word	0x00000018
 2f4:	000001c4 	.word	0x000001c4
 2f8:	30050e08 	.word	0x30050e08
 2fc:	000000fc 	.word	0x000000fc
 300:	8e080e44 	.word	0x8e080e44
 304:	44028b01 	.word	0x44028b01
 308:	00040b0c 	.word	0x00040b0c
 30c:	0000000c 	.word	0x0000000c
 310:	ffffffff 	.word	0xffffffff
 314:	7c010001 	.word	0x7c010001
 318:	000d0c0e 	.word	0x000d0c0e
 31c:	00000014 	.word	0x00000014
 320:	0000030c 	.word	0x0000030c
 324:	30050f04 	.word	0x30050f04
 328:	00000044 	.word	0x00000044
 32c:	8b040e44 	.word	0x8b040e44
 330:	0b0d4401 	.word	0x0b0d4401
 334:	00000014 	.word	0x00000014
 338:	0000030c 	.word	0x0000030c
 33c:	30050f48 	.word	0x30050f48
 340:	00000070 	.word	0x00000070
 344:	8b040e44 	.word	0x8b040e44
 348:	0b0d4401 	.word	0x0b0d4401
 34c:	00000014 	.word	0x00000014
 350:	0000030c 	.word	0x0000030c
 354:	30050fb8 	.word	0x30050fb8
 358:	000000a0 	.word	0x000000a0
 35c:	8b040e44 	.word	0x8b040e44
 360:	0b0d4401 	.word	0x0b0d4401
 364:	0000000c 	.word	0x0000000c
 368:	ffffffff 	.word	0xffffffff
 36c:	7c010001 	.word	0x7c010001
 370:	000d0c0e 	.word	0x000d0c0e
 374:	00000014 	.word	0x00000014
 378:	00000364 	.word	0x00000364
 37c:	30051058 	.word	0x30051058
 380:	0000010c 	.word	0x0000010c
 384:	8b040e44 	.word	0x8b040e44
 388:	0b0d4401 	.word	0x0b0d4401
 38c:	00000014 	.word	0x00000014
 390:	00000364 	.word	0x00000364
 394:	30051164 	.word	0x30051164
 398:	00000060 	.word	0x00000060
 39c:	8b040e44 	.word	0x8b040e44
 3a0:	0b0d4401 	.word	0x0b0d4401
 3a4:	00000014 	.word	0x00000014
 3a8:	00000364 	.word	0x00000364
 3ac:	300511c4 	.word	0x300511c4
 3b0:	00000090 	.word	0x00000090
 3b4:	8b040e44 	.word	0x8b040e44
 3b8:	0b0d4401 	.word	0x0b0d4401
 3bc:	00000014 	.word	0x00000014
 3c0:	00000364 	.word	0x00000364
 3c4:	30051254 	.word	0x30051254
 3c8:	00000090 	.word	0x00000090
 3cc:	8b040e44 	.word	0x8b040e44
 3d0:	0b0d4401 	.word	0x0b0d4401
 3d4:	00000014 	.word	0x00000014
 3d8:	00000364 	.word	0x00000364
 3dc:	300512e4 	.word	0x300512e4
 3e0:	00000068 	.word	0x00000068
 3e4:	8b040e44 	.word	0x8b040e44
 3e8:	0b0d4401 	.word	0x0b0d4401
 3ec:	00000014 	.word	0x00000014
 3f0:	00000364 	.word	0x00000364
 3f4:	3005134c 	.word	0x3005134c
 3f8:	00000084 	.word	0x00000084
 3fc:	8b040e44 	.word	0x8b040e44
 400:	0b0d4401 	.word	0x0b0d4401
 404:	00000014 	.word	0x00000014
 408:	00000364 	.word	0x00000364
 40c:	300513d0 	.word	0x300513d0
 410:	000000cc 	.word	0x000000cc
 414:	8b040e44 	.word	0x8b040e44
 418:	0b0d4401 	.word	0x0b0d4401
 41c:	00000018 	.word	0x00000018
 420:	00000364 	.word	0x00000364
 424:	3005149c 	.word	0x3005149c
 428:	00000160 	.word	0x00000160
 42c:	8e080e44 	.word	0x8e080e44
 430:	44028b01 	.word	0x44028b01
 434:	00040b0c 	.word	0x00040b0c
 438:	00000018 	.word	0x00000018
 43c:	00000364 	.word	0x00000364
 440:	300515fc 	.word	0x300515fc
 444:	000002c0 	.word	0x000002c0
 448:	8e080e44 	.word	0x8e080e44
 44c:	44028b01 	.word	0x44028b01
 450:	00040b0c 	.word	0x00040b0c
 454:	0000000c 	.word	0x0000000c
 458:	ffffffff 	.word	0xffffffff
 45c:	7c010001 	.word	0x7c010001
 460:	000d0c0e 	.word	0x000d0c0e
 464:	00000014 	.word	0x00000014
 468:	00000454 	.word	0x00000454
 46c:	300518bc 	.word	0x300518bc
 470:	00000024 	.word	0x00000024
 474:	8b040e44 	.word	0x8b040e44
 478:	0b0d4401 	.word	0x0b0d4401
 47c:	00000014 	.word	0x00000014
 480:	00000454 	.word	0x00000454
 484:	300518e0 	.word	0x300518e0
 488:	00          	.byte	0x00
 489:	01          	.byte	0x01
 48a:	0000      	.short	0x0000
 48c:	8b040e44 	.word	0x8b040e44
 490:	0b0d4401 	.word	0x0b0d4401
 494:	0000000c 	.word	0x0000000c
 498:	ffffffff 	.word	0xffffffff
 49c:	7c010001 	.word	0x7c010001
 4a0:	000d0c0e 	.word	0x000d0c0e
 4a4:	00000018 	.word	0x00000018
 4a8:	00000494 	.word	0x00000494
 4ac:	300519e0 	.word	0x300519e0
 4b0:	0000006c 	.word	0x0000006c
 4b4:	8e080e44 	.word	0x8e080e44
 4b8:	44028b01 	.word	0x44028b01
 4bc:	00040b0c 	.word	0x00040b0c
 4c0:	0000000c 	.word	0x0000000c
 4c4:	ffffffff 	.word	0xffffffff
 4c8:	7c010001 	.word	0x7c010001
 4cc:	000d0c0e 	.word	0x000d0c0e
 4d0:	00000018 	.word	0x00000018
 4d4:	000004c0 	.word	0x000004c0
 4d8:	30051a4c 	.word	0x30051a4c
 4dc:	00000140 	.word	0x00000140
 4e0:	8e080e44 	.word	0x8e080e44
 4e4:	44028b01 	.word	0x44028b01
 4e8:	00040b0c 	.word	0x00040b0c
 4ec:	00000018 	.word	0x00000018
 4f0:	000004c0 	.word	0x000004c0
 4f4:	30051b8c 	.word	0x30051b8c
 4f8:	000000e4 	.word	0x000000e4
 4fc:	8e080e44 	.word	0x8e080e44
 500:	44028b01 	.word	0x44028b01
 504:	00040b0c 	.word	0x00040b0c
 508:	000c      	.short	0x000c
 50a:	0000      	.short	0x0000
 50c:	ffffffff 	.word	0xffffffff
 510:	7c010001 	.word	0x7c010001
 514:	000d0c0e 	.word	0x000d0c0e
 518:	00000018 	.word	0x00000018
 51c:	00000508 	.word	0x00000508
 520:	30051c70 	.word	0x30051c70
 524:	0000006c 	.word	0x0000006c
 528:	8e080e44 	.word	0x8e080e44
 52c:	44028b01 	.word	0x44028b01
 530:	00040b0c 	.word	0x00040b0c
 534:	00000018 	.word	0x00000018
 538:	00000508 	.word	0x00000508
 53c:	30051cdc 	.word	0x30051cdc
 540:	00000024 	.word	0x00000024
 544:	8e080e44 	.word	0x8e080e44
 548:	44028b01 	.word	0x44028b01
 54c:	00040b0c 	.word	0x00040b0c
 550:	00000014 	.word	0x00000014
 554:	00000508 	.word	0x00000508
 558:	30051d00 	.word	0x30051d00
 55c:	00000060 	.word	0x00000060
 560:	8b040e44 	.word	0x8b040e44
 564:	0b0d4401 	.word	0x0b0d4401
 568:	00000014 	.word	0x00000014
 56c:	00000508 	.word	0x00000508
 570:	30051d60 	.word	0x30051d60
 574:	0000004c 	.word	0x0000004c
 578:	8b040e44 	.word	0x8b040e44
 57c:	0b0d4401 	.word	0x0b0d4401
 580:	00000014 	.word	0x00000014
 584:	00000508 	.word	0x00000508
 588:	30051dac 	.word	0x30051dac
 58c:	00000160 	.word	0x00000160
 590:	8b040e44 	.word	0x8b040e44
 594:	0b0d4401 	.word	0x0b0d4401
 598:	00000014 	.word	0x00000014
 59c:	00000508 	.word	0x00000508
 5a0:	30051f0c 	.word	0x30051f0c
 5a4:	000000b4 	.word	0x000000b4
 5a8:	8b040e44 	.word	0x8b040e44
 5ac:	0b0d4401 	.word	0x0b0d4401
 5b0:	00000014 	.word	0x00000014
 5b4:	00000508 	.word	0x00000508
 5b8:	30051fc0 	.word	0x30051fc0
 5bc:	0000013c 	.word	0x0000013c
 5c0:	8b040e44 	.word	0x8b040e44
 5c4:	0b0d4401 	.word	0x0b0d4401
 5c8:	00000018 	.word	0x00000018
 5cc:	00000508 	.word	0x00000508
 5d0:	300520fc 	.word	0x300520fc
 5d4:	000000c8 	.word	0x000000c8
 5d8:	8e080e44 	.word	0x8e080e44
 5dc:	44028b01 	.word	0x44028b01
 5e0:	00040b0c 	.word	0x00040b0c
 5e4:	00000014 	.word	0x00000014
 5e8:	00000508 	.word	0x00000508
 5ec:	300521c4 	.word	0x300521c4
 5f0:	0000005c 	.word	0x0000005c
 5f4:	8b040e44 	.word	0x8b040e44
 5f8:	0b0d4401 	.word	0x0b0d4401
 5fc:	00000014 	.word	0x00000014
 600:	00000508 	.word	0x00000508
 604:	30052220 	.word	0x30052220
 608:	0000004c 	.word	0x0000004c
 60c:	8b040e44 	.word	0x8b040e44
 610:	0b0d4401 	.word	0x0b0d4401
 614:	00000014 	.word	0x00000014
 618:	00000508 	.word	0x00000508
 61c:	3005226c 	.word	0x3005226c
 620:	0000006c 	.word	0x0000006c
 624:	8b040e44 	.word	0x8b040e44
 628:	0b0d4401 	.word	0x0b0d4401
 62c:	00000014 	.word	0x00000014
 630:	00000508 	.word	0x00000508
 634:	300522d8 	.word	0x300522d8
 638:	0000006c 	.word	0x0000006c
 63c:	8b040e44 	.word	0x8b040e44
 640:	0b0d4401 	.word	0x0b0d4401
 644:	0000000c 	.word	0x0000000c
 648:	ffffffff 	.word	0xffffffff
 64c:	7c010001 	.word	0x7c010001
 650:	000d0c0e 	.word	0x000d0c0e
 654:	00000014 	.word	0x00000014
 658:	00000644 	.word	0x00000644
 65c:	30052344 	.word	0x30052344
 660:	000000b8 	.word	0x000000b8
 664:	8b040e44 	.word	0x8b040e44
 668:	0b0d4401 	.word	0x0b0d4401
 66c:	00000018 	.word	0x00000018
 670:	00000644 	.word	0x00000644
 674:	300523fc 	.word	0x300523fc
 678:	00000130 	.word	0x00000130
 67c:	8e080e44 	.word	0x8e080e44
 680:	44028b01 	.word	0x44028b01
 684:	00040b0c 	.word	0x00040b0c
 688:	0000000c 	.word	0x0000000c
 68c:	ffffffff 	.word	0xffffffff
 690:	7c010001 	.word	0x7c010001
 694:	000d0c0e 	.word	0x000d0c0e
 698:	00000018 	.word	0x00000018
 69c:	00000688 	.word	0x00000688
 6a0:	3005252c 	.word	0x3005252c
 6a4:	000000a8 	.word	0x000000a8
 6a8:	8e080e44 	.word	0x8e080e44
 6ac:	44028b01 	.word	0x44028b01
 6b0:	00040b0c 	.word	0x00040b0c
 6b4:	00000018 	.word	0x00000018
 6b8:	00000688 	.word	0x00000688
 6bc:	300525d4 	.word	0x300525d4
 6c0:	00000030 	.word	0x00000030
 6c4:	8e080e44 	.word	0x8e080e44
 6c8:	44028b01 	.word	0x44028b01
 6cc:	00040b0c 	.word	0x00040b0c
 6d0:	00000014 	.word	0x00000014
 6d4:	00000688 	.word	0x00000688
 6d8:	30052604 	.word	0x30052604
 6dc:	00000048 	.word	0x00000048
 6e0:	8b040e44 	.word	0x8b040e44
 6e4:	0b0d4401 	.word	0x0b0d4401
 6e8:	00000014 	.word	0x00000014
 6ec:	00000688 	.word	0x00000688
 6f0:	3005264c 	.word	0x3005264c
 6f4:	00000148 	.word	0x00000148
 6f8:	8b040e44 	.word	0x8b040e44
 6fc:	0b0d4401 	.word	0x0b0d4401
 700:	00000014 	.word	0x00000014
 704:	00000688 	.word	0x00000688
 708:	30052794 	.word	0x30052794
 70c:	0000011c 	.word	0x0000011c
 710:	8b040e44 	.word	0x8b040e44
 714:	0b0d4401 	.word	0x0b0d4401
 718:	00000014 	.word	0x00000014
 71c:	00000688 	.word	0x00000688
 720:	300528b0 	.word	0x300528b0
 724:	00000080 	.word	0x00000080
 728:	8b040e44 	.word	0x8b040e44
 72c:	0b0d4401 	.word	0x0b0d4401
 730:	00000014 	.word	0x00000014
 734:	00000688 	.word	0x00000688
 738:	30052930 	.word	0x30052930
 73c:	00000030 	.word	0x00000030
 740:	8b040e44 	.word	0x8b040e44
 744:	0b0d4401 	.word	0x0b0d4401
 748:	00000014 	.word	0x00000014
 74c:	00000688 	.word	0x00000688
 750:	30052960 	.word	0x30052960
 754:	00000030 	.word	0x00000030
 758:	8b040e44 	.word	0x8b040e44
 75c:	0b0d4401 	.word	0x0b0d4401
 760:	0000000c 	.word	0x0000000c
 764:	ffffffff 	.word	0xffffffff
 768:	7c010001 	.word	0x7c010001
 76c:	000d0c0e 	.word	0x000d0c0e
 770:	00000018 	.word	0x00000018
 774:	00000760 	.word	0x00000760
 778:	30052990 	.word	0x30052990
 77c:	0000002c 	.word	0x0000002c
 780:	8e080e44 	.word	0x8e080e44
 784:	44028b01 	.word	0x44028b01
 788:	00040b0c 	.word	0x00040b0c
 78c:	00000018 	.word	0x00000018
 790:	00000760 	.word	0x00000760
 794:	300529bc 	.word	0x300529bc
 798:	00000024 	.word	0x00000024
 79c:	8e080e44 	.word	0x8e080e44
 7a0:	44028b01 	.word	0x44028b01
 7a4:	00040b0c 	.word	0x00040b0c
 7a8:	00000018 	.word	0x00000018
 7ac:	00000760 	.word	0x00000760
 7b0:	300529e0 	.word	0x300529e0
 7b4:	00000024 	.word	0x00000024
 7b8:	8e080e44 	.word	0x8e080e44
 7bc:	44028b01 	.word	0x44028b01
 7c0:	00040b0c 	.word	0x00040b0c
 7c4:	0000001c 	.word	0x0000001c
 7c8:	00000760 	.word	0x00000760
 7cc:	30052a04 	.word	0x30052a04
 7d0:	00000040 	.word	0x00000040
 7d4:	8e0c0e44 	.word	0x8e0c0e44
 7d8:	84028b01 	.word	0x84028b01
 7dc:	0b0c4403 	.word	0x0b0c4403
 7e0:	00000004 	.word	0x00000004
 7e4:	00000018 	.word	0x00000018
 7e8:	00000760 	.word	0x00000760
 7ec:	30052a44 	.word	0x30052a44
 7f0:	0000003c 	.word	0x0000003c
 7f4:	8e080e44 	.word	0x8e080e44
 7f8:	44028b01 	.word	0x44028b01
 7fc:	00040b0c 	.word	0x00040b0c
 800:	00000018 	.word	0x00000018
 804:	00000760 	.word	0x00000760
 808:	30052a80 	.word	0x30052a80
 80c:	0000003c 	.word	0x0000003c
 810:	8e080e44 	.word	0x8e080e44
 814:	44028b01 	.word	0x44028b01
 818:	00040b0c 	.word	0x00040b0c
 81c:	00000018 	.word	0x00000018
 820:	00000760 	.word	0x00000760
 824:	30052abc 	.word	0x30052abc
 828:	0000002c 	.word	0x0000002c
 82c:	8e080e44 	.word	0x8e080e44
 830:	44028b01 	.word	0x44028b01
 834:	00040b0c 	.word	0x00040b0c
 838:	00000018 	.word	0x00000018
 83c:	00000760 	.word	0x00000760
 840:	30052ae8 	.word	0x30052ae8
 844:	0000002c 	.word	0x0000002c
 848:	8e080e44 	.word	0x8e080e44
 84c:	44028b01 	.word	0x44028b01
 850:	00040b0c 	.word	0x00040b0c
 854:	0000000c 	.word	0x0000000c
 858:	ffffffff 	.word	0xffffffff
 85c:	7c010001 	.word	0x7c010001
 860:	000d0c0e 	.word	0x000d0c0e
 864:	00000018 	.word	0x00000018
 868:	00000854 	.word	0x00000854
 86c:	30052b14 	.word	0x30052b14
 870:	0000002c 	.word	0x0000002c
 874:	8e080e44 	.word	0x8e080e44
 878:	44028b01 	.word	0x44028b01
 87c:	00040b0c 	.word	0x00040b0c
 880:	00000018 	.word	0x00000018
 884:	00000854 	.word	0x00000854
 888:	30052b40 	.word	0x30052b40
 88c:	00000024 	.word	0x00000024
 890:	8e080e44 	.word	0x8e080e44
 894:	44028b01 	.word	0x44028b01
 898:	00040b0c 	.word	0x00040b0c
 89c:	00000018 	.word	0x00000018
 8a0:	00000854 	.word	0x00000854
 8a4:	30052b64 	.word	0x30052b64
 8a8:	00000024 	.word	0x00000024
 8ac:	8e080e44 	.word	0x8e080e44
 8b0:	44028b01 	.word	0x44028b01
 8b4:	00040b0c 	.word	0x00040b0c
 8b8:	0000001c 	.word	0x0000001c
 8bc:	00000854 	.word	0x00000854
 8c0:	30052b88 	.word	0x30052b88
 8c4:	00000048 	.word	0x00000048
 8c8:	8e0c0e44 	.word	0x8e0c0e44
 8cc:	84028b01 	.word	0x84028b01
 8d0:	0b0c4403 	.word	0x0b0c4403
 8d4:	00000004 	.word	0x00000004
 8d8:	00000018 	.word	0x00000018
 8dc:	00000854 	.word	0x00000854
 8e0:	30052bd0 	.word	0x30052bd0
 8e4:	00000030 	.word	0x00000030
 8e8:	8e080e44 	.word	0x8e080e44
 8ec:	44028b01 	.word	0x44028b01
 8f0:	00040b0c 	.word	0x00040b0c
 8f4:	00000018 	.word	0x00000018
 8f8:	00000854 	.word	0x00000854
 8fc:	30052c00 	.word	0x30052c00
 900:	00000030 	.word	0x00000030
 904:	8e080e44 	.word	0x8e080e44
 908:	44028b01 	.word	0x44028b01
 90c:	00040b0c 	.word	0x00040b0c
 910:	00000018 	.word	0x00000018
 914:	00000854 	.word	0x00000854
 918:	30052c30 	.word	0x30052c30
 91c:	0000002c 	.word	0x0000002c
 920:	8e080e44 	.word	0x8e080e44
 924:	44028b01 	.word	0x44028b01
 928:	00040b0c 	.word	0x00040b0c
 92c:	00000018 	.word	0x00000018
 930:	00000854 	.word	0x00000854
 934:	30052c5c 	.word	0x30052c5c
 938:	0000002c 	.word	0x0000002c
 93c:	8e080e44 	.word	0x8e080e44
 940:	44028b01 	.word	0x44028b01
 944:	00040b0c 	.word	0x00040b0c
 948:	0000000c 	.word	0x0000000c
 94c:	ffffffff 	.word	0xffffffff
 950:	7c010001 	.word	0x7c010001
 954:	000d0c0e 	.word	0x000d0c0e
 958:	00000018 	.word	0x00000018
 95c:	00000948 	.word	0x00000948
 960:	30052c88 	.word	0x30052c88
 964:	00000054 	.word	0x00000054
 968:	8e080e44 	.word	0x8e080e44
 96c:	44028b01 	.word	0x44028b01
 970:	00040b0c 	.word	0x00040b0c
 974:	00000018 	.word	0x00000018
 978:	00000948 	.word	0x00000948
 97c:	30052cdc 	.word	0x30052cdc
 980:	00000024 	.word	0x00000024
 984:	8e080e44 	.word	0x8e080e44
 988:	44028b01 	.word	0x44028b01
 98c:	00040b0c 	.word	0x00040b0c
 990:	00000014 	.word	0x00000014
 994:	00000948 	.word	0x00000948
 998:	30052d00 	.word	0x30052d00
 99c:	00000048 	.word	0x00000048
 9a0:	8b040e44 	.word	0x8b040e44
 9a4:	0b0d4401 	.word	0x0b0d4401
 9a8:	00000014 	.word	0x00000014
 9ac:	00000948 	.word	0x00000948
 9b0:	30052d48 	.word	0x30052d48
 9b4:	0000004c 	.word	0x0000004c
 9b8:	8b040e44 	.word	0x8b040e44
 9bc:	4401      	.short	0x4401
 9be:	0b0d      	.short	0x0b0d
 9c0:	00000014 	.word	0x00000014
 9c4:	00000948 	.word	0x00000948
 9c8:	30052d94 	.word	0x30052d94
 9cc:	00000104 	.word	0x00000104
 9d0:	8b040e44 	.word	0x8b040e44
 9d4:	0b0d4401 	.word	0x0b0d4401
 9d8:	00000014 	.word	0x00000014
 9dc:	00000948 	.word	0x00000948
 9e0:	30052e98 	.word	0x30052e98
 9e4:	000000b4 	.word	0x000000b4
 9e8:	8b040e44 	.word	0x8b040e44
 9ec:	0b0d4401 	.word	0x0b0d4401
 9f0:	00000014 	.word	0x00000014
 9f4:	00000948 	.word	0x00000948
 9f8:	30052f4c 	.word	0x30052f4c
 9fc:	000000d8 	.word	0x000000d8
 a00:	8b040e44 	.word	0x8b040e44
 a04:	0b0d4401 	.word	0x0b0d4401
 a08:	0000000c 	.word	0x0000000c
 a0c:	ffffffff 	.word	0xffffffff
 a10:	7c010001 	.word	0x7c010001
 a14:	000d0c0e 	.word	0x000d0c0e
 a18:	00000018 	.word	0x00000018
 a1c:	00000a08 	.word	0x00000a08
 a20:	30053024 	.word	0x30053024
 a24:	00000020 	.word	0x00000020
 a28:	8e080e44 	.word	0x8e080e44
 a2c:	44028b01 	.word	0x44028b01
 a30:	00040b0c 	.word	0x00040b0c
 a34:	00000018 	.word	0x00000018
 a38:	00000a08 	.word	0x00000a08
 a3c:	30053044 	.word	0x30053044
 a40:	0000002c 	.word	0x0000002c
 a44:	8e080e44 	.word	0x8e080e44
 a48:	44028b01 	.word	0x44028b01
 a4c:	00040b0c 	.word	0x00040b0c
 a50:	00000018 	.word	0x00000018
 a54:	00000a08 	.word	0x00000a08
 a58:	30053070 	.word	0x30053070
 a5c:	0000003c 	.word	0x0000003c
 a60:	8e080e44 	.word	0x8e080e44
 a64:	44028b01 	.word	0x44028b01
 a68:	00040b0c 	.word	0x00040b0c
 a6c:	00000018 	.word	0x00000018
 a70:	00000a08 	.word	0x00000a08
 a74:	300530ac 	.word	0x300530ac
 a78:	000000b4 	.word	0x000000b4
 a7c:	8e080e44 	.word	0x8e080e44
 a80:	44028b01 	.word	0x44028b01
 a84:	00040b0c 	.word	0x00040b0c
 a88:	00000018 	.word	0x00000018
 a8c:	00000a08 	.word	0x00000a08
 a90:	30053160 	.word	0x30053160
 a94:	00000060 	.word	0x00000060
 a98:	8e080e44 	.word	0x8e080e44
 a9c:	44028b01 	.word	0x44028b01
 aa0:	00040b0c 	.word	0x00040b0c
 aa4:	00000018 	.word	0x00000018
 aa8:	00000a08 	.word	0x00000a08
 aac:	300531c0 	.word	0x300531c0
 ab0:	00000058 	.word	0x00000058
 ab4:	8e080e44 	.word	0x8e080e44
 ab8:	44028b01 	.word	0x44028b01
 abc:	00040b0c 	.word	0x00040b0c
 ac0:	00000018 	.word	0x00000018
 ac4:	00000a08 	.word	0x00000a08
 ac8:	30053218 	.word	0x30053218
 acc:	0000002c 	.word	0x0000002c
 ad0:	8e080e44 	.word	0x8e080e44
 ad4:	44028b01 	.word	0x44028b01
 ad8:	00040b0c 	.word	0x00040b0c
 adc:	0000000c 	.word	0x0000000c
 ae0:	ffffffff 	.word	0xffffffff
 ae4:	7c010001 	.word	0x7c010001
 ae8:	000d0c0e 	.word	0x000d0c0e
 aec:	00000018 	.word	0x00000018
 af0:	00000adc 	.word	0x00000adc
 af4:	30053244 	.word	0x30053244
 af8:	00000020 	.word	0x00000020
 afc:	8e080e44 	.word	0x8e080e44
 b00:	44028b01 	.word	0x44028b01
 b04:	00040b0c 	.word	0x00040b0c
 b08:	00000018 	.word	0x00000018
 b0c:	00000adc 	.word	0x00000adc
 b10:	30053264 	.word	0x30053264
 b14:	0038      	.short	0x0038
 b16:	0000      	.short	0x0000
 b18:	8e080e44 	.word	0x8e080e44
 b1c:	44028b01 	.word	0x44028b01
 b20:	00040b0c 	.word	0x00040b0c
 b24:	00000018 	.word	0x00000018
 b28:	00000adc 	.word	0x00000adc
 b2c:	3005329c 	.word	0x3005329c
 b30:	00000084 	.word	0x00000084
 b34:	8e080e44 	.word	0x8e080e44
 b38:	44028b01 	.word	0x44028b01
 b3c:	00040b0c 	.word	0x00040b0c
 b40:	00000018 	.word	0x00000018
 b44:	00000adc 	.word	0x00000adc
 b48:	30053320 	.word	0x30053320
 b4c:	000000b0 	.word	0x000000b0
 b50:	8e080e44 	.word	0x8e080e44
 b54:	44028b01 	.word	0x44028b01
 b58:	00040b0c 	.word	0x00040b0c
 b5c:	00000018 	.word	0x00000018
 b60:	00000adc 	.word	0x00000adc
 b64:	300533d0 	.word	0x300533d0
 b68:	00000074 	.word	0x00000074
 b6c:	8e080e44 	.word	0x8e080e44
 b70:	44028b01 	.word	0x44028b01
 b74:	00040b0c 	.word	0x00040b0c
 b78:	00000018 	.word	0x00000018
 b7c:	00000adc 	.word	0x00000adc
 b80:	30053444 	.word	0x30053444
 b84:	0000006c 	.word	0x0000006c
 b88:	8e080e44 	.word	0x8e080e44
 b8c:	44028b01 	.word	0x44028b01
 b90:	00040b0c 	.word	0x00040b0c
 b94:	00000018 	.word	0x00000018
 b98:	00000adc 	.word	0x00000adc
 b9c:	300534b0 	.word	0x300534b0
 ba0:	0000002c 	.word	0x0000002c
 ba4:	8e080e44 	.word	0x8e080e44
 ba8:	44028b01 	.word	0x44028b01
 bac:	00040b0c 	.word	0x00040b0c
 bb0:	0000000c 	.word	0x0000000c
 bb4:	ffffffff 	.word	0xffffffff
 bb8:	7c010001 	.word	0x7c010001
 bbc:	000d0c0e 	.word	0x000d0c0e
 bc0:	0000001c 	.word	0x0000001c
 bc4:	00000bb0 	.word	0x00000bb0
 bc8:	3005a77c 	.word	0x3005a77c
 bcc:	00000090 	.word	0x00000090
 bd0:	8e0c0e44 	.word	0x8e0c0e44
 bd4:	84028b01 	.word	0x84028b01
 bd8:	0b0c4403 	.word	0x0b0c4403
 bdc:	00000004 	.word	0x00000004
 be0:	0000000c 	.word	0x0000000c
 be4:	ffffffff 	.word	0xffffffff
 be8:	7c010001 	.word	0x7c010001
 bec:	000d0c0e 	.word	0x000d0c0e
 bf0:	0000000c 	.word	0x0000000c
 bf4:	00000be0 	.word	0x00000be0
 bf8:	3005b84c 	.word	0x3005b84c
 bfc:	000000f4 	.word	0x000000f4
 c00:	0000000c 	.word	0x0000000c
 c04:	ffffffff 	.word	0xffffffff
 c08:	7c010001 	.word	0x7c010001
 c0c:	000d0c0e 	.word	0x000d0c0e
 c10:	0000000c 	.word	0x0000000c
 c14:	00000c00 	.word	0x00000c00
 c18:	3005b960 	.word	0x3005b960
 c1c:	00000128 	.word	0x00000128
Disassembly of section .debug_loc:

00000000 <.debug_loc>:
       0:	00000000 	andeq	r0, r0, r0
       4:	00000004 	andeq	r0, r0, r4
       8:	045d0001 	ldrbeq	r0, [sp], #-1
       c:	08000000 	stmdaeq	r0, {}
      10:	02000000 	andeq	r0, r0, #0	; 0x0
      14:	08047d00 	stmdaeq	r4, {r8, sl, fp, ip, sp, lr}
      18:	1c000000 	stcne	0, cr0, [r0], {0}
      1c:	02000000 	andeq	r0, r0, #0	; 0x0
      20:	00047b00 	andeq	r7, r4, r0, lsl #22
      24:	00000000 	andeq	r0, r0, r0
      28:	1c000000 	stcne	0, cr0, [r0], {0}
      2c:	20000000 	andcs	r0, r0, r0
      30:	01000000 	tsteq	r0, r0
      34:	00205d00 	eoreq	r5, r0, r0, lsl #26
      38:	00240000 	eoreq	r0, r4, r0
      3c:	00020000 	andeq	r0, r2, r0
      40:	0024087d 	eoreq	r0, r4, sp, ror r8
      44:	01140000 	tsteq	r4, r0
      48:	00020000 	andeq	r0, r2, r0
      4c:	0000047b 	andeq	r0, r0, fp, ror r4
	...
      58:	00040000 	.word	0x00040000
      5c:	00010000 	.word	0x00010000
      60:	0000045d 	.word	0x0000045d
      64:	00000800 	.word	0x00000800
      68:	7d000200 	.word	0x7d000200
      6c:	00000808 	.word	0x00000808
      70:	00003400 	.word	0x00003400
      74:	7b000200 	.word	0x7b000200
      78:	00000004 	.word	0x00000004
      7c:	00000000 	.word	0x00000000
      80:	00003400 	.word	0x00003400
      84:	00003800 	.word	0x00003800
      88:	5d000100 	.word	0x5d000100
      8c:	00000038 	.word	0x00000038
      90:	0000003c 	.word	0x0000003c
      94:	087d0002 	.word	0x087d0002
      98:	0000003c 	.word	0x0000003c
      9c:	00000070 	.word	0x00000070
      a0:	047b0002 	.word	0x047b0002
	...
      ac:	00000070 	.word	0x00000070
      b0:	00000074 	.word	0x00000074
      b4:	745d0001 	.word	0x745d0001
      b8:	78000000 	.word	0x78000000
      bc:	02000000 	.word	0x02000000
      c0:	78087d00 	.word	0x78087d00
      c4:	ac000000 	.word	0xac000000
      c8:	02000000 	.word	0x02000000
      cc:	00047b00 	.word	0x00047b00
      d0:	00000000 	.word	0x00000000
      d4:	ac000000 	.word	0xac000000
      d8:	b0000000 	.word	0xb0000000
      dc:	01000000 	.word	0x01000000
      e0:	00b05d00 	.word	0x00b05d00
      e4:	00b40000 	.word	0x00b40000
      e8:	00020000 	.word	0x00020000
      ec:	00b4087d 	.word	0x00b4087d
      f0:	00f80000 	.word	0x00f80000
      f4:	00020000 	.word	0x00020000
      f8:	0000047b 	.word	0x0000047b
      fc:	00000000 	.word	0x00000000
     100:	00f80000 	.word	0x00f80000
     104:	00fc0000 	.word	0x00fc0000
     108:	00010000 	.word	0x00010000
     10c:	0000fc5d 	.word	0x0000fc5d
     110:	00010000 	.word	0x00010000
     114:	7d000200 	.word	0x7d000200
     118:	00010008 	.word	0x00010008
     11c:	0002c000 	.word	0x0002c000
     120:	7b000200 	.word	0x7b000200
     124:	00000004 	.word	0x00000004
     128:	00000000 	.word	0x00000000
     12c:	0002c000 	.word	0x0002c000
     130:	0002c400 	.word	0x0002c400
     134:	5d000100 	.word	0x5d000100
     138:	000002c4 	.word	0x000002c4
     13c:	000002c8 	.word	0x000002c8
     140:	087d0002 	.word	0x087d0002
     144:	000002c8 	.word	0x000002c8
     148:	00000390 	.word	0x00000390
     14c:	047b0002 	.word	0x047b0002
	...
     158:	00000390 	.word	0x00000390
     15c:	00000394 	.word	0x00000394
     160:	945d0001 	.word	0x945d0001
     164:	98000003 	.word	0x98000003
     168:	02000003 	.word	0x02000003
     16c:	98087d00 	.word	0x98087d00
     170:	fc000003 	.word	0xfc000003
     174:	02000004 	.word	0x02000004
     178:	00047b00 	.word	0x00047b00
	...
     184:	04000000 	.word	0x04000000
     188:	01000000 	.word	0x01000000
     18c:	00045d00 	.word	0x00045d00
     190:	00080000 	.word	0x00080000
     194:	00020000 	.word	0x00020000
     198:	0008047d 	.word	0x0008047d
     19c:	00a00000 	.word	0x00a00000
     1a0:	00020000 	.word	0x00020000
     1a4:	0000047b 	.word	0x0000047b
     1a8:	00000000 	.word	0x00000000
     1ac:	00a00000 	.word	0x00a00000
     1b0:	00a40000 	.word	0x00a40000
     1b4:	00010000 	.word	0x00010000
     1b8:	0000a45d 	.word	0x0000a45d
     1bc:	0000a800 	.word	0x0000a800
     1c0:	7d000200 	.word	0x7d000200
     1c4:	0000a804 	.word	0x0000a804
     1c8:	00012000 	.word	0x00012000
     1cc:	7b000200 	.word	0x7b000200
     1d0:	00000004 	.word	0x00000004
     1d4:	00000000 	.word	0x00000000
     1d8:	00012000 	.word	0x00012000
     1dc:	00012400 	.word	0x00012400
     1e0:	5d000100 	.word	0x5d000100
     1e4:	00000124 	.word	0x00000124
     1e8:	00000128 	.word	0x00000128
     1ec:	087d0002 	.word	0x087d0002
     1f0:	00000128 	.word	0x00000128
     1f4:	000001cc 	.word	0x000001cc
     1f8:	047b0002 	.word	0x047b0002
	...
     204:	000001cc 	.word	0x000001cc
     208:	000001d0 	.word	0x000001d0
     20c:	d05d0001 	.word	0xd05d0001
     210:	d4000001 	.word	0xd4000001
     214:	02000001 	.word	0x02000001
     218:	d4047d00 	.word	0xd4047d00
     21c:	04000001 	.word	0x04000001
     220:	02000002 	.word	0x02000002
     224:	00047b00 	.word	0x00047b00
     228:	00000000 	.word	0x00000000
     22c:	04000000 	.word	0x04000000
     230:	08000002 	.word	0x08000002
     234:	01000002 	.word	0x01000002
     238:	02085d00 	.word	0x02085d00
     23c:	020c0000 	.word	0x020c0000
     240:	00020000 	.word	0x00020000
     244:	020c087d 	.word	0x020c087d
     248:	02600000 	.word	0x02600000
     24c:	00020000 	.word	0x00020000
     250:	0000047b 	.word	0x0000047b
     254:	00000000 	.word	0x00000000
     258:	02600000 	.word	0x02600000
     25c:	02640000 	.word	0x02640000
     260:	00010000 	.word	0x00010000
     264:	0002645d 	.word	0x0002645d
     268:	00026800 	.word	0x00026800
     26c:	7d000200 	.word	0x7d000200
     270:	00026808 	.word	0x00026808
     274:	00029400 	.word	0x00029400
     278:	7b000200 	.word	0x7b000200
     27c:	00000004 	.word	0x00000004
	...
     288:	00000400 	.word	0x00000400
     28c:	5d000100 	.word	0x5d000100
     290:	00000004 	.word	0x00000004
     294:	00000008 	.word	0x00000008
     298:	047d0002 	.word	0x047d0002
     29c:	00000008 	.word	0x00000008
     2a0:	00000030 	.word	0x00000030
     2a4:	047b0002 	.word	0x047b0002
	...
     2b0:	00000030 	.word	0x00000030
     2b4:	00000034 	.word	0x00000034
     2b8:	345d0001 	.word	0x345d0001
     2bc:	38000000 	.word	0x38000000
     2c0:	02000000 	.word	0x02000000
     2c4:	38047d00 	.word	0x38047d00
     2c8:	60000000 	.word	0x60000000
     2cc:	02000000 	.word	0x02000000
     2d0:	00047b00 	.word	0x00047b00
     2d4:	00000000 	.word	0x00000000
     2d8:	60000000 	.word	0x60000000
     2dc:	64000000 	.word	0x64000000
     2e0:	01000000 	.word	0x01000000
     2e4:	00645d00 	.word	0x00645d00
     2e8:	00680000 	.word	0x00680000
     2ec:	00020000 	.word	0x00020000
     2f0:	0068047d 	.word	0x0068047d
     2f4:	00980000 	.word	0x00980000
     2f8:	00020000 	.word	0x00020000
     2fc:	0000047b 	.word	0x0000047b
     300:	00000000 	.word	0x00000000
     304:	00980000 	.word	0x00980000
     308:	009c0000 	.word	0x009c0000
     30c:	00010000 	.word	0x00010000
     310:	00009c5d 	.word	0x00009c5d
     314:	0000a000 	.word	0x0000a000
     318:	7d000200 	.word	0x7d000200
     31c:	0000a004 	.word	0x0000a004
     320:	0000c800 	.word	0x0000c800
     324:	7b000200 	.word	0x7b000200
     328:	00000004 	.word	0x00000004
     32c:	00000000 	.word	0x00000000
     330:	0000c800 	.word	0x0000c800
     334:	0000cc00 	.word	0x0000cc00
     338:	5d000100 	.word	0x5d000100
     33c:	000000cc 	.word	0x000000cc
     340:	000000d0 	.word	0x000000d0
     344:	047d0002 	.word	0x047d0002
     348:	000000d0 	.word	0x000000d0
     34c:	000000f8 	.word	0x000000f8
     350:	047b0002 	.word	0x047b0002
	...
     35c:	000000f8 	.word	0x000000f8
     360:	000000fc 	.word	0x000000fc
     364:	fc5d0001 	.word	0xfc5d0001
     368:	00000000 	.word	0x00000000
     36c:	02000001 	.word	0x02000001
     370:	00047d00 	.word	0x00047d00
     374:	28000001 	.word	0x28000001
     378:	02000001 	.word	0x02000001
     37c:	00047b00 	.word	0x00047b00
     380:	00000000 	.word	0x00000000
     384:	28000000 	.word	0x28000000
     388:	2c000001 	.word	0x2c000001
     38c:	01000001 	.word	0x01000001
     390:	012c5d00 	.word	0x012c5d00
     394:	01300000 	.word	0x01300000
     398:	00020000 	.word	0x00020000
     39c:	0130087d 	.word	0x0130087d
     3a0:	01540000 	.word	0x01540000
     3a4:	00020000 	.word	0x00020000
     3a8:	0000047b 	.word	0x0000047b
     3ac:	00000000 	.word	0x00000000
     3b0:	01540000 	.word	0x01540000
     3b4:	01580000 	.word	0x01580000
     3b8:	00010000 	.word	0x00010000
     3bc:	0001585d 	.word	0x0001585d
     3c0:	00015c00 	.word	0x00015c00
     3c4:	7d000200 	.word	0x7d000200
     3c8:	00015c08 	.word	0x00015c08
     3cc:	00018c00 	.word	0x00018c00
     3d0:	7b000200 	.word	0x7b000200
     3d4:	00000004 	.word	0x00000004
     3d8:	00000000 	.word	0x00000000
     3dc:	00018c00 	.word	0x00018c00
     3e0:	00019000 	.word	0x00019000
     3e4:	5d000100 	.word	0x5d000100
     3e8:	00000190 	.word	0x00000190
     3ec:	00000194 	.word	0x00000194
     3f0:	087d0002 	.word	0x087d0002
     3f4:	00000194 	.word	0x00000194
     3f8:	00000260 	.word	0x00000260
     3fc:	047b0002 	.word	0x047b0002
	...
     408:	00000260 	.word	0x00000260
     40c:	00000264 	.word	0x00000264
     410:	645d0001 	.word	0x645d0001
     414:	68000002 	.word	0x68000002
     418:	02000002 	.word	0x02000002
     41c:	68087d00 	.word	0x68087d00
     420:	d4000002 	.word	0xd4000002
     424:	02000002 	.word	0x02000002
     428:	00047b00 	.word	0x00047b00
     42c:	00000000 	.word	0x00000000
     430:	d4000000 	.word	0xd4000000
     434:	d8000002 	.word	0xd8000002
     438:	01000002 	.word	0x01000002
     43c:	02d85d00 	.word	0x02d85d00
     440:	02dc0000 	.word	0x02dc0000
     444:	00020000 	.word	0x00020000
     448:	02dc087d 	.word	0x02dc087d
     44c:	036c0000 	.word	0x036c0000
     450:	00020000 	.word	0x00020000
     454:	0000047b 	.word	0x0000047b
     458:	00000000 	.word	0x00000000
     45c:	036c0000 	.word	0x036c0000
     460:	03700000 	.word	0x03700000
     464:	00010000 	.word	0x00010000
     468:	0003705d 	.word	0x0003705d
     46c:	00037400 	.word	0x00037400
     470:	7d000200 	.word	0x7d000200
     474:	00037408 	.word	0x00037408
     478:	00046800 	.word	0x00046800
     47c:	7b000200 	.word	0x7b000200
     480:	00000004 	.word	0x00000004
	...
     48c:	00000400 	.word	0x00000400
     490:	5d000100 	.word	0x5d000100
     494:	00000004 	.word	0x00000004
     498:	00000008 	.word	0x00000008
     49c:	047d0002 	.word	0x047d0002
     4a0:	00000008 	.word	0x00000008
     4a4:	00000044 	.word	0x00000044
     4a8:	047b0002 	.word	0x047b0002
	...
     4b4:	00000044 	.word	0x00000044
     4b8:	00000048 	.word	0x00000048
     4bc:	485d0001 	.word	0x485d0001
     4c0:	4c000000 	.word	0x4c000000
     4c4:	02000000 	.word	0x02000000
     4c8:	4c047d00 	.word	0x4c047d00
     4cc:	b4000000 	.word	0xb4000000
     4d0:	02000000 	.word	0x02000000
     4d4:	00047b00 	.word	0x00047b00
     4d8:	00000000 	.word	0x00000000
     4dc:	b4000000 	.word	0xb4000000
     4e0:	b8000000 	.word	0xb8000000
     4e4:	01000000 	.word	0x01000000
     4e8:	00b85d00 	.word	0x00b85d00
     4ec:	00bc0000 	.word	0x00bc0000
     4f0:	00020000 	.word	0x00020000
     4f4:	00bc047d 	.word	0x00bc047d
     4f8:	01540000 	.word	0x01540000
     4fc:	00020000 	.word	0x00020000
     500:	0000047b 	.word	0x0000047b
	...
     50c:	00040000 	.word	0x00040000
     510:	00010000 	.word	0x00010000
     514:	0000045d 	.word	0x0000045d
     518:	00000800 	.word	0x00000800
     51c:	7d000200 	.word	0x7d000200
     520:	00000804 	.word	0x00000804
     524:	00010c00 	.word	0x00010c00
     528:	7b000200 	.word	0x7b000200
     52c:	00000004 	.word	0x00000004
     530:	00000000 	.word	0x00000000
     534:	00010c00 	.word	0x00010c00
     538:	00011000 	.word	0x00011000
     53c:	5d000100 	.word	0x5d000100
     540:	00000110 	.word	0x00000110
     544:	00000114 	.word	0x00000114
     548:	047d0002 	.word	0x047d0002
     54c:	00000114 	.word	0x00000114
     550:	0000016c 	.word	0x0000016c
     554:	047b0002 	.word	0x047b0002
	...
     560:	0000016c 	.word	0x0000016c
     564:	00000170 	.word	0x00000170
     568:	705d0001 	.word	0x705d0001
     56c:	74000001 	.word	0x74000001
     570:	02000001 	.word	0x02000001
     574:	74047d00 	.word	0x74047d00
     578:	fc000001 	.word	0xfc000001
     57c:	02000001 	.word	0x02000001
     580:	00047b00 	.word	0x00047b00
     584:	00000000 	.word	0x00000000
     588:	fc000000 	.word	0xfc000000
     58c:	00000001 	.word	0x00000001
     590:	01000002 	.word	0x01000002
     594:	02005d00 	.word	0x02005d00
     598:	02040000 	.word	0x02040000
     59c:	00020000 	.word	0x00020000
     5a0:	0204047d 	.word	0x0204047d
     5a4:	028c0000 	.word	0x028c0000
     5a8:	00020000 	.word	0x00020000
     5ac:	0000047b 	.word	0x0000047b
     5b0:	00000000 	.word	0x00000000
     5b4:	028c0000 	.word	0x028c0000
     5b8:	02900000 	.word	0x02900000
     5bc:	00010000 	.word	0x00010000
     5c0:	0002905d 	.word	0x0002905d
     5c4:	00029400 	.word	0x00029400
     5c8:	7d000200 	.word	0x7d000200
     5cc:	00029404 	.word	0x00029404
     5d0:	0002f400 	.word	0x0002f400
     5d4:	7b000200 	.word	0x7b000200
     5d8:	00000004 	.word	0x00000004
     5dc:	00000000 	.word	0x00000000
     5e0:	0002f400 	.word	0x0002f400
     5e4:	0002f800 	.word	0x0002f800
     5e8:	5d000100 	.word	0x5d000100
     5ec:	000002f8 	.word	0x000002f8
     5f0:	000002fc 	.word	0x000002fc
     5f4:	047d0002 	.word	0x047d0002
     5f8:	000002fc 	.word	0x000002fc
     5fc:	00000378 	.word	0x00000378
     600:	047b0002 	.word	0x047b0002
	...
     60c:	00000378 	.word	0x00000378
     610:	0000037c 	.word	0x0000037c
     614:	7c5d0001 	.word	0x7c5d0001
     618:	80000003 	.word	0x80000003
     61c:	02000003 	.word	0x02000003
     620:	80047d00 	.word	0x80047d00
     624:	44000003 	.word	0x44000003
     628:	02000004 	.word	0x02000004
     62c:	00047b00 	.word	0x00047b00
     630:	00000000 	.word	0x00000000
     634:	44000000 	.word	0x44000000
     638:	48000004 	.word	0x48000004
     63c:	01000004 	.word	0x01000004
     640:	04485d00 	.word	0x04485d00
     644:	044c0000 	.word	0x044c0000
     648:	00020000 	.word	0x00020000
     64c:	044c087d 	.word	0x044c087d
     650:	05a40000 	.word	0x05a40000
     654:	00020000 	.word	0x00020000
     658:	0000047b 	.word	0x0000047b
     65c:	00000000 	.word	0x00000000
     660:	05a40000 	.word	0x05a40000
     664:	05a80000 	.word	0x05a80000
     668:	00010000 	.word	0x00010000
     66c:	0005a85d 	.word	0x0005a85d
     670:	0005ac00 	.word	0x0005ac00
     674:	7d000200 	.word	0x7d000200
     678:	0005ac08 	.word	0x0005ac08
     67c:	00086400 	.word	0x00086400
     680:	7b000200 	.word	0x7b000200
     684:	00000004 	.word	0x00000004
	...
     690:	00000400 	.word	0x00000400
     694:	5d000100 	.word	0x5d000100
     698:	00000004 	.word	0x00000004
     69c:	00000008 	.word	0x00000008
     6a0:	047d0002 	.word	0x047d0002
     6a4:	00000008 	.word	0x00000008
     6a8:	00000024 	.word	0x00000024
     6ac:	047b0002 	.word	0x047b0002
	...
     6b8:	00000024 	.word	0x00000024
     6bc:	00000028 	.word	0x00000028
     6c0:	285d0001 	.word	0x285d0001
     6c4:	2c000000 	.word	0x2c000000
     6c8:	02000000 	.word	0x02000000
     6cc:	2c047d00 	.word	0x2c047d00
     6d0:	24000000 	.word	0x24000000
     6d4:	02000001 	.word	0x02000001
     6d8:	00047b00 	.word	0x00047b00
	...
     6e4:	04000000 	.word	0x04000000
     6e8:	01000000 	.word	0x01000000
     6ec:	00045d00 	.word	0x00045d00
     6f0:	00080000 	.word	0x00080000
     6f4:	00020000 	.word	0x00020000
     6f8:	0008087d 	.word	0x0008087d
     6fc:	006c0000 	.word	0x006c0000
     700:	00020000 	.word	0x00020000
     704:	0000047b 	.word	0x0000047b
	...
     710:	00040000 	.word	0x00040000
     714:	00010000 	.word	0x00010000
     718:	0000045d 	.word	0x0000045d
     71c:	00000800 	.word	0x00000800
     720:	7d000200 	.word	0x7d000200
     724:	00000808 	.word	0x00000808
     728:	00014000 	.word	0x00014000
     72c:	7b000200 	.word	0x7b000200
     730:	00000004 	.word	0x00000004
     734:	00000000 	.word	0x00000000
     738:	00014000 	.word	0x00014000
     73c:	00014400 	.word	0x00014400
     740:	5d000100 	.word	0x5d000100
     744:	00000144 	.word	0x00000144
     748:	00000148 	.word	0x00000148
     74c:	087d0002 	.word	0x087d0002
     750:	00000148 	.word	0x00000148
     754:	00000224 	.word	0x00000224
     758:	047b0002 	.word	0x047b0002
	...
     768:	00000004 	.word	0x00000004
     76c:	045d0001 	.word	0x045d0001
     770:	08000000 	.word	0x08000000
     774:	02000000 	.word	0x02000000
     778:	08087d00 	.word	0x08087d00
     77c:	6c000000 	.word	0x6c000000
     780:	02000000 	.word	0x02000000
     784:	00047b00 	.word	0x00047b00
     788:	00000000 	.word	0x00000000
     78c:	6c000000 	.word	0x6c000000
     790:	70000000 	.word	0x70000000
     794:	01000000 	.word	0x01000000
     798:	00705d00 	.word	0x00705d00
     79c:	00740000 	.word	0x00740000
     7a0:	00020000 	.word	0x00020000
     7a4:	0074087d 	.word	0x0074087d
     7a8:	00900000 	.word	0x00900000
     7ac:	00020000 	.word	0x00020000
     7b0:	0000047b 	.word	0x0000047b
     7b4:	00000000 	.word	0x00000000
     7b8:	00900000 	.word	0x00900000
     7bc:	00940000 	.word	0x00940000
     7c0:	00010000 	.word	0x00010000
     7c4:	0000945d 	.word	0x0000945d
     7c8:	00009800 	.word	0x00009800
     7cc:	7d000200 	.word	0x7d000200
     7d0:	00009804 	.word	0x00009804
     7d4:	0000f000 	.word	0x0000f000
     7d8:	7b000200 	.word	0x7b000200
     7dc:	00000004 	.word	0x00000004
     7e0:	00000000 	.word	0x00000000
     7e4:	0000f000 	.word	0x0000f000
     7e8:	0000f400 	.word	0x0000f400
     7ec:	5d000100 	.word	0x5d000100
     7f0:	000000f4 	.word	0x000000f4
     7f4:	000000f8 	.word	0x000000f8
     7f8:	047d0002 	.word	0x047d0002
     7fc:	000000f8 	.word	0x000000f8
     800:	0000013c 	.word	0x0000013c
     804:	047b0002 	.word	0x047b0002
	...
     810:	0000013c 	.word	0x0000013c
     814:	00000140 	.word	0x00000140
     818:	405d0001 	.word	0x405d0001
     81c:	44000001 	.word	0x44000001
     820:	02000001 	.word	0x02000001
     824:	44047d00 	.word	0x44047d00
     828:	9c000001 	.word	0x9c000001
     82c:	02000002 	.word	0x02000002
     830:	00047b00 	.word	0x00047b00
     834:	00000000 	.word	0x00000000
     838:	9c000000 	.word	0x9c000000
     83c:	a0000002 	.word	0xa0000002
     840:	01000002 	.word	0x01000002
     844:	02a05d00 	.word	0x02a05d00
     848:	02a40000 	.word	0x02a40000
     84c:	00020000 	.word	0x00020000
     850:	02a4047d 	.word	0x02a4047d
     854:	03500000 	.word	0x03500000
     858:	00020000 	.word	0x00020000
     85c:	0000047b 	.word	0x0000047b
     860:	00000000 	.word	0x00000000
     864:	03500000 	.word	0x03500000
     868:	03540000 	.word	0x03540000
     86c:	00010000 	.word	0x00010000
     870:	0003545d 	.word	0x0003545d
     874:	00035800 	.word	0x00035800
     878:	7d000200 	.word	0x7d000200
     87c:	00035804 	.word	0x00035804
     880:	00048c00 	.word	0x00048c00
     884:	7b000200 	.word	0x7b000200
     888:	00000004 	.word	0x00000004
     88c:	00000000 	.word	0x00000000
     890:	00048c00 	.word	0x00048c00
     894:	00049000 	.word	0x00049000
     898:	5d000100 	.word	0x5d000100
     89c:	00000490 	.word	0x00000490
     8a0:	00000494 	.word	0x00000494
     8a4:	087d0002 	.word	0x087d0002
     8a8:	00000494 	.word	0x00000494
     8ac:	00000554 	.word	0x00000554
     8b0:	047b0002 	.word	0x047b0002
	...
     8bc:	00000554 	.word	0x00000554
     8c0:	00000558 	.word	0x00000558
     8c4:	585d0001 	.word	0x585d0001
     8c8:	5c000005 	.word	0x5c000005
     8cc:	02000005 	.word	0x02000005
     8d0:	5c047d00 	.word	0x5c047d00
     8d4:	b0000005 	.word	0xb0000005
     8d8:	02000005 	.word	0x02000005
     8dc:	00047b00 	.word	0x00047b00
     8e0:	00000000 	.word	0x00000000
     8e4:	b0000000 	.word	0xb0000000
     8e8:	b4000005 	.word	0xb4000005
     8ec:	01000005 	.word	0x01000005
     8f0:	05b45d00 	.word	0x05b45d00
     8f4:	05b80000 	.word	0x05b80000
     8f8:	00020000 	.word	0x00020000
     8fc:	05b8047d 	.word	0x05b8047d
     900:	05fc0000 	.word	0x05fc0000
     904:	00020000 	.word	0x00020000
     908:	0000047b 	.word	0x0000047b
     90c:	00000000 	.word	0x00000000
     910:	05fc0000 	.word	0x05fc0000
     914:	06000000 	.word	0x06000000
     918:	00010000 	.word	0x00010000
     91c:	0006005d 	.word	0x0006005d
     920:	00060400 	.word	0x00060400
     924:	7d000200 	.word	0x7d000200
     928:	00060404 	.word	0x00060404
     92c:	00066800 	.word	0x00066800
     930:	7b000200 	.word	0x7b000200
     934:	00000004 	.word	0x00000004
     938:	00000000 	.word	0x00000000
     93c:	00066800 	.word	0x00066800
     940:	00066c00 	.word	0x00066c00
     944:	5d000100 	.word	0x5d000100
     948:	0000066c 	.word	0x0000066c
     94c:	00000670 	.word	0x00000670
     950:	047d0002 	.word	0x047d0002
     954:	00000670 	.word	0x00000670
     958:	000006d4 	.word	0x000006d4
     95c:	047b0002 	.word	0x047b0002
	...
     96c:	00000004 	.word	0x00000004
     970:	045d0001 	.word	0x045d0001
     974:	08000000 	.word	0x08000000
     978:	02000000 	.word	0x02000000
     97c:	08047d00 	.word	0x08047d00
     980:	b8000000 	.word	0xb8000000
     984:	02000000 	.word	0x02000000
     988:	00047b00 	.word	0x00047b00
     98c:	00000000 	.word	0x00000000
     990:	b8000000 	.word	0xb8000000
     994:	bc000000 	.word	0xbc000000
     998:	01000000 	.word	0x01000000
     99c:	00bc5d00 	.word	0x00bc5d00
     9a0:	00c00000 	.word	0x00c00000
     9a4:	00020000 	.word	0x00020000
     9a8:	00c0087d 	.word	0x00c0087d
     9ac:	01e80000 	.word	0x01e80000
     9b0:	00020000 	.word	0x00020000
     9b4:	0000047b 	.word	0x0000047b
	...
     9c0:	00040000 	.word	0x00040000
     9c4:	00010000 	.word	0x00010000
     9c8:	0000045d 	.word	0x0000045d
     9cc:	00000800 	.word	0x00000800
     9d0:	7d000200 	.word	0x7d000200
     9d4:	00000808 	.word	0x00000808
     9d8:	0000a800 	.word	0x0000a800
     9dc:	7b000200 	.word	0x7b000200
     9e0:	00000004 	.word	0x00000004
     9e4:	00000000 	.word	0x00000000
     9e8:	0000a800 	.word	0x0000a800
     9ec:	0000ac00 	.word	0x0000ac00
     9f0:	5d000100 	.word	0x5d000100
     9f4:	000000ac 	.word	0x000000ac
     9f8:	000000b0 	.word	0x000000b0
     9fc:	087d0002 	.word	0x087d0002
     a00:	000000b0 	.word	0x000000b0
     a04:	000000d8 	.word	0x000000d8
     a08:	047b0002 	.word	0x047b0002
	...
     a14:	000000d8 	.word	0x000000d8
     a18:	000000dc 	.word	0x000000dc
     a1c:	dc5d0001 	.word	0xdc5d0001
     a20:	e0000000 	.word	0xe0000000
     a24:	02000000 	.word	0x02000000
     a28:	e0047d00 	.word	0xe0047d00
     a2c:	20000000 	.word	0x20000000
     a30:	02000001 	.word	0x02000001
     a34:	00047b00 	.word	0x00047b00
     a38:	00000000 	.word	0x00000000
     a3c:	20000000 	.word	0x20000000
     a40:	24000001 	.word	0x24000001
     a44:	01000001 	.word	0x01000001
     a48:	01245d00 	.word	0x01245d00
     a4c:	01280000 	.word	0x01280000
     a50:	00020000 	.word	0x00020000
     a54:	0128047d 	.word	0x0128047d
     a58:	02680000 	.word	0x02680000
     a5c:	00020000 	.word	0x00020000
     a60:	0000047b 	.word	0x0000047b
     a64:	00000000 	.word	0x00000000
     a68:	02680000 	.word	0x02680000
     a6c:	026c0000 	.word	0x026c0000
     a70:	00010000 	.word	0x00010000
     a74:	00026c5d 	.word	0x00026c5d
     a78:	00027000 	.word	0x00027000
     a7c:	7d000200 	.word	0x7d000200
     a80:	00027004 	.word	0x00027004
     a84:	00038400 	.word	0x00038400
     a88:	7b000200 	.word	0x7b000200
     a8c:	00000004 	.word	0x00000004
     a90:	00000000 	.word	0x00000000
     a94:	00038400 	.word	0x00038400
     a98:	00038800 	.word	0x00038800
     a9c:	5d000100 	.word	0x5d000100
     aa0:	00000388 	.word	0x00000388
     aa4:	0000038c 	.word	0x0000038c
     aa8:	047d0002 	.word	0x047d0002
     aac:	0000038c 	.word	0x0000038c
     ab0:	00000404 	.word	0x00000404
     ab4:	047b0002 	.word	0x047b0002
	...
     ac0:	00000404 	.word	0x00000404
     ac4:	00000408 	.word	0x00000408
     ac8:	085d0001 	.word	0x085d0001
     acc:	0c000004 	.word	0x0c000004
     ad0:	02000004 	.word	0x02000004
     ad4:	0c047d00 	.word	0x0c047d00
     ad8:	34000004 	.word	0x34000004
     adc:	02000004 	.word	0x02000004
     ae0:	00047b00 	.word	0x00047b00
     ae4:	00000000 	.word	0x00000000
     ae8:	34000000 	.word	0x34000000
     aec:	38000004 	.word	0x38000004
     af0:	01000004 	.word	0x01000004
     af4:	04385d00 	.word	0x04385d00
     af8:	043c0000 	.word	0x043c0000
     afc:	00020000 	.word	0x00020000
     b00:	043c047d 	.word	0x043c047d
     b04:	04640000 	.word	0x04640000
     b08:	00020000 	.word	0x00020000
     b0c:	0000047b 	.word	0x0000047b
	...
     b18:	00040000 	.word	0x00040000
     b1c:	00010000 	.word	0x00010000
     b20:	0000045d 	.word	0x0000045d
     b24:	00000800 	.word	0x00000800
     b28:	7d000200 	.word	0x7d000200
     b2c:	00000808 	.word	0x00000808
     b30:	00002c00 	.word	0x00002c00
     b34:	7b000200 	.word	0x7b000200
     b38:	00000004 	.word	0x00000004
     b3c:	00000000 	.word	0x00000000
     b40:	00002c00 	.word	0x00002c00
     b44:	00003000 	.word	0x00003000
     b48:	5d000100 	.word	0x5d000100
     b4c:	00000030 	.word	0x00000030
     b50:	00000034 	.word	0x00000034
     b54:	087d0002 	.word	0x087d0002
     b58:	00000034 	.word	0x00000034
     b5c:	00000050 	.word	0x00000050
     b60:	047b0002 	.word	0x047b0002
	...
     b6c:	00000050 	.word	0x00000050
     b70:	00000054 	.word	0x00000054
     b74:	545d0001 	.word	0x545d0001
     b78:	58000000 	.word	0x58000000
     b7c:	02000000 	.word	0x02000000
     b80:	58087d00 	.word	0x58087d00
     b84:	74000000 	.word	0x74000000
     b88:	02000000 	.word	0x02000000
     b8c:	00047b00 	.word	0x00047b00
     b90:	00000000 	.word	0x00000000
     b94:	74000000 	.word	0x74000000
     b98:	78000000 	.word	0x78000000
     b9c:	01000000 	.word	0x01000000
     ba0:	00785d00 	.word	0x00785d00
     ba4:	007c0000 	.word	0x007c0000
     ba8:	00020000 	.word	0x00020000
     bac:	007c0c7d 	.word	0x007c0c7d
     bb0:	00b40000 	.word	0x00b40000
     bb4:	00020000 	.word	0x00020000
     bb8:	0000047b 	.word	0x0000047b
     bbc:	00000000 	.word	0x00000000
     bc0:	00b40000 	.word	0x00b40000
     bc4:	00b80000 	.word	0x00b80000
     bc8:	00010000 	.word	0x00010000
     bcc:	0000b85d 	.word	0x0000b85d
     bd0:	0000bc00 	.word	0x0000bc00
     bd4:	7d000200 	.word	0x7d000200
     bd8:	0000bc08 	.word	0x0000bc08
     bdc:	0000f000 	.word	0x0000f000
     be0:	7b000200 	.word	0x7b000200
     be4:	00000004 	.word	0x00000004
     be8:	00000000 	.word	0x00000000
     bec:	0000f000 	.word	0x0000f000
     bf0:	0000f400 	.word	0x0000f400
     bf4:	5d000100 	.word	0x5d000100
     bf8:	000000f4 	.word	0x000000f4
     bfc:	000000f8 	.word	0x000000f8
     c00:	087d0002 	.word	0x087d0002
     c04:	000000f8 	.word	0x000000f8
     c08:	0000012c 	.word	0x0000012c
     c0c:	047b0002 	.word	0x047b0002
	...
     c18:	0000012c 	.word	0x0000012c
     c1c:	00000130 	.word	0x00000130
     c20:	305d0001 	.word	0x305d0001
     c24:	34000001 	.word	0x34000001
     c28:	02000001 	.word	0x02000001
     c2c:	34087d00 	.word	0x34087d00
     c30:	58000001 	.word	0x58000001
     c34:	02000001 	.word	0x02000001
     c38:	00047b00 	.word	0x00047b00
     c3c:	00000000 	.word	0x00000000
     c40:	58000000 	.word	0x58000000
     c44:	5c000001 	.word	0x5c000001
     c48:	01000001 	.word	0x01000001
     c4c:	015c5d00 	.word	0x015c5d00
     c50:	01600000 	.word	0x01600000
     c54:	00020000 	.word	0x00020000
     c58:	0160087d 	.word	0x0160087d
     c5c:	01840000 	.word	0x01840000
     c60:	00020000 	.word	0x00020000
     c64:	0000047b 	.word	0x0000047b
	...
     c70:	00040000 	.word	0x00040000
     c74:	00010000 	.word	0x00010000
     c78:	0000045d 	.word	0x0000045d
     c7c:	00000800 	.word	0x00000800
     c80:	7d000200 	.word	0x7d000200
     c84:	00000808 	.word	0x00000808
     c88:	00002c00 	.word	0x00002c00
     c8c:	7b000200 	.word	0x7b000200
     c90:	00000004 	.word	0x00000004
     c94:	00000000 	.word	0x00000000
     c98:	00002c00 	.word	0x00002c00
     c9c:	00003000 	.word	0x00003000
     ca0:	5d000100 	.word	0x5d000100
     ca4:	00000030 	.word	0x00000030
     ca8:	00000034 	.word	0x00000034
     cac:	087d0002 	.word	0x087d0002
     cb0:	00000034 	.word	0x00000034
     cb4:	00000050 	.word	0x00000050
     cb8:	047b0002 	.word	0x047b0002
	...
     cc4:	00000050 	.word	0x00000050
     cc8:	00000054 	.word	0x00000054
     ccc:	545d0001 	.word	0x545d0001
     cd0:	58000000 	.word	0x58000000
     cd4:	02000000 	.word	0x02000000
     cd8:	58087d00 	.word	0x58087d00
     cdc:	74000000 	.word	0x74000000
     ce0:	02000000 	.word	0x02000000
     ce4:	00047b00 	.word	0x00047b00
     ce8:	00000000 	.word	0x00000000
     cec:	74000000 	.word	0x74000000
     cf0:	78000000 	.word	0x78000000
     cf4:	01000000 	.word	0x01000000
     cf8:	00785d00 	.word	0x00785d00
     cfc:	007c0000 	.word	0x007c0000
     d00:	00020000 	.word	0x00020000
     d04:	007c0c7d 	.word	0x007c0c7d
     d08:	00bc0000 	.word	0x00bc0000
     d0c:	00020000 	.word	0x00020000
     d10:	0000047b 	.word	0x0000047b
     d14:	00000000 	.word	0x00000000
     d18:	00bc0000 	.word	0x00bc0000
     d1c:	00c00000 	.word	0x00c00000
     d20:	00010000 	.word	0x00010000
     d24:	0000c05d 	.word	0x0000c05d
     d28:	0000c400 	.word	0x0000c400
     d2c:	7d000200 	.word	0x7d000200
     d30:	0000c408 	.word	0x0000c408
     d34:	0000ec00 	.word	0x0000ec00
     d38:	7b000200 	.word	0x7b000200
     d3c:	00000004 	.word	0x00000004
     d40:	00000000 	.word	0x00000000
     d44:	0000ec00 	.word	0x0000ec00
     d48:	0000f000 	.word	0x0000f000
     d4c:	5d000100 	.word	0x5d000100
     d50:	000000f0 	.word	0x000000f0
     d54:	000000f4 	.word	0x000000f4
     d58:	087d0002 	.word	0x087d0002
     d5c:	000000f4 	.word	0x000000f4
     d60:	0000011c 	.word	0x0000011c
     d64:	047b0002 	.word	0x047b0002
	...
     d70:	0000011c 	.word	0x0000011c
     d74:	00000120 	.word	0x00000120
     d78:	205d0001 	.word	0x205d0001
     d7c:	24000001 	.word	0x24000001
     d80:	02000001 	.word	0x02000001
     d84:	24087d00 	.word	0x24087d00
     d88:	48000001 	.word	0x48000001
     d8c:	02000001 	.word	0x02000001
     d90:	00047b00 	.word	0x00047b00
     d94:	00000000 	.word	0x00000000
     d98:	48000000 	.word	0x48000000
     d9c:	4c000001 	.word	0x4c000001
     da0:	01000001 	.word	0x01000001
     da4:	014c5d00 	.word	0x014c5d00
     da8:	01500000 	.word	0x01500000
     dac:	00020000 	.word	0x00020000
     db0:	0150087d 	.word	0x0150087d
     db4:	01740000 	.word	0x01740000
     db8:	00020000 	.word	0x00020000
     dbc:	0000047b 	.word	0x0000047b
	...
     dc8:	00040000 	.word	0x00040000
     dcc:	00010000 	.word	0x00010000
     dd0:	0000045d 	.word	0x0000045d
     dd4:	00000800 	.word	0x00000800
     dd8:	7d000200 	.word	0x7d000200
     ddc:	00000808 	.word	0x00000808
     de0:	00005400 	.word	0x00005400
     de4:	7b000200 	.word	0x7b000200
     de8:	00000004 	.word	0x00000004
     dec:	00000000 	.word	0x00000000
     df0:	00005400 	.word	0x00005400
     df4:	00005800 	.word	0x00005800
     df8:	5d000100 	.word	0x5d000100
     dfc:	00000058 	.word	0x00000058
     e00:	0000005c 	.word	0x0000005c
     e04:	087d0002 	.word	0x087d0002
     e08:	0000005c 	.word	0x0000005c
     e0c:	00000078 	.word	0x00000078
     e10:	047b0002 	.word	0x047b0002
	...
     e1c:	00000078 	.word	0x00000078
     e20:	0000007c 	.word	0x0000007c
     e24:	7c5d0001 	.word	0x7c5d0001
     e28:	80000000 	.word	0x80000000
     e2c:	02000000 	.word	0x02000000
     e30:	80047d00 	.word	0x80047d00
     e34:	c0000000 	.word	0xc0000000
     e38:	02000000 	.word	0x02000000
     e3c:	00047b00 	.word	0x00047b00
     e40:	00000000 	.word	0x00000000
     e44:	c0000000 	.word	0xc0000000
     e48:	c4000000 	.word	0xc4000000
     e4c:	01000000 	.word	0x01000000
     e50:	00c45d00 	.word	0x00c45d00
     e54:	00c80000 	.word	0x00c80000
     e58:	00020000 	.word	0x00020000
     e5c:	00c8047d 	.word	0x00c8047d
     e60:	010c0000 	.word	0x010c0000
     e64:	00020000 	.word	0x00020000
     e68:	0000047b 	.word	0x0000047b
     e6c:	00000000 	.word	0x00000000
     e70:	010c0000 	.word	0x010c0000
     e74:	01100000 	.word	0x01100000
     e78:	00010000 	.word	0x00010000
     e7c:	0001105d 	.word	0x0001105d
     e80:	00011400 	.word	0x00011400
     e84:	7d000200 	.word	0x7d000200
     e88:	00011404 	.word	0x00011404
     e8c:	00021000 	.word	0x00021000
     e90:	7b000200 	.word	0x7b000200
     e94:	00000004 	.word	0x00000004
     e98:	00000000 	.word	0x00000000
     e9c:	00021000 	.word	0x00021000
     ea0:	00021400 	.word	0x00021400
     ea4:	5d000100 	.word	0x5d000100
     ea8:	00000214 	.word	0x00000214
     eac:	00000218 	.word	0x00000218
     eb0:	047d0002 	.word	0x047d0002
     eb4:	00000218 	.word	0x00000218
     eb8:	000002c4 	.word	0x000002c4
     ebc:	047b0002 	.word	0x047b0002
	...
     ec8:	000002c4 	.word	0x000002c4
     ecc:	000002c8 	.word	0x000002c8
     ed0:	c85d0001 	.word	0xc85d0001
     ed4:	cc000002 	.word	0xcc000002
     ed8:	02000002 	.word	0x02000002
     edc:	cc047d00 	.word	0xcc047d00
     ee0:	9c000002 	.word	0x9c000002
     ee4:	02000003 	.word	0x02000003
     ee8:	00047b00 	.word	0x00047b00
	...
     ef4:	04000000 	.word	0x04000000
     ef8:	01000000 	.word	0x01000000
     efc:	00045d00 	.word	0x00045d00
     f00:	00080000 	.word	0x00080000
     f04:	00020000 	.word	0x00020000
     f08:	0008087d 	.word	0x0008087d
     f0c:	00200000 	.word	0x00200000
     f10:	00020000 	.word	0x00020000
     f14:	0000047b 	.word	0x0000047b
     f18:	00000000 	.word	0x00000000
     f1c:	00200000 	.word	0x00200000
     f20:	00240000 	.word	0x00240000
     f24:	00010000 	.word	0x00010000
     f28:	0000245d 	.word	0x0000245d
     f2c:	00002800 	.word	0x00002800
     f30:	7d000200 	.word	0x7d000200
     f34:	00002808 	.word	0x00002808
     f38:	00004c00 	.word	0x00004c00
     f3c:	7b000200 	.word	0x7b000200
     f40:	00000004 	.word	0x00000004
     f44:	00000000 	.word	0x00000000
     f48:	00004c00 	.word	0x00004c00
     f4c:	00005000 	.word	0x00005000
     f50:	5d000100 	.word	0x5d000100
     f54:	00000050 	.word	0x00000050
     f58:	00000054 	.word	0x00000054
     f5c:	087d0002 	.word	0x087d0002
     f60:	00000054 	.word	0x00000054
     f64:	00000088 	.word	0x00000088
     f68:	047b0002 	.word	0x047b0002
	...
     f74:	00000088 	.word	0x00000088
     f78:	0000008c 	.word	0x0000008c
     f7c:	8c5d0001 	.word	0x8c5d0001
     f80:	90000000 	.word	0x90000000
     f84:	02000000 	.word	0x02000000
     f88:	90087d00 	.word	0x90087d00
     f8c:	3c000000 	.word	0x3c000000
     f90:	02000001 	.word	0x02000001
     f94:	00047b00 	.word	0x00047b00
     f98:	00000000 	.word	0x00000000
     f9c:	3c000000 	.word	0x3c000000
     fa0:	40000001 	.word	0x40000001
     fa4:	01000001 	.word	0x01000001
     fa8:	01405d00 	.word	0x01405d00
     fac:	01440000 	.word	0x01440000
     fb0:	00020000 	.word	0x00020000
     fb4:	0144087d 	.word	0x0144087d
     fb8:	019c0000 	.word	0x019c0000
     fbc:	00020000 	.word	0x00020000
     fc0:	0000047b 	.word	0x0000047b
     fc4:	00000000 	.word	0x00000000
     fc8:	019c0000 	.word	0x019c0000
     fcc:	01a00000 	.word	0x01a00000
     fd0:	00010000 	.word	0x00010000
     fd4:	0001a05d 	.word	0x0001a05d
     fd8:	0001a400 	.word	0x0001a400
     fdc:	7d000200 	.word	0x7d000200
     fe0:	0001a408 	.word	0x0001a408
     fe4:	0001f400 	.word	0x0001f400
     fe8:	7b000200 	.word	0x7b000200
     fec:	00000004 	.word	0x00000004
     ff0:	00000000 	.word	0x00000000
     ff4:	0001f400 	.word	0x0001f400
     ff8:	0001f800 	.word	0x0001f800
     ffc:	5d000100 	.word	0x5d000100
    1000:	000001f8 	.word	0x000001f8
    1004:	000001fc 	.word	0x000001fc
    1008:	087d0002 	.word	0x087d0002
    100c:	000001fc 	.word	0x000001fc
    1010:	00000220 	.word	0x00000220
    1014:	047b0002 	.word	0x047b0002
	...
    1024:	00000004 	.word	0x00000004
    1028:	045d0001 	.word	0x045d0001
    102c:	08000000 	.word	0x08000000
    1030:	02000000 	.word	0x02000000
    1034:	08087d00 	.word	0x08087d00
    1038:	20000000 	.word	0x20000000
    103c:	02000000 	.word	0x02000000
    1040:	00047b00 	.word	0x00047b00
    1044:	00000000 	.word	0x00000000
    1048:	20000000 	.word	0x20000000
    104c:	24000000 	.word	0x24000000
    1050:	01000000 	.word	0x01000000
    1054:	00245d00 	.word	0x00245d00
    1058:	00280000 	.word	0x00280000
    105c:	00020000 	.word	0x00020000
    1060:	0028087d 	.word	0x0028087d
    1064:	00580000 	.word	0x00580000
    1068:	00020000 	.word	0x00020000
    106c:	0000047b 	.word	0x0000047b
    1070:	00000000 	.word	0x00000000
    1074:	00580000 	.word	0x00580000
    1078:	005c0000 	.word	0x005c0000
    107c:	00010000 	.word	0x00010000
    1080:	00005c5d 	.word	0x00005c5d
    1084:	00006000 	.word	0x00006000
    1088:	7d000200 	.word	0x7d000200
    108c:	00006008 	.word	0x00006008
    1090:	0000dc00 	.word	0x0000dc00
    1094:	7b000200 	.word	0x7b000200
    1098:	00000004 	.word	0x00000004
    109c:	00000000 	.word	0x00000000
    10a0:	0000dc00 	.word	0x0000dc00
    10a4:	0000e000 	.word	0x0000e000
    10a8:	5d000100 	.word	0x5d000100
    10ac:	000000e0 	.word	0x000000e0
    10b0:	000000e4 	.word	0x000000e4
    10b4:	087d0002 	.word	0x087d0002
    10b8:	000000e4 	.word	0x000000e4
    10bc:	0000018c 	.word	0x0000018c
    10c0:	047b0002 	.word	0x047b0002
	...
    10cc:	0000018c 	.word	0x0000018c
    10d0:	00000190 	.word	0x00000190
    10d4:	905d0001 	.word	0x905d0001
    10d8:	94000001 	.word	0x94000001
    10dc:	02000001 	.word	0x02000001
    10e0:	94087d00 	.word	0x94087d00
    10e4:	00000001 	.word	0x00000001
    10e8:	02000002 	.word	0x02000002
    10ec:	00047b00 	.word	0x00047b00
	...
    10f8:	04000002 	.word	0x04000002
    10fc:	01000002 	.word	0x01000002
    1100:	02045d00 	.word	0x02045d00
    1104:	02080000 	.word	0x02080000
    1108:	00020000 	.word	0x00020000
    110c:	0208087d 	.word	0x0208087d
    1110:	026c0000 	.word	0x026c0000
    1114:	00020000 	.word	0x00020000
    1118:	0000047b 	.word	0x0000047b
    111c:	00000000 	.word	0x00000000
    1120:	026c0000 	.word	0x026c0000
    1124:	02700000 	.word	0x02700000
    1128:	00010000 	.word	0x00010000
    112c:	0002705d 	.word	0x0002705d
    1130:	00027400 	.word	0x00027400
    1134:	7d000200 	.word	0x7d000200
    1138:	00027408 	.word	0x00027408
    113c:	00029800 	.word	0x00029800
    1140:	7b000200 	.word	0x7b000200
    1144:	00000004 	.word	0x00000004
	...
    1150:	00000400 	.word	0x00000400
    1154:	5d000100 	.word	0x5d000100
    1158:	00000004 	.word	0x00000004
    115c:	00000008 	.word	0x00000008
    1160:	0c7d0002 	.word	0x0c7d0002
    1164:	00000008 	.word	0x00000008
    1168:	00000090 	.word	0x00000090
    116c:	047b0002 	.word	0x047b0002
	...
Disassembly of section .debug_pubnames:

00000000 <.debug_pubnames>:
   0:	0000003b 	andeq	r0, r0, fp, lsr r0
   4:	004b0002 	subeq	r0, fp, r2
   8:	017b0000 	cmneq	fp, r0
   c:	00750000 	rsbseq	r0, r5, r0
  10:	61720000 	cmnvs	r2, r0
  14:	00657369 	rsbeq	r7, r5, r9, ror #6
  18:	0000009f 	muleq	r0, pc, r0
  1c:	6f6f6267 	svcvs	0x006f6267
  20:	616d5f74 	smcvs	54772
  24:	56006e69 	strpl	r6, [r0], -r9, ror #28
  28:	67000001 	strvs	r0, [r0, -r1]
  2c:	76677241 	strbtvc	r7, [r7], -r1, asr #4
  30:	00016800 	andeq	r6, r1, r0, lsl #16
  34:	72416700 	subvc	r6, r1, #0	; 0x0
  38:	00006367 	andeq	r6, r0, r7, ror #6
  3c:	a5000000 	strge	r0, [r0]
  40:	02000000 	andeq	r0, r0, #0	; 0x0
  44:	0001c600 	andeq	ip, r1, r0, lsl #12
  48:	0003c500 	andeq	ip, r3, r0, lsl #10
  4c:	00011200 	andeq	r1, r1, r0, lsl #4
  50:	73797300 	cmnvc	r9, #0	; 0x0
  54:	7365725f 	cmnvc	r5, #-268435451	; 0xf0000005
  58:	5a007465 	bpl	1d1f4 <_start-0x30032e0c>
  5c:	70000001 	andvc	r0, r0, r1
  60:	746e6972 	strbtvc	r6, [lr], #-2418
  64:	6169645f 	cmnvs	r9, pc, asr r4
  68:	765f7367 	ldrbvc	r7, [pc], -r7, ror #6
  6c:	a2007265 	andge	r7, r0, #1342177286	; 0x50000006
  70:	70000001 	andvc	r0, r0, r1
  74:	746e6972 	strbtvc	r6, [lr], #-2418
  78:	6169645f 	cmnvs	r9, pc, asr r4
  7c:	735f7367 	cmpvc	pc, #-1677721599	; 0x9c000001
  80:	01ea006e 	mvneq	r0, lr, rrx
  84:	75720000 	ldrbvc	r0, [r2]!
  88:	65745f6e 	ldrbvs	r5, [r4, #-3950]!
  8c:	40007473 	andmi	r7, r0, r3, ror r4
  90:	70000002 	andvc	r0, r0, r2
  94:	746e6972 	strbtvc	r6, [lr], #-2418
  98:	6c65685f 	stclvs	8, cr6, [r5], #-380
  9c:	656d5f70 	strbvs	r5, [sp, #-3952]!
  a0:	67617373 	undefined
  a4:	02960065 	addseq	r0, r6, #101	; 0x65
  a8:	61680000 	cmnvs	r8, r0
  ac:	656c646e 	strbvs	r6, [ip, #-1134]!
  b0:	6576655f 	ldrbvs	r6, [r6, #-1375]!
  b4:	635f746e 	cmpvs	pc, #1845493760	; 0x6e000000
  b8:	6f6d6d6f 	svcvs	0x006d6d6f
  bc:	f600646e 	undefined instruction 0xf600646e
  c0:	47000002 	strmi	r0, [r0, -r2]
  c4:	72656e65 	rsbvc	r6, r5, #1616	; 0x650
  c8:	41657461 	cmnmi	r5, r1, ror #8
  cc:	00766772 	rsbseq	r6, r6, r2, ror r7
  d0:	000003b2 	strheq	r0, [r0], -r2
  d4:	61696467 	cmnvs	r9, r7, ror #8
  d8:	635f7367 	cmpvs	pc, #-1677721599	; 0x9c000001
  dc:	6f6d6d6f 	svcvs	0x006d6d6f
  e0:	0073646e 	rsbseq	r6, r3, lr, ror #8
  e4:	00000000 	andeq	r0, r0, r0
  e8:	000000a2 	andeq	r0, r0, r2, lsr #1
  ec:	058b0002 	streq	r0, [fp, #2]
  f0:	030e0000 	movweq	r0, #57344	; 0xe000
  f4:	01e00000 	mvneq	r0, r0
  f8:	65730000 	ldrbvs	r0, [r3]!
  fc:	5f707574 	svcpl	0x00707574
 100:	65726f63 	ldrbvs	r6, [r2, #-3939]!
 104:	6761745f 	undefined
 108:	0001f400 	andeq	pc, r1, r0, lsl #8
 10c:	74657300 	strbtvc	r7, [r5], #-768
 110:	6d5f7075 	ldclvs	0, cr7, [pc, #-468]
 114:	726f6d65 	rsbvc	r6, pc, #6464	; 0x1940
 118:	61745f79 	cmnvs	r4, r9, ror pc
 11c:	02080067 	andeq	r0, r8, #103	; 0x67
 120:	65730000 	ldrbvs	r0, [r3]!
 124:	5f707574 	svcpl	0x00707574
 128:	6c646d63 	stclvs	13, cr6, [r4], #-396
 12c:	5f656e69 	svcpl	0x00656e69
 130:	00676174 	rsbeq	r6, r7, r4, ror r1
 134:	0000022f 	andeq	r0, r0, pc, lsr #4
 138:	75746573 	ldrbvc	r6, [r4, #-1395]!
 13c:	6e655f70 	mcrvs	15, 3, r5, cr5, cr0, {3}
 140:	61745f64 	cmnvs	r4, r4, ror #30
 144:	02430067 	subeq	r0, r3, #103	; 0x67
 148:	6f620000 	svcvs	0x00620000
 14c:	6c5f746f 	cfldrdvs	mvd7, [pc], {111}
 150:	78756e69 	ldmdavc	r5!, {r0, r3, r5, r6, r9, sl, fp, sp, lr}^
 154:	00025700 	andeq	r5, r2, r0, lsl #14
 158:	6f6f6200 	svcvs	0x006f6200
 15c:	b5006d74 	strlt	r6, [r0, #-3444]
 160:	63000002 	movwvs	r0, #2	; 0x2
 164:	745f7275 	ldrbvc	r7, [pc], #629	; 16c <_start-0x3004fe94>
 168:	705f6761 	subsvc	r6, pc, r1, ror #14
 16c:	e3007274 	movw	r7, #628	; 0x274
 170:	74000002 	strvc	r0, [r0], #-2
 174:	6b5f6568 	blvs	17d971c <_start-0x2e8768e4>
 178:	656e7265 	strbvs	r7, [lr, #-613]!
 17c:	02fb006c 	rscseq	r0, fp, #108	; 0x6c
 180:	6d630000 	stclvs	0, cr0, [r3]
 184:	6e696c64 	cdpvs	12, 6, cr6, cr9, cr4, {3}
 188:	00000065 	andeq	r0, r0, r5, rrx
 18c:	00c60000 	sbceq	r0, r6, r0
 190:	00020000 	andeq	r0, r2, r0
 194:	00000899 	muleq	r0, r9, r8
 198:	0000022c 	andeq	r0, r0, ip, lsr #4
 19c:	00000025 	andeq	r0, r0, r5, lsr #32
 1a0:	656c6573 	strbvs	r6, [ip, #-1395]!
 1a4:	635f7463 	cmpvs	pc, #1660944384	; 0x63000000
 1a8:	00706968 	rsbseq	r6, r0, r8, ror #18
 1ac:	00000039 	andeq	r0, r0, r9, lsr r0
 1b0:	65736564 	ldrbvs	r6, [r3, #-1380]!
 1b4:	7463656c 	strbtvc	r6, [r3], #-1388
 1b8:	6968635f 	stmdbvs	r8!, {r0, r1, r2, r3, r4, r6, r8, r9, sp, lr}^
 1bc:	004d0070 	subeq	r0, sp, r0, ror r0
 1c0:	6c630000 	stclvs	0, cr0, [r3]
 1c4:	5f726165 	svcpl	0x00726165
 1c8:	00426e52 	subeq	r6, r2, r2, asr lr
 1cc:	00000061 	andeq	r0, r0, r1, rrx
 1d0:	646e6573 	strbtvs	r6, [lr], #-1395
 1d4:	646d635f 	strbtvs	r6, [sp], #-863
 1d8:	00009000 	andeq	r9, r0, r0
 1dc:	6e657300 	cdpvs	3, 6, cr7, cr5, cr0, {0}
 1e0:	64615f64 	strbtvs	r5, [r1], #-3940
 1e4:	b8007264 	stmdalt	r0, {r2, r5, r6, r9, ip, sp, lr}
 1e8:	77000000 	strvc	r0, [r0, -r0]
 1ec:	5f746961 	svcpl	0x00746961
 1f0:	00426e52 	subeq	r6, r2, r2, asr lr
 1f4:	000000cc 	andeq	r0, r0, ip, asr #1
 1f8:	646e616e 	strbtvs	r6, [lr], #-366
 1fc:	7365725f 	cmnvc	r5, #-268435451	; 0xf0000005
 200:	e0007465 	and	r7, r0, r5, ror #8
 204:	6e000000 	cdpvs	0, 0, cr0, cr0, cr0, {0}
 208:	66646e61 	strbtvs	r6, [r4], -r1, ror #28
 20c:	6873616c 	ldmdavs	r3!, {r2, r3, r5, r6, r8, sp, lr}^
 210:	696e695f 	stmdbvs	lr!, {r0, r1, r2, r3, r4, r6, r8, fp, sp, lr}^
 214:	00f40074 	rscseq	r0, r4, r4, ror r0
 218:	464e0000 	strbmi	r0, [lr], -r0
 21c:	6761505f 	undefined
 220:	61655265 	cmnvs	r5, r5, ror #4
 224:	01510064 	cmpeq	r1, r4, rrx
 228:	616e0000 	cmnvs	lr, r0
 22c:	745f646e 	ldrbvc	r6, [pc], #1134	; 234 <_start-0x3004fdcc>
 230:	61725f6f 	cmnvs	r2, pc, ror #30
 234:	01a1006d 	undefined instruction 0x01a1006d
 238:	464e0000 	strbmi	r0, [lr], -r0
 23c:	6172455f 	cmnvs	r2, pc, asr r5
 240:	db006573 	blle	19814 <_start-0x300367ec>
 244:	4e000001 	cdpmi	0, 0, cr0, cr0, cr1, {0}
 248:	72575f46 	subsvc	r5, r7, #280	; 0x118
 24c:	50657469 	rsbpl	r7, r5, r9, ror #8
 250:	00656761 	rsbeq	r6, r5, r1, ror #14
 254:	00000000 	andeq	r0, r0, r0
 258:	0000003f 	andeq	r0, r0, pc, lsr r0
 25c:	0ac50002 	beq	ff14026c <bss_end+0xcf0b5ffc>
 260:	00f00000 	rscseq	r0, r0, r0
 264:	00250000 	eoreq	r0, r5, r0
 268:	65640000 	strbvs	r0, [r4]!
 26c:	0079616c 	rsbseq	r6, r9, ip, ror #2
 270:	00000052 	andeq	r0, r0, r2, asr r0
 274:	75636163 	strbvc	r6, [r3, #-355]!
 278:	6574616c 	ldrbvs	r6, [r4, #-364]!
 27c:	776f705f 	undefined
 280:	a8007265 	stmdage	r0, {r0, r2, r5, r6, r9, ip, sp, lr}
 284:	64000000 	strvs	r0, [r0]
 288:	5f617461 	svcpl	0x00617461
 28c:	756a6461 	strbvc	r6, [sl, #-1121]!
 290:	656d7473 	strbvs	r7, [sp, #-1139]!
 294:	0000746e 	andeq	r7, r0, lr, ror #8
 298:	94000000 	strls	r0, [r0]
 29c:	02000000 	andeq	r0, r0, #0	; 0x0
 2a0:	000bb500 	andeq	fp, fp, r0, lsl #10
 2a4:	00038200 	andeq	r8, r3, r0, lsl #4
 2a8:	00007d00 	andeq	r7, r0, r0, lsl #26
 2ac:	72747300 	rsbsvc	r7, r4, #0	; 0x0
 2b0:	00706d63 	rsbseq	r6, r0, r3, ror #26
 2b4:	000000e1 	andeq	r0, r0, r1, ror #1
 2b8:	6c727473 	cfldrdvs	mvd7, [r2], #-460
 2bc:	1b006e65 	blne	1bc58 <_start-0x300343a8>
 2c0:	73000001 	movwvc	r0, #1	; 0x1
 2c4:	70637274 	rsbvc	r7, r3, r4, ror r2
 2c8:	01630079 	smceq	12297
 2cc:	656d0000 	strbvs	r0, [sp]!
 2d0:	7970636d 	ldmdbvc	r0!, {r0, r2, r3, r5, r6, r8, r9, sp, lr}^
 2d4:	0001b900 	andeq	fp, r1, r0, lsl #18
 2d8:	656c6300 	strbvs	r6, [ip, #-768]!
 2dc:	735f6e61 	cmpvc	pc, #1552	; 0x610
 2e0:	6e697274 	mcrvs	2, 3, r7, cr9, cr4, {3}
 2e4:	01e10067 	mvneq	r0, r7, rrx
 2e8:	656d0000 	strbvs	r0, [sp]!
 2ec:	7465736d 	strbtvc	r7, [r5], #-877
 2f0:	00024100 	andeq	r4, r2, r0, lsl #2
 2f4:	656c6300 	strbvs	r6, [ip, #-768]!
 2f8:	735f6e61 	cmpvc	pc, #1552	; 0x610
 2fc:	6e697274 	mcrvs	2, 3, r7, cr9, cr4, {3}
 300:	72705f67 	rsbsvc	r5, r0, #412	; 0x19c
 304:	7700786f 	strvc	r7, [r0, -pc, ror #16]
 308:	73000002 	movwvc	r0, #2	; 0x2
 30c:	6e697274 	mcrvs	2, 3, r7, cr9, cr4, {3}
 310:	6f745f67 	svcvs	0x00745f67
 314:	746e695f 	strbtvc	r6, [lr], #-2399
 318:	0002db00 	andeq	sp, r2, r0, lsl #22
 31c:	78656800 	stmdavc	r5!, {fp, sp, lr}^
 320:	7274735f 	rsbsvc	r7, r4, #2080374785	; 0x7c000001
 324:	5f676e69 	svcpl	0x00676e69
 328:	695f6f74 	ldmdbvs	pc, {r2, r4, r5, r6, r8, r9, sl, fp, sp, lr}^
 32c:	0000746e 	andeq	r7, r0, lr, ror #8
 330:	33000000 	movwcc	r0, #0	; 0x0
 334:	02000000 	andeq	r0, r0, #0	; 0x0
 338:	000f3700 	andeq	r3, pc, r0, lsl #14
 33c:	0000f700 	andeq	pc, r0, r0, lsl #14
 340:	00003a00 	andeq	r3, r0, r0, lsl #20
 344:	74654700 	strbtvc	r4, [r5], #-1792
 348:	4974706f 	ldmdbmi	r4!, {r0, r1, r2, r3, r5, r6, ip, sp, lr}^
 34c:	0074696e 	rsbseq	r6, r4, lr, ror #18
 350:	0000004e 	andeq	r0, r0, lr, asr #32
 354:	6f746547 	svcvs	0x00746547
 358:	e4007470 	str	r7, [r0], #-1136
 35c:	6f000000 	svcvs	0x00000000
 360:	6e497470 	mcrvs	4, 2, r7, cr9, cr0, {3}
 364:	00000064 	andeq	r0, r0, r4, rrx
 368:	001d0000 	andseq	r0, sp, r0
 36c:	00020000 	andeq	r0, r2, r0
 370:	0000102e 	andeq	r1, r0, lr, lsr #32
 374:	00000083 	andeq	r0, r0, r3, lsl #1
 378:	0000005e 	andeq	r0, r0, lr, asr r0
 37c:	6f727245 	svcvs	0x00727245
 380:	65684372 	strbvs	r4, [r8, #-882]!
 384:	00006b63 	andeq	r6, r0, r3, ror #22
 388:	32000000 	andcc	r0, r0, #0	; 0x0
 38c:	02000000 	andeq	r0, r0, #0	; 0x0
 390:	0010b100 	andseq	fp, r0, r0, lsl #2
 394:	00015800 	andeq	r5, r1, r0, lsl #16
 398:	0000bb00 	andeq	fp, r0, r0, lsl #22
 39c:	6c616d00 	stclvs	13, cr6, [r1]
 3a0:	00636f6c 	rsbeq	r6, r3, ip, ror #30
 3a4:	00000101 	andeq	r0, r0, r1, lsl #2
 3a8:	65657266 	strbvs	r7, [r5, #-614]!
 3ac:	00014500 	andeq	r4, r1, r0, lsl #10
 3b0:	614d6700 	cmpvs	sp, r0, lsl #14
 3b4:	636f6c6c 	cmnvs	pc, #27648	; 0x6c00
 3b8:	6c6f6f50 	stclvs	15, cr6, [pc], #-320
 3bc:	00000000 	andeq	r0, r0, r0
 3c0:	00010600 	andeq	r0, r1, r0, lsl #12
 3c4:	09000200 	stmdbeq	r0, {r9}
 3c8:	04000012 	streq	r0, [r0], #-18
 3cc:	f8000005 	undefined instruction 0xf8000005
 3d0:	44000000 	strmi	r0, [r0]
 3d4:	6b6e694c 	blvs	1b9a90c <_start-0x2e4b56f4>
 3d8:	7473694c 	ldrbtvc	r6, [r3], #-2380
 3dc:	6572435f 	ldrbvs	r4, [r2, #-863]!
 3e0:	00657461 	rsbeq	r7, r5, r1, ror #8
 3e4:	0000012f 	andeq	r0, r0, pc, lsr #2
 3e8:	6e694c44 	cdpvs	12, 6, cr4, cr9, cr4, {2}
 3ec:	73694c6b 	cmnvc	r9, #27392	; 0x6b00
 3f0:	65445f74 	strbvs	r5, [r4, #-3956]
 3f4:	6f727473 	svcvs	0x00727473
 3f8:	01570079 	cmpeq	r7, r9, ror r0
 3fc:	4c440000 	marmi	acc0, r0, r4
 400:	4c6b6e69 	stclmi	14, cr6, [fp], #-420
 404:	5f747369 	svcpl	0x00747369
 408:	61656c43 	cmnvs	r5, r3, asr #24
 40c:	018d0072 	orreq	r0, sp, r2, ror r0
 410:	4c440000 	marmi	acc0, r0, r4
 414:	4c6b6e69 	stclmi	14, cr6, [fp], #-420
 418:	5f747369 	svcpl	0x00747369
 41c:	676e654c 	strbvs	r6, [lr, -ip, asr #10]!
 420:	d5006874 	strle	r6, [r0, #-2164]
 424:	44000001 	strmi	r0, [r0], #-1
 428:	6b6e694c 	blvs	1b9a960 <_start-0x2e4b56a0>
 42c:	7473694c 	ldrbtvc	r6, [r3], #-2380
 430:	736e495f 	cmnvc	lr, #1556480	; 0x17c000
 434:	00747265 	rsbseq	r7, r4, r5, ror #4
 438:	0000026b 	andeq	r0, r0, fp, ror #4
 43c:	6e694c44 	cdpvs	12, 6, cr4, cr9, cr4, {2}
 440:	73694c6b 	cmnvc	r9, #27392	; 0x6b00
 444:	65475f74 	strbvs	r5, [r7, #-3956]
 448:	02e50074 	rsceq	r0, r5, #116	; 0x74
 44c:	4c440000 	marmi	acc0, r0, r4
 450:	4c6b6e69 	stclmi	14, cr6, [fp], #-420
 454:	5f747369 	svcpl	0x00747369
 458:	656c6544 	strbvs	r6, [ip, #-1348]!
 45c:	6d006574 	cfstr32vs	mvfx6, [r0, #-464]
 460:	44000003 	strmi	r0, [r0], #-3
 464:	6b6e694c 	blvs	1b9a99c <_start-0x2e4b5664>
 468:	7473694c 	ldrbtvc	r6, [r3], #-2380
 46c:	6c65445f 	cfstrdvs	mvd4, [r5], #-380
 470:	4e657465 	cdpmi	4, 6, cr7, cr5, cr5, {3}
 474:	0065646f 	rsbeq	r6, r5, pc, ror #8
 478:	000003e7 	andeq	r0, r0, r7, ror #7
 47c:	6e694c44 	cdpvs	12, 6, cr4, cr9, cr4, {2}
 480:	73694c6b 	cmnvc	r9, #27392	; 0x6b00
 484:	65525f74 	ldrbvs	r5, [r2, #-3956]
 488:	00746573 	rsbseq	r6, r4, r3, ror r5
 48c:	0000042f 	andeq	r0, r0, pc, lsr #8
 490:	6e694c44 	cdpvs	12, 6, cr4, cr9, cr4, {2}
 494:	73694c6b 	cmnvc	r9, #27392	; 0x6b00
 498:	75435f74 	strbvc	r5, [r3, #-3956]
 49c:	6e657272 	mcrvs	2, 3, r7, cr5, cr2, {3}
 4a0:	04770074 	ldrbteq	r0, [r7], #-116
 4a4:	4c440000 	marmi	acc0, r0, r4
 4a8:	4c6b6e69 	stclmi	14, cr6, [fp], #-420
 4ac:	5f747369 	svcpl	0x00747369
 4b0:	7478654e 	ldrbtvc	r6, [r8], #-1358
 4b4:	0004bf00 	andeq	fp, r4, r0, lsl #30
 4b8:	694c4400 	stmdbvs	ip, {sl, lr}^
 4bc:	694c6b6e 	stmdbvs	ip, {r1, r2, r3, r5, r6, r8, r9, fp, sp, lr}^
 4c0:	505f7473 	subspl	r7, pc, r3, ror r4
 4c4:	00006572 	andeq	r6, r0, r2, ror r5
 4c8:	51000000 	tstpl	r0, r0
 4cc:	02000000 	andeq	r0, r0, #0	; 0x0
 4d0:	00170d00 	andseq	r0, r7, r0, lsl #26
 4d4:	00018e00 	andeq	r8, r1, r0, lsl #28
 4d8:	0000c500 	andeq	ip, r0, r0, lsl #10
 4dc:	6c696600 	stclvs	6, cr6, [r9]
 4e0:	65745f6c 	ldrbvs	r5, [r4, #-3948]!
 4e4:	616c706d 	cmnvs	ip, sp, rrx
 4e8:	635f6574 	cmpvs	pc, #486539264	; 0x1d000000
 4ec:	726f6c6f 	rsbvc	r6, pc, #28416	; 0x6f00
 4f0:	00010f00 	andeq	r0, r1, r0, lsl #30
 4f4:	74656700 	strbtvc	r6, [r5], #-1792
 4f8:	6d65745f 	cfstrdvs	mvd7, [r5, #-380]!
 4fc:	74616c70 	strbtvc	r6, [r1], #-3184
 500:	017b0065 	cmneq	fp, r5, rrx
 504:	6c670000 	stclvs	0, cr0, [r7]
 508:	6c61626f 	sfmvs	f6, 2, [r1], #-444
 50c:	6373615f 	cmnvs	r3, #-1073741801	; 0xc0000017
 510:	745f6969 	ldrbvc	r6, [pc], #2409	; 518 <_start-0x3004fae8>
 514:	6c706d65 	ldclvs	13, cr6, [r0], #-404
 518:	00657461 	rsbeq	r7, r5, r1, ror #8
 51c:	00000000 	andeq	r0, r0, r0
 520:	000000a5 	andeq	r0, r0, r5, lsr #1
 524:	19110002 	ldmdbne	r1, {r1}
 528:	030c0000 	movweq	r0, #49152	; 0xc000
 52c:	00cf0000 	sbceq	r0, pc, r0
 530:	65530000 	ldrbvs	r0, [r3]
 534:	73694c71 	cmnvc	r9, #28928	; 0x7100
 538:	72435f74 	subvc	r5, r3, #464	; 0x1d0
 53c:	65746165 	ldrbvs	r6, [r4, #-357]!
 540:	00011500 	andeq	r1, r1, r0, lsl #10
 544:	71655300 	cmnvc	r5, r0, lsl #6
 548:	7473694c 	ldrbtvc	r6, [r3], #-2380
 54c:	7365445f 	cmnvc	r5, #1593835520	; 0x5f000000
 550:	796f7274 	stmdbvc	pc!, {r2, r4, r5, r6, r9, ip, sp, lr}^
 554:	00013d00 	andeq	r3, r1, r0, lsl #26
 558:	71655300 	cmnvc	r5, r0, lsl #6
 55c:	7473694c 	ldrbtvc	r6, [r3], #-2380
 560:	656c435f 	strbvs	r4, [ip, #-863]!
 564:	73007261 	movwvc	r7, #609	; 0x261
 568:	53000001 	movwpl	r0, #1	; 0x1
 56c:	694c7165 	stmdbvs	ip, {r0, r2, r5, r6, r8, ip, sp, lr}^
 570:	495f7473 	ldmdbmi	pc, {r0, r1, r4, r5, r6, sl, ip, sp, lr}^
 574:	7265736e 	rsbvc	r7, r5, #-1207959551	; 0xb8000001
 578:	01e30074 	mvneq	r0, r4, ror r0
 57c:	65530000 	ldrbvs	r0, [r3]
 580:	73694c71 	cmnvc	r9, #28928	; 0x7100
 584:	65445f74 	strbvs	r5, [r4, #-3956]
 588:	6574656c 	ldrbvs	r6, [r4, #-1388]!
 58c:	00024500 	andeq	r4, r2, r0, lsl #10
 590:	71655300 	cmnvc	r5, r0, lsl #6
 594:	7473694c 	ldrbtvc	r6, [r3], #-2380
 598:	7465475f 	strbtvc	r4, [r5], #-1887
 59c:	00029b00 	andeq	r9, r2, r0, lsl #22
 5a0:	71655300 	cmnvc	r5, r0, lsl #6
 5a4:	7473694c 	ldrbtvc	r6, [r3], #-2380
 5a8:	6e654c5f 	mcrvs	12, 3, r4, cr5, cr15, {2}
 5ac:	00687467 	rsbeq	r7, r8, r7, ror #8
 5b0:	000002d5 	ldrdeq	r0, [r0], -r5
 5b4:	4c716553 	cfldr64mi	mvdx6, [r1], #-332
 5b8:	5f747369 	svcpl	0x00747369
 5bc:	61706143 	cmnvs	r0, r3, asr #2
 5c0:	79746963 	ldmdbvc	r4!, {r0, r1, r5, r6, r8, fp, sp, lr}^
 5c4:	00000000 	andeq	r0, r0, r0
 5c8:	0000a600 	andeq	sl, r0, r0, lsl #12
 5cc:	1d000200 	sfmne	f0, 4, [r0]
 5d0:	e700001c 	smlad	r0, ip, r0, r0
 5d4:	7e000001 	cdpvc	0, 0, cr0, cr0, cr1, {0}
 5d8:	53000000 	movwpl	r0, #0	; 0x0
 5dc:	74537165 	ldrbvc	r7, [r3], #-357
 5e0:	5f6b6361 	svcpl	0x006b6361
 5e4:	61657243 	cmnvs	r5, r3, asr #4
 5e8:	b0006574 	andlt	r6, r0, r4, ror r5
 5ec:	53000000 	movwpl	r0, #0	; 0x0
 5f0:	74537165 	ldrbvc	r7, [r3], #-357
 5f4:	5f6b6361 	svcpl	0x006b6361
 5f8:	74736544 	ldrbtvc	r6, [r3], #-1348
 5fc:	00796f72 	rsbseq	r6, r9, r2, ror pc
 600:	000000d8 	ldrdeq	r0, [r0], -r8
 604:	53716553 	cmnpl	r1, #348127232	; 0x14c00000
 608:	6b636174 	blvs	18d8be0 <_start-0x2e777420>
 60c:	656c435f 	strbvs	r4, [ip, #-863]!
 610:	00007261 	andeq	r7, r0, r1, ror #4
 614:	53000001 	movwpl	r0, #1	; 0x1
 618:	74537165 	ldrbvc	r7, [r3], #-357
 61c:	5f6b6361 	svcpl	0x006b6361
 620:	68737550 	ldmdavs	r3!, {r4, r6, r8, sl, ip, sp, lr}^
 624:	00013a00 	andeq	r3, r1, r0, lsl #20
 628:	71655300 	cmnvc	r5, r0, lsl #6
 62c:	63617453 	cmnvs	r1, #1392508928	; 0x53000000
 630:	6f505f6b 	svcvs	0x00505f6b
 634:	01660070 	smceq	24576
 638:	65530000 	ldrbvs	r0, [r3]
 63c:	61745371 	cmnvs	r4, r1, ror r3
 640:	545f6b63 	ldrbpl	r6, [pc], #2915	; 648 <_start-0x3004f9b8>
 644:	9200706f 	andls	r7, r0, #111	; 0x6f
 648:	53000001 	movwpl	r0, #1	; 0x1
 64c:	74537165 	ldrbvc	r7, [r3], #-357
 650:	5f6b6361 	svcpl	0x006b6361
 654:	657a6953 	ldrbvs	r6, [sl, #-2387]!
 658:	0001be00 	andeq	fp, r1, r0, lsl #28
 65c:	71655300 	cmnvc	r5, r0, lsl #6
 660:	63617453 	cmnvs	r1, #1392508928	; 0x53000000
 664:	61435f6b 	cmpvs	r3, fp, ror #30
 668:	69636170 	stmdbvs	r3!, {r4, r5, r6, r8, sp, lr}^
 66c:	00007974 	andeq	r7, r0, r4, ror r9
 670:	b2000000 	andlt	r0, r0, #0	; 0x0
 674:	02000000 	andeq	r0, r0, #0	; 0x0
 678:	001e0400 	andseq	r0, lr, r0, lsl #8
 67c:	0001e700 	andeq	lr, r1, r0, lsl #14
 680:	00007e00 	andeq	r7, r0, r0, lsl #28
 684:	71655300 	cmnvc	r5, r0, lsl #6
 688:	75657551 	strbvc	r7, [r5, #-1361]!
 68c:	72435f65 	subvc	r5, r3, #404	; 0x194
 690:	65746165 	ldrbvs	r6, [r4, #-357]!
 694:	0000b000 	andeq	fp, r0, r0
 698:	71655300 	cmnvc	r5, r0, lsl #6
 69c:	75657551 	strbvc	r7, [r5, #-1361]!
 6a0:	65445f65 	strbvs	r5, [r4, #-3941]
 6a4:	6f727473 	svcvs	0x00727473
 6a8:	00d80079 	sbcseq	r0, r8, r9, ror r0
 6ac:	65530000 	ldrbvs	r0, [r3]
 6b0:	65755171 	ldrbvs	r5, [r5, #-369]!
 6b4:	435f6575 	cmpmi	pc, #490733568	; 0x1d400000
 6b8:	7261656c 	rsbvc	r6, r1, #452984832	; 0x1b000000
 6bc:	00010000 	andeq	r0, r1, r0
 6c0:	71655300 	cmnvc	r5, r0, lsl #6
 6c4:	75657551 	strbvc	r7, [r5, #-1361]!
 6c8:	70415f65 	subvc	r5, r1, r5, ror #30
 6cc:	646e6570 	strbtvs	r6, [lr], #-1392
 6d0:	00013a00 	andeq	r3, r1, r0, lsl #20
 6d4:	71655300 	cmnvc	r5, r0, lsl #6
 6d8:	75657551 	strbvc	r7, [r5, #-1361]!
 6dc:	65525f65 	ldrbvs	r5, [r2, #-3941]
 6e0:	65697274 	strbvs	r7, [r9, #-628]!
 6e4:	66006576 	undefined
 6e8:	53000001 	movwpl	r0, #1	; 0x1
 6ec:	75517165 	ldrbvc	r7, [r1, #-357]
 6f0:	5f657565 	svcpl	0x00657565
 6f4:	64616548 	strbtvs	r6, [r1], #-1352
 6f8:	92007265 	andls	r7, r0, #1342177286	; 0x50000006
 6fc:	53000001 	movwpl	r0, #1	; 0x1
 700:	75517165 	ldrbvc	r7, [r1, #-357]
 704:	5f657565 	svcpl	0x00657565
 708:	676e654c 	strbvs	r6, [lr, -ip, asr #10]!
 70c:	be006874 	mcrlt	8, 0, r6, cr0, cr4, {3}
 710:	53000001 	movwpl	r0, #1	; 0x1
 714:	75517165 	ldrbvc	r7, [r1, #-357]
 718:	5f657565 	svcpl	0x00657565
 71c:	61706143 	cmnvs	r0, r3, asr #2
 720:	79746963 	ldmdbvc	r4!, {r0, r1, r5, r6, r8, fp, sp, lr}^
 724:	00000000 	andeq	r0, r0, r0
 728:	00009700 	andeq	r9, r0, r0, lsl #14
 72c:	eb000200 	bl	f34 <_start-0x3004f0cc>
 730:	3200001f 	andcc	r0, r0, #31	; 0x1f
 734:	dc000003 	stcle	0, cr0, [r0], {3}
 738:	4c000000 	stcmi	0, cr0, [r0], {0}
 73c:	4c6b6e69 	stclmi	14, cr6, [fp], #-420
 740:	5f747369 	svcpl	0x00747369
 744:	61657243 	cmnvs	r5, r3, asr #4
 748:	13006574 	movwne	r6, #1396	; 0x574
 74c:	4c000001 	stcmi	0, cr0, [r0], {1}
 750:	4c6b6e69 	stclmi	14, cr6, [fp], #-420
 754:	5f747369 	svcpl	0x00747369
 758:	74736544 	ldrbtvc	r6, [r3], #-1348
 75c:	00796f72 	rsbseq	r6, r9, r2, ror pc
 760:	0000013b 	andeq	r0, r0, fp, lsr r1
 764:	6b6e694c 	blvs	1b9ac9c <_start-0x2e4b5364>
 768:	7473694c 	ldrbtvc	r6, [r3], #-2380
 76c:	656c435f 	strbvs	r4, [ip, #-863]!
 770:	71007261 	tstvc	r0, r1, ror #4
 774:	4c000001 	stcmi	0, cr0, [r0], {1}
 778:	4c6b6e69 	stclmi	14, cr6, [fp], #-420
 77c:	5f747369 	svcpl	0x00747369
 780:	676e654c 	strbvs	r6, [lr, -ip, asr #10]!
 784:	b9006874 	stmdblt	r0, {r2, r4, r5, r6, fp, sp, lr}
 788:	4c000001 	stcmi	0, cr0, [r0], {1}
 78c:	4c6b6e69 	stclmi	14, cr6, [fp], #-420
 790:	5f747369 	svcpl	0x00747369
 794:	65736e49 	ldrbvs	r6, [r3, #-3657]!
 798:	41007472 	tstmi	r0, r2, ror r4
 79c:	4c000002 	stcmi	0, cr0, [r0], {2}
 7a0:	4c6b6e69 	stclmi	14, cr6, [fp], #-420
 7a4:	5f747369 	svcpl	0x00747369
 7a8:	00746547 	rsbseq	r6, r4, r7, asr #10
 7ac:	000002bb 	strheq	r0, [r0], -fp
 7b0:	6b6e694c 	blvs	1b9ace8 <_start-0x2e4b5318>
 7b4:	7473694c 	ldrbtvc	r6, [r3], #-2380
 7b8:	6c65445f 	cfstrdvs	mvd4, [r5], #-380
 7bc:	00657465 	rsbeq	r7, r5, r5, ror #8
 7c0:	00000000 	andeq	r0, r0, r0
 7c4:	00000097 	muleq	r0, r7, r0
 7c8:	231d0002 	tstcs	sp, #2	; 0x2
 7cc:	02610000 	rsbeq	r0, r1, #0	; 0x0
 7d0:	00de0000 	sbcseq	r0, lr, r0
 7d4:	694c0000 	stmdbvs	ip, {}^
 7d8:	74536b6e 	ldrbvc	r6, [r3], #-2926
 7dc:	5f6b6361 	svcpl	0x006b6361
 7e0:	61657243 	cmnvs	r5, r3, asr #4
 7e4:	fc006574 	stc2	5, cr6, [r0], {116}
 7e8:	4c000000 	stcmi	0, cr0, [r0], {0}
 7ec:	536b6e69 	cmnpl	fp, #1680	; 0x690
 7f0:	6b636174 	blvs	18d8dc8 <_start-0x2e777238>
 7f4:	7365445f 	cmnvc	r5, #1593835520	; 0x5f000000
 7f8:	796f7274 	stmdbvc	pc!, {r2, r4, r5, r6, r9, ip, sp, lr}^
 7fc:	00012400 	andeq	r2, r1, r0, lsl #8
 800:	6e694c00 	cdpvs	12, 6, cr4, cr9, cr0, {0}
 804:	6174536b 	cmnvs	r4, fp, ror #6
 808:	435f6b63 	cmpmi	pc, #101376	; 0x18c00
 80c:	7261656c 	rsbvc	r6, r1, #452984832	; 0x1b000000
 810:	00014c00 	andeq	r4, r1, r0, lsl #24
 814:	6e694c00 	cdpvs	12, 6, cr4, cr9, cr0, {0}
 818:	6174536b 	cmnvs	r4, fp, ror #6
 81c:	505f6b63 	subspl	r6, pc, r3, ror #22
 820:	00687375 	rsbeq	r7, r8, r5, ror r3
 824:	000001a8 	andeq	r0, r0, r8, lsr #3
 828:	6b6e694c 	blvs	1b9ad60 <_start-0x2e4b52a0>
 82c:	63617453 	cmnvs	r1, #1392508928	; 0x53000000
 830:	6f505f6b 	svcvs	0x00505f6b
 834:	01f00070 	mvnseq	r0, r0, ror r0
 838:	694c0000 	stmdbvs	ip, {}^
 83c:	74536b6e 	ldrbvc	r6, [r3], #-2926
 840:	5f6b6361 	svcpl	0x006b6361
 844:	00706f54 	rsbseq	r6, r0, r4, asr pc
 848:	00000238 	andeq	r0, r0, r8, lsr r2
 84c:	6b6e694c 	blvs	1b9ad84 <_start-0x2e4b527c>
 850:	63617453 	cmnvs	r1, #1392508928	; 0x53000000
 854:	69535f6b 	ldmdbvs	r3, {r0, r1, r3, r5, r6, r8, r9, sl, fp, ip, lr}^
 858:	0000657a 	andeq	r6, r0, sl, ror r5
 85c:	a3000000 	movwge	r0, #0	; 0x0
 860:	02000000 	andeq	r0, r0, #0	; 0x0
 864:	00257e00 	eoreq	r7, r5, r0, lsl #28
 868:	00025e00 	andeq	r5, r2, r0, lsl #28
 86c:	0000d300 	andeq	sp, r0, r0, lsl #6
 870:	6e694c00 	cdpvs	12, 6, cr4, cr9, cr0, {0}
 874:	6575516b 	ldrbvs	r5, [r5, #-363]!
 878:	435f6575 	cmpmi	pc, #490733568	; 0x1d400000
 87c:	74616572 	strbtvc	r6, [r1], #-1394
 880:	00f10065 	rscseq	r0, r1, r5, rrx
 884:	694c0000 	stmdbvs	ip, {}^
 888:	75516b6e 	ldrbvc	r6, [r1, #-2926]
 88c:	5f657565 	svcpl	0x00657565
 890:	74736544 	ldrbtvc	r6, [r3], #-1348
 894:	00796f72 	rsbseq	r6, r9, r2, ror pc
 898:	00000119 	andeq	r0, r0, r9, lsl r1
 89c:	6b6e694c 	blvs	1b9add4 <_start-0x2e4b522c>
 8a0:	75657551 	strbvc	r7, [r5, #-1361]!
 8a4:	6c435f65 	mcrrvs	15, 6, r5, r3, cr5
 8a8:	00726165 	rsbseq	r6, r2, r5, ror #2
 8ac:	0000014f 	andeq	r0, r0, pc, asr #2
 8b0:	6b6e694c 	blvs	1b9ade8 <_start-0x2e4b5218>
 8b4:	75657551 	strbvc	r7, [r5, #-1361]!
 8b8:	70415f65 	subvc	r5, r1, r5, ror #30
 8bc:	646e6570 	strbtvs	r6, [lr], #-1392
 8c0:	0001a500 	andeq	sl, r1, r0, lsl #10
 8c4:	6e694c00 	cdpvs	12, 6, cr4, cr9, cr0, {0}
 8c8:	6575516b 	ldrbvs	r5, [r5, #-363]!
 8cc:	525f6575 	subspl	r6, pc, #490733568	; 0x1d400000
 8d0:	69727465 	ldmdbvs	r2!, {r0, r2, r5, r6, sl, ip, sp, lr}^
 8d4:	00657665 	rsbeq	r7, r5, r5, ror #12
 8d8:	000001ed 	andeq	r0, r0, sp, ror #3
 8dc:	6b6e694c 	blvs	1b9ae14 <_start-0x2e4b51ec>
 8e0:	75657551 	strbvc	r7, [r5, #-1361]!
 8e4:	65485f65 	strbvs	r5, [r8, #-3941]
 8e8:	72656461 	rsbvc	r6, r5, #1627389952	; 0x61000000
 8ec:	00023500 	andeq	r3, r2, r0, lsl #10
 8f0:	6e694c00 	cdpvs	12, 6, cr4, cr9, cr0, {0}
 8f4:	6575516b 	ldrbvs	r5, [r5, #-363]!
 8f8:	4c5f6575 	cfldr64mi	mvdx6, [pc], {117}
 8fc:	74676e65 	strbtvc	r6, [r7], #-3685
 900:	00000068 	andeq	r0, r0, r8, rrx
 904:	001f0000 	andseq	r0, pc, r0
 908:	00020000 	andeq	r0, r2, r0
 90c:	000027dc 	ldrdeq	r2, [r0], -ip
 910:	00000121 	andeq	r0, r0, r1, lsr #2
 914:	000000d7 	ldrdeq	r0, [r0], -r7
 918:	74736554 	ldrbtvc	r6, [r3], #-1364
 91c:	6b6e694c 	blvs	1b9ae54 <_start-0x2e4b51ac>
 920:	7473694c 	ldrbtvc	r6, [r3], #-2380
 924:	00000000 	andeq	r0, r0, r0
	...
Disassembly of section .debug_str:

00000000 <.debug_str>:
   0:	676e6f6c 	strbvs	r6, [lr, -ip, ror #30]!
   4:	6e6f6c20 	cdpvs	12, 6, cr6, cr15, cr0, {1}
   8:	6e692067 	cdpvs	0, 6, cr2, cr9, cr7, {3}
   c:	65670074 	strbvs	r0, [r7, #-116]!
  10:	61645f74 	smcvs	17908
  14:	67006174 	smlsdxvs	r0, r4, r1, r6
  18:	76677241 	strbtvc	r7, [r7], -r1, asr #4
  1c:	69616d00 	stmdbvs	r1!, {r8, sl, fp, sp, lr}^
  20:	00632e6e 	rsbeq	r2, r3, lr, ror #28
  24:	5f737362 	svcpl	0x00737362
  28:	72617473 	rsbvc	r7, r1, #1929379840	; 0x73000000
  2c:	68730074 	ldmdavs	r3!, {r2, r4, r5, r6}^
  30:	2074726f 	rsbscs	r7, r4, pc, ror #4
  34:	00746e69 	rsbseq	r6, r4, r9, ror #28
  38:	676e6f6c 	strbvs	r6, [lr, -ip, ror #30]!
  3c:	6e6f6c20 	cdpvs	12, 6, cr6, cr15, cr0, {1}
  40:	6e752067 	cdpvs	0, 7, cr2, cr5, cr7, {3}
  44:	6e676973 	mcrvs	9, 3, r6, cr7, cr3, {3}
  48:	69206465 	stmdbvs	r0!, {r0, r2, r5, r6, sl, sp, lr}
  4c:	7200746e 	andvc	r7, r0, #1845493760	; 0x6e000000
  50:	69656365 	stmdbvs	r5!, {r0, r2, r5, r6, r8, r9, sp, lr}^
  54:	735f6576 	cmpvc	pc, #494927872	; 0x1d800000
  58:	6e697274 	mcrvs	2, 3, r7, cr9, cr4, {3}
  5c:	6e750067 	cdpvs	0, 7, cr0, cr5, cr7, {3}
  60:	6e676973 	mcrvs	9, 3, r6, cr7, cr3, {3}
  64:	63206465 	teqvs	r0, #1694498816	; 0x65000000
  68:	00726168 	rsbseq	r6, r2, r8, ror #2
  6c:	6d6f682f 	stclvs	8, cr6, [pc, #-188]!
  70:	694c2f65 	stmdbvs	ip, {r0, r2, r5, r6, r8, r9, sl, fp, sp}^
  74:	2f78756e 	svccs	0x0078756e
  78:	74736554 	ldrbtvc	r6, [r3], #-1364
  7c:	6e694d2f 	cdpvs	13, 6, cr4, cr9, cr15, {1}
  80:	34343269 	ldrtcc	r3, [r4], #-617
  84:	73620030 	cmnvc	r2, #48	; 0x30
  88:	6e655f73 	mcrvs	15, 3, r5, cr5, cr3, {3}
  8c:	68730064 	ldmdavs	r3!, {r2, r5, r6}^
  90:	2074726f 	rsbscs	r7, r4, pc, ror #4
  94:	69736e75 	ldmdbvs	r3!, {r0, r2, r4, r5, r6, r9, sl, fp, sp, lr}^
  98:	64656e67 	strbtvs	r6, [r5], #-3687
  9c:	746e6920 	strbtvc	r6, [lr], #-2336
  a0:	6f626700 	svcvs	0x00626700
  a4:	6d5f746f 	cfldrdvs	mvd7, [pc, #-444]
  a8:	006e6961 	rsbeq	r6, lr, r1, ror #18
  ac:	20554e47 	subscs	r4, r5, r7, asr #28
  b0:	2e342043 	cdpcs	0, 3, cr2, cr4, cr3, {2}
  b4:	00322e33 	eorseq	r2, r2, r3, lsr lr
  b8:	73696172 	cmnvc	r9, #-2147483620	; 0x8000001c
  bc:	41670065 	cmnmi	r7, r5, rrx
  c0:	00636772 	rsbeq	r6, r3, r2, ror r7
  c4:	5f727473 	svcpl	0x00727473
  c8:	676e656c 	strbvs	r6, [lr, -ip, ror #10]!
  cc:	44006874 	strmi	r6, [r0], #-2164
  d0:	73676169 	cmnvc	r7, #1073741850	; 0x4000001a
  d4:	6d6f435f 	stclvs	3, cr4, [pc, #-380]!
  d8:	646e6f6d 	strbtvs	r6, [lr], #-3949
  dc:	72700073 	rsbsvc	r0, r0, #115	; 0x73
  e0:	5f746e69 	svcpl	0x00746e69
  e4:	706c6568 	rsbvc	r6, ip, r8, ror #10
  e8:	73656d5f 	cmnvc	r5, #6080	; 0x17c0
  ec:	65676173 	strbvs	r6, [r7, #-371]!
  f0:	6d6d6300 	stclvs	3, cr6, [sp]
  f4:	5f646e6f 	svcpl	0x00646e6f
  f8:	69727473 	ldmdbvs	r2!, {r0, r1, r4, r5, r6, sl, ip, sp, lr}^
  fc:	4d00676e 	stcmi	7, cr6, [r0, #-440]
 100:	32494e49 	subcc	r4, r9, #1168	; 0x490
 104:	5f303434 	svcpl	0x00303434
 108:	41564e49 	cmpmi	r6, r9, asr #28
 10c:	5f44494c 	svcpl	0x0044494c
 110:	41524150 	cmpmi	r2, r0, asr r1
 114:	4554454d 	ldrbmi	r4, [r4, #-1357]
 118:	74730052 	ldrbtvc	r0, [r3], #-82
 11c:	73757461 	cmnvc	r5, #1627389952	; 0x61000000
 120:	72747000 	rsbsvc	r7, r4, #0	; 0x0
 124:	6165685f 	cmnvs	r5, pc, asr r8
 128:	65470064 	strbvs	r0, [r7, #-100]
 12c:	6172656e 	cmnvs	r2, lr, ror #10
 130:	72416574 	subvc	r6, r1, #486539264	; 0x1d000000
 134:	5f007667 	svcpl	0x00007667
 138:	67616964 	strbvs	r6, [r1, -r4, ror #18]!
 13c:	6f635f73 	svcvs	0x00635f73
 140:	6e6f6d6d 	cdpvs	13, 6, cr6, cr15, cr13, {3}
 144:	2f007364 	svccs	0x00007364
 148:	656d6f68 	strbvs	r6, [sp, #-3944]!
 14c:	6e694c2f 	cdpvs	12, 6, cr4, cr9, cr15, {1}
 150:	542f7875 	strtpl	r7, [pc], #2165	; 158 <_start-0x3004fea8>
 154:	2f747365 	svccs	0x00747365
 158:	696e694d 	stmdbvs	lr!, {r0, r2, r3, r6, r8, fp, sp, lr}^
 15c:	30343432 	eorscc	r3, r4, r2, lsr r4
 160:	726f432f 	rsbvc	r4, pc, #-1140850688	; 0xbc000000
 164:	64670065 	strbtvs	r0, [r7], #-101
 168:	73676169 	cmnvc	r7, #1073741850	; 0x4000001a
 16c:	6d6f635f 	stclvs	3, cr6, [pc, #-380]!
 170:	646e6f6d 	strbtvs	r6, [lr], #-3949
 174:	75720073 	ldrbvc	r0, [r2, #-115]!
 178:	65745f6e 	ldrbvs	r5, [r4, #-3950]!
 17c:	70007473 	andvc	r7, r0, r3, ror r4
 180:	746e6972 	strbtvc	r6, [lr], #-2418
 184:	6169645f 	cmnvs	r9, pc, asr r4
 188:	765f7367 	ldrbvc	r7, [pc], -r7, ror #6
 18c:	68007265 	stmdavs	r0, {r0, r2, r5, r6, r9, ip, sp, lr}
 190:	6c646e61 	stclvs	14, cr6, [r4], #-388
 194:	76655f65 	strbtvc	r5, [r5], -r5, ror #30
 198:	5f746e65 	svcpl	0x00746e65
 19c:	6d6d6f63 	stclvs	15, cr6, [sp, #-396]!
 1a0:	00646e6f 	rsbeq	r6, r4, pc, ror #28
 1a4:	706d6f63 	rsbvc	r6, sp, r3, ror #30
 1a8:	5f657261 	svcpl	0x00657261
 1ac:	75736572 	ldrbvc	r6, [r3, #-1394]!
 1b0:	6100746c 	tstvs	r0, ip, ror #8
 1b4:	00636772 	rsbeq	r6, r3, r2, ror r7
 1b8:	6d617246 	sfmvs	f7, 2, [r1, #-280]!
 1bc:	726f7765 	rsbvc	r7, pc, #26476544	; 0x1940000
 1c0:	00632e6b 	rsbeq	r2, r3, fp, ror #28
 1c4:	65636572 	strbvs	r6, [r3, #-1394]!
 1c8:	5f657669 	svcpl	0x00657669
 1cc:	69727473 	ldmdbvs	r2!, {r0, r1, r4, r5, r6, sl, ip, sp, lr}^
 1d0:	745f676e 	ldrbvc	r6, [pc], #1902	; 1d8 <_start-0x3004fe28>
 1d4:	00706d65 	rsbseq	r6, r0, r5, ror #26
 1d8:	6e697270 	mcrvs	2, 3, r7, cr9, cr0, {3}
 1dc:	69645f74 	stmdbvs	r4!, {r2, r4, r5, r6, r8, r9, sl, fp, ip, lr}^
 1e0:	5f736761 	svcpl	0x00736761
 1e4:	61006e73 	tstvs	r0, r3, ror lr
 1e8:	00766772 	rsbseq	r6, r6, r2, ror r7
 1ec:	4e494d5f 	mcrmi	13, 2, r4, cr9, cr15, {2}
 1f0:	34343249 	ldrtcc	r3, [r4], #-585
 1f4:	54535f30 	ldrbpl	r5, [r3], #-3888
 1f8:	53555441 	cmppl	r5, #1090519040	; 0x41000000
 1fc:	73797300 	cmnvc	r9, #0	; 0x0
 200:	7365725f 	cmnvc	r5, #-268435451	; 0xf0000005
 204:	4d007465 	cfstrsmi	mvf7, [r0, #-404]
 208:	32494e49 	subcc	r4, r9, #1168	; 0x490
 20c:	5f303434 	svcpl	0x00303434
 210:	43435553 	movtmi	r5, #13651	; 0x3553
 214:	00535345 	subseq	r5, r3, r5, asr #6
 218:	636e7566 	cmnvs	lr, #427819008	; 0x19800000
 21c:	6e6f6974 	mcrvs	9, 3, r6, cr15, cr4, {3}
 220:	61686300 	cmnvs	r8, r0, lsl #6
 224:	6f635f72 	svcvs	0x00635f72
 228:	00746e75 	rsbseq	r6, r4, r5, ror lr
 22c:	75746573 	ldrbvc	r6, [r4, #-1395]!
 230:	6d635f70 	stclvs	15, cr5, [r3, #-448]!
 234:	6e696c64 	cdpvs	12, 6, cr6, cr9, cr4, {3}
 238:	61745f65 	cmnvs	r4, r5, ror #30
 23c:	6f620067 	svcvs	0x00620067
 240:	6c5f746f 	cfldrdvs	mvd7, [pc], {111}
 244:	78756e69 	ldmdavc	r5!, {r0, r3, r5, r6, r9, sl, fp, sp, lr}^
 248:	6f6f4200 	svcvs	0x006f4200
 24c:	632e6d74 	teqvs	lr, #7424	; 0x1d00
 250:	67617000 	strbvs	r7, [r1, -r0]!
 254:	7a697365 	bvc	1a5cff0 <_start-0x2e5f3010>
 258:	6d630065 	stclvs	0, cr0, [r3, #-404]!
 25c:	6e696c64 	cdpvs	12, 6, cr6, cr9, cr4, {3}
 260:	545f0065 	ldrbpl	r0, [pc], #101	; 268 <_start-0x3004fd98>
 264:	73004741 	movwvc	r4, #1857	; 0x741
 268:	70757465 	rsbsvc	r7, r5, r5, ror #8
 26c:	726f635f 	rsbvc	r6, pc, #2080374785	; 0x7c000001
 270:	61745f65 	cmnvs	r4, r5, ror #30
 274:	545f0067 	ldrbpl	r0, [pc], #103	; 27c <_start-0x3004fd84>
 278:	435f4741 	cmpmi	pc, #17039360	; 0x1040000
 27c:	494c444d 	stmdbmi	ip, {r0, r2, r3, r6, sl, lr}^
 280:	6300454e 	movwvs	r4, #1358	; 0x54e
 284:	745f7275 	ldrbvc	r7, [pc], #629	; 28c <_start-0x3004fd74>
 288:	705f6761 	subsvc	r6, pc, r1, ror #14
 28c:	63007274 	movwvs	r7, #628	; 0x274
 290:	0065726f 	rsbeq	r7, r5, pc, ror #4
 294:	4741545f 	smlsldmi	r5, r1, pc, r4
 298:	4d454d5f 	stclmi	13, cr4, [r5, #-380]
 29c:	73003233 	movwvc	r3, #563	; 0x233
 2a0:	70757465 	rsbsvc	r7, r5, r5, ror #8
 2a4:	6d656d5f 	stclvs	13, cr6, [r5, #-380]!
 2a8:	5f79726f 	svcpl	0x0079726f
 2ac:	00676174 	rsbeq	r6, r7, r4, ror r1
 2b0:	746f6f72 	strbtvc	r6, [pc], #3954	; 2b8 <_start-0x3004fd48>
 2b4:	00766564 	rsbseq	r6, r6, r4, ror #10
 2b8:	67616c66 	strbvs	r6, [r1, -r6, ror #24]!
 2bc:	41540073 	cmpmi	r4, r3, ror r0
 2c0:	45485f47 	strbmi	r5, [r8, #-3911]
 2c4:	52454452 	subpl	r4, r5, #1375731712	; 0x52000000
 2c8:	65687400 	strbvs	r7, [r8, #-1024]!
 2cc:	72656b5f 	rsbvc	r6, r5, #97280	; 0x17c00
 2d0:	006c656e 	rsbeq	r6, ip, lr, ror #10
 2d4:	6c646d63 	stclvs	13, cr6, [r4], #-396
 2d8:	5f656e69 	svcpl	0x00656e69
 2dc:	006e656c 	rsbeq	r6, lr, ip, ror #10
 2e0:	746f6f62 	strbtvc	r6, [pc], #3938	; 2e8 <_start-0x3004fd18>
 2e4:	6573006d 	ldrbvs	r0, [r3, #-109]!
 2e8:	5f707574 	svcpl	0x00707574
 2ec:	5f646e65 	svcpl	0x00646e65
 2f0:	00676174 	rsbeq	r6, r7, r4, ror r1
 2f4:	4741545f 	smlsldmi	r5, r1, pc, r4
 2f8:	524f435f 	subpl	r4, pc, #2080374785	; 0x7c000001
 2fc:	545f0045 	ldrbpl	r0, [pc], #69	; 304 <_start-0x3004fcfc>
 300:	485f4741 	ldmdami	pc, {r0, r6, r8, r9, sl, lr}^
 304:	45444145 	strbmi	r4, [r4, #-325]
 308:	65640052 	strbvs	r0, [r4, #-82]!
 30c:	656c6573 	strbvs	r6, [ip, #-1395]!
 310:	635f7463 	cmpvs	pc, #1660944384	; 0x63000000
 314:	00706968 	rsbseq	r6, r0, r8, ror #18
 318:	61656c63 	cmnvs	r5, r3, ror #24
 31c:	6e525f72 	mrcvs	15, 2, r5, cr2, cr2, {3}
 320:	616e0042 	cmnvs	lr, r2, asr #32
 324:	745f646e 	ldrbvc	r6, [pc], #1134	; 32c <_start-0x3004fcd4>
 328:	61725f6f 	cmnvs	r2, pc, ror #30
 32c:	6573006d 	ldrbvs	r0, [r3, #-109]!
 330:	635f646e 	cmpvs	pc, #1845493760	; 0x6e000000
 334:	2f00646d 	svccs	0x0000646d
 338:	656d6f68 	strbvs	r6, [sp, #-3944]!
 33c:	6e694c2f 	cdpvs	12, 6, cr4, cr9, cr15, {1}
 340:	542f7875 	strtpl	r7, [pc], #2165	; 348 <_start-0x3004fcb8>
 344:	2f747365 	svccs	0x00747365
 348:	696e694d 	stmdbvs	lr!, {r0, r2, r3, r6, r8, fp, sp, lr}^
 34c:	30343432 	eorscc	r3, r4, r2, lsr r4
 350:	6d6f432f 	stclvs	3, cr4, [pc, #-188]!
 354:	4c6e6f6d 	stclmi	15, cr6, [lr], #-436
 358:	4e006269 	cdpmi	2, 0, cr6, cr0, cr9, {3}
 35c:	72455f46 	subvc	r5, r5, #280	; 0x118
 360:	00657361 	rsbeq	r7, r5, r1, ror #6
 364:	575f464e 	ldrbpl	r4, [pc, -lr, asr #12]
 368:	65746972 	ldrbvs	r6, [r4, #-2418]!
 36c:	65676150 	strbvs	r6, [r7, #-336]!
 370:	6e616e00 	cdpvs	14, 6, cr6, cr1, cr0, {0}
 374:	65725f64 	ldrbvs	r5, [r2, #-3940]!
 378:	00746573 	rsbseq	r6, r4, r3, ror r5
 37c:	505f464e 	subspl	r4, pc, lr, asr #12
 380:	52656761 	rsbpl	r6, r5, #25427968	; 0x1840000
 384:	00646165 	rsbeq	r6, r4, r5, ror #2
 388:	646e616e 	strbtvs	r6, [lr], #-366
 38c:	73616c66 	cmnvc	r1, #26112	; 0x6600
 390:	6e695f68 	cdpvs	15, 6, cr5, cr9, cr8, {3}
 394:	73007469 	movwvc	r7, #1129	; 0x469
 398:	74726174 	ldrbtvc	r6, [r2], #-372
 39c:	6464615f 	strbtvs	r6, [r4], #-351
 3a0:	614e0072 	cmpvs	lr, r2, ror r0
 3a4:	6e49646e 	cdpvs	4, 4, cr6, cr9, cr14, {3}
 3a8:	632e7469 	teqvs	lr, #1761607680	; 0x69000000
 3ac:	6e657300 	cdpvs	3, 6, cr7, cr5, cr0, {0}
 3b0:	64615f64 	strbtvs	r5, [r1], #-3940
 3b4:	73007264 	movwvc	r7, #612	; 0x264
 3b8:	6d617264 	sfmvs	f7, 2, [r1, #-400]!
 3bc:	6464615f 	strbtvs	r6, [r4], #-351
 3c0:	61770072 	cmnvs	r7, r2, ror r0
 3c4:	525f7469 	subspl	r7, pc, #1761607680	; 0x69000000
 3c8:	6200426e 	andvs	r4, r0, #-536870906	; 0xe0000006
 3cc:	00666675 	rsbeq	r6, r6, r5, ror r6
 3d0:	6d6d6f43 	stclvs	15, cr6, [sp, #-268]!
 3d4:	632e6e6f 	teqvs	lr, #1776	; 0x6f0
 3d8:	6c656400 	cfstrdvs	mvd6, [r5]
 3dc:	69007961 	stmdbvs	r0, {r0, r5, r6, r8, fp, ip, sp, lr}
 3e0:	7475706e 	ldrbtvc	r7, [r5], #-110
 3e4:	6c617600 	stclvs	6, cr7, [r1]
 3e8:	64006575 	strvs	r6, [r0], #-1397
 3ec:	5f617461 	svcpl	0x00617461
 3f0:	756a6461 	strbvc	r6, [sl, #-1121]!
 3f4:	656d7473 	strbvs	r7, [sp, #-1139]!
 3f8:	6300746e 	movwvs	r7, #1134	; 0x46e
 3fc:	6c756361 	ldclvs	3, cr6, [r5], #-388
 400:	5f657461 	svcpl	0x00657461
 404:	65776f70 	ldrbvs	r6, [r7, #-3952]!
 408:	69660072 	stmdbvs	r6!, {r1, r4, r5, r6}^
 40c:	5f747372 	svcpl	0x00747372
 410:	696c6176 	stmdbvs	ip!, {r1, r2, r4, r5, r6, r8, sp, lr}^
 414:	69625f64 	stmdbvs	r2!, {r2, r5, r6, r8, r9, sl, fp, ip, lr}^
 418:	65640074 	strbvs	r0, [r4, #-116]!
 41c:	735f7473 	cmpvc	pc, #1929379840	; 0x73000000
 420:	5f317274 	svcpl	0x00317274
 424:	00727470 	rsbseq	r7, r2, r0, ror r4
 428:	74736564 	ldrbtvc	r6, [r3], #-1380
 42c:	7274735f 	rsbsvc	r7, r4, #2080374785	; 0x7c000001
 430:	00676e69 	rsbeq	r6, r7, r9, ror #28
 434:	636d656d 	cmnvs	sp, #457179136	; 0x1b400000
 438:	64007970 	strvs	r7, [r0], #-2416
 43c:	5f747365 	svcpl	0x00747365
 440:	69727473 	ldmdbvs	r2!, {r0, r1, r4, r5, r6, sl, ip, sp, lr}^
 444:	745f676e 	ldrbvc	r6, [pc], #1902	; 44c <_start-0x3004fbb4>
 448:	00706d65 	rsbseq	r6, r0, r5, ror #26
 44c:	5f786568 	svcpl	0x00786568
 450:	69727473 	ldmdbvs	r2!, {r0, r1, r4, r5, r6, sl, ip, sp, lr}^
 454:	745f676e 	ldrbvc	r6, [pc], #1902	; 45c <_start-0x3004fba4>
 458:	6e695f6f 	cdpvs	15, 6, cr5, cr9, cr15, {3}
 45c:	6c630074 	stclvs	0, cr0, [r3], #-464
 460:	5f6e6165 	svcpl	0x006e6165
 464:	69727473 	ldmdbvs	r2!, {r0, r1, r4, r5, r6, sl, ip, sp, lr}^
 468:	705f676e 	subsvc	r6, pc, lr, ror #14
 46c:	00786f72 	rsbseq	r6, r8, r2, ror pc
 470:	74736564 	ldrbtvc	r6, [r3], #-1380
 474:	7274735f 	rsbsvc	r7, r4, #2080374785	; 0x7c000001
 478:	65640031 	strbvs	r0, [r4, #-49]!
 47c:	735f7473 	cmpvc	pc, #1929379840	; 0x73000000
 480:	00327274 	eorseq	r7, r2, r4, ror r2
 484:	72756f73 	rsbsvc	r6, r5, #460	; 0x1cc
 488:	735f6563 	cmpvc	pc, #415236096	; 0x18c00000
 48c:	6e697274 	mcrvs	2, 3, r7, cr9, cr4, {3}
 490:	656d0067 	strbvs	r0, [sp, #-103]!
 494:	7465736d 	strbtvc	r7, [r5], #-877
 498:	72745300 	rsbsvc	r5, r4, #0	; 0x0
 49c:	2e676e69 	cdpcs	14, 6, cr6, cr7, cr9, {3}
 4a0:	65640063 	strbvs	r0, [r4, #-99]!
 4a4:	735f7473 	cmpvc	pc, #1929379840	; 0x73000000
 4a8:	5f327274 	svcpl	0x00327274
 4ac:	00727470 	rsbseq	r7, r2, r0, ror r4
 4b0:	5f746573 	svcpl	0x00746573
 4b4:	72616863 	rsbvc	r6, r1, #6488064	; 0x630000
 4b8:	72747300 	rsbsvc	r7, r4, #0	; 0x0
 4bc:	646e695f 	strbtvs	r6, [lr], #-2399
 4c0:	73007865 	movwvc	r7, #2149	; 0x865
 4c4:	735f6372 	cmpvc	pc, #-939524095	; 0xc8000001
 4c8:	73007274 	movwvc	r7, #628	; 0x274
 4cc:	656c7274 	strbvs	r7, [ip, #-628]!
 4d0:	7473006e 	ldrbtvc	r0, [r3], #-110
 4d4:	79706372 	ldmdbvc	r0!, {r1, r4, r5, r6, r8, r9, sp, lr}^
 4d8:	656c6300 	strbvs	r6, [ip, #-768]!
 4dc:	735f6e61 	cmpvc	pc, #1552	; 0x610
 4e0:	6e697274 	mcrvs	2, 3, r7, cr9, cr4, {3}
 4e4:	74730067 	ldrbtvc	r0, [r3], #-103
 4e8:	656c5f72 	strbvs	r5, [ip, #-3954]!
 4ec:	7473006e 	ldrbtvc	r0, [r3], #-110
 4f0:	706d6372 	rsbvc	r6, sp, r2, ror r3
 4f4:	78656800 	stmdavc	r5!, {fp, sp, lr}^
 4f8:	6e6f635f 	mcrvs	3, 3, r6, cr15, cr15, {2}
 4fc:	74726576 	ldrbtvc	r6, [r2], #-1398
 500:	6261745f 	rsbvs	r7, r1, #1593835520	; 0x5f000000
 504:	6400656c 	strvs	r6, [r0], #-1388
 508:	5f696365 	svcpl	0x00696365
 50c:	766e6f63 	strbtvc	r6, [lr], -r3, ror #30
 510:	5f747265 	svcpl	0x00747265
 514:	6c626174 	stfvse	f6, [r2], #-464
 518:	65640065 	strbvs	r0, [r4, #-101]!
 51c:	735f7473 	cmpvc	pc, #1929379840	; 0x73000000
 520:	73007274 	movwvc	r7, #628	; 0x274
 524:	6e697274 	mcrvs	2, 3, r7, cr9, cr4, {3}
 528:	656c5f67 	strbvs	r5, [ip, #-3943]!
 52c:	6874676e 	ldmdavs	r4!, {r1, r2, r3, r5, r6, r8, r9, sl, sp, lr}^
 530:	74654700 	strbtvc	r4, [r5], #-1792
 534:	5474706f 	ldrbtpl	r7, [r4], #-111
 538:	2e706d65 	cdpcs	13, 7, cr6, cr0, cr5, {3}
 53c:	65470063 	strbvs	r0, [r7, #-99]
 540:	74706f74 	ldrbtvc	r6, [r0], #-3956
 544:	6f687300 	svcvs	0x00687300
 548:	706f7472 	rsbvc	r7, pc, r2, ror r4
 54c:	6f007374 	svcvs	0x00007374
 550:	6e497470 	mcrvs	4, 2, r7, cr9, cr0, {3}
 554:	65470064 	strbvs	r0, [r7, #-100]
 558:	74706f74 	ldrbtvc	r6, [r0], #-3956
 55c:	74696e49 	strbtvc	r6, [r9], #-3657
 560:	72724500 	rsbsvc	r4, r2, #0	; 0x0
 564:	632e726f 	teqvs	lr, #-268435450	; 0xf0000006
 568:	72724500 	rsbsvc	r4, r2, #0	; 0x0
 56c:	6843726f 	stmdavs	r3, {r0, r1, r2, r3, r5, r6, r9, ip, sp, lr}^
 570:	006b6365 	rsbeq	r6, fp, r5, ror #6
 574:	696e696d 	stmdbvs	lr!, {r0, r2, r3, r5, r6, r8, fp, sp, lr}^
 578:	30343432 	eorscc	r3, r4, r2, lsr r4
 57c:	74617453 	strbtvc	r7, [r1], #-1107
 580:	69007375 	stmdbvs	r0, {r0, r2, r4, r5, r6, r8, r9, ip, sp, lr}
 584:	65724673 	ldrbvs	r4, [r2, #-1651]!
 588:	4d006465 	cfstrsmi	mvf6, [r0, #-404]
 58c:	6f6c6c61 	svcvs	0x006c6c61
 590:	00632e63 	rsbeq	r2, r3, r3, ror #28
 594:	4c414d5f 	mcrrmi	13, 5, r4, r1, cr15
 598:	00434f4c 	subeq	r4, r3, ip, asr #30
 59c:	65657266 	strbvs	r7, [r5, #-614]!
 5a0:	614d6700 	cmpvs	sp, r0, lsl #14
 5a4:	636f6c6c 	cmnvs	pc, #27648	; 0x6c00
 5a8:	6c6f6f50 	stclvs	15, cr6, [pc], #-320
 5ac:	6c616d00 	stclvs	13, cr6, [r1]
 5b0:	50636f6c 	rsbpl	r6, r3, ip, ror #30
 5b4:	006c6f6f 	rsbeq	r6, ip, pc, ror #30
 5b8:	6c6c616d 	stfvse	f6, [ip], #-436
 5bc:	6800636f 	stmdavs	r0, {r0, r1, r2, r3, r5, r6, r8, r9, sp, lr}
 5c0:	65646165 	strbvs	r6, [r4, #-357]!
 5c4:	4c440072 	mcrrmi	0, 7, r0, r4, cr2
 5c8:	4c6b6e69 	stclmi	14, cr6, [fp], #-420
 5cc:	5f747369 	svcpl	0x00747369
 5d0:	61657243 	cmnvs	r5, r3, asr #4
 5d4:	44006574 	strmi	r6, [r0], #-1396
 5d8:	6b6e694c 	blvs	1b9ab10 <_start-0x2e4b54f0>
 5dc:	7473694c 	ldrbtvc	r6, [r3], #-2380
 5e0:	4400632e 	strmi	r6, [r0], #-814
 5e4:	6b6e694c 	blvs	1b9ab1c <_start-0x2e4b54e4>
 5e8:	7473694c 	ldrbtvc	r6, [r3], #-2380
 5ec:	7365525f 	cmnvc	r5, #-268435451	; 0xf0000005
 5f0:	44007465 	strmi	r7, [r0], #-1125
 5f4:	6b6e694c 	blvs	1b9ab2c <_start-0x2e4b54d4>
 5f8:	7473694c 	ldrbtvc	r6, [r3], #-2380
 5fc:	78654e5f 	stmdavc	r5!, {r0, r1, r2, r3, r4, r6, r9, sl, fp, lr}^
 600:	4c440074 	mcrrmi	0, 7, r0, r4, cr4
 604:	4c6b6e69 	stclmi	14, cr6, [fp], #-420
 608:	5f747369 	svcpl	0x00747369
 60c:	61656c43 	cmnvs	r5, r3, asr #24
 610:	745f0072 	ldrbvc	r0, [pc], #114	; 618 <_start-0x3004f9e8>
 614:	445f6761 	ldrbmi	r6, [pc], #1889	; 61c <_start-0x3004f9e4>
 618:	6b6e694c 	blvs	1b9ab50 <_start-0x2e4b54b0>
 61c:	7473694c 	ldrbtvc	r6, [r3], #-2380
 620:	694c4400 	stmdbvs	ip, {sl, lr}^
 624:	694c6b6e 	stmdbvs	ip, {r1, r2, r3, r5, r6, r8, r9, fp, sp, lr}^
 628:	445f7473 	ldrbmi	r7, [pc], #1139	; 630 <_start-0x3004f9d0>
 62c:	72747365 	rsbsvc	r7, r4, #-1811939327	; 0x94000001
 630:	4400796f 	strmi	r7, [r0], #-2415
 634:	6b6e694c 	blvs	1b9ab6c <_start-0x2e4b5494>
 638:	7473694c 	ldrbtvc	r6, [r3], #-2380
 63c:	6c65445f 	cfstrdvs	mvd4, [r5], #-380
 640:	00657465 	rsbeq	r7, r5, r5, ror #8
 644:	6761745f 	undefined
 648:	694c445f 	stmdbvs	ip, {r0, r1, r2, r3, r4, r6, sl, lr}^
 64c:	694c6b6e 	stmdbvs	ip, {r1, r2, r3, r5, r6, r8, r9, fp, sp, lr}^
 650:	6f4e7473 	svcvs	0x004e7473
 654:	6e006564 	cfsh32vs	mvfx6, mvfx0, #52
 658:	0065646f 	rsbeq	r6, r5, pc, ror #8
 65c:	6e694c44 	cdpvs	12, 6, cr4, cr9, cr4, {2}
 660:	73694c6b 	cmnvc	r9, #27392	; 0x6b00
 664:	75435f74 	strbvc	r5, [r3, #-3956]
 668:	6e657272 	mcrvs	2, 3, r7, cr5, cr2, {3}
 66c:	6c730074 	ldclvs	0, cr0, [r3], #-464
 670:	72656469 	rsbvc	r6, r5, #1761607680	; 0x69000000
 674:	4c445400 	cfstrdmi	mvd5, [r4], {0}
 678:	4c6b6e69 	stclmi	14, cr6, [fp], #-420
 67c:	00747369 	rsbseq	r7, r4, r9, ror #6
 680:	72727563 	rsbsvc	r7, r2, #415236096	; 0x18c00000
 684:	00746e65 	rsbseq	r6, r4, r5, ror #28
 688:	6e694c44 	cdpvs	12, 6, cr4, cr9, cr4, {2}
 68c:	73694c6b 	cmnvc	r9, #27392	; 0x6b00
 690:	65475f74 	strbvs	r5, [r7, #-3956]
 694:	4c730074 	ldclmi	0, cr0, [r3], #-464
 698:	00747369 	rsbseq	r7, r4, r9, ror #6
 69c:	7473696c 	ldrbtvc	r6, [r3], #-2412
 6a0:	694c4400 	stmdbvs	ip, {sl, lr}^
 6a4:	694c6b6e 	stmdbvs	ip, {r1, r2, r3, r5, r6, r8, r9, fp, sp, lr}^
 6a8:	4c5f7473 	cfldrdmi	mvd7, [pc], {115}
 6ac:	74676e65 	strbtvc	r6, [r7], #-3685
 6b0:	4c440068 	mcrrmi	0, 6, r0, r4, cr8
 6b4:	4c6b6e69 	stclmi	14, cr6, [fp], #-420
 6b8:	5f747369 	svcpl	0x00747369
 6bc:	65736e49 	ldrbvs	r6, [r3, #-3657]!
 6c0:	44007472 	strmi	r7, [r0], #-1138
 6c4:	6b6e694c 	blvs	1b9abfc <_start-0x2e4b5404>
 6c8:	7473694c 	ldrbtvc	r6, [r3], #-2380
 6cc:	6c65445f 	cfstrdvs	mvd4, [r5], #-380
 6d0:	4e657465 	cdpmi	4, 6, cr7, cr5, cr5, {3}
 6d4:	0065646f 	rsbeq	r6, r5, pc, ror #8
 6d8:	6e694c44 	cdpvs	12, 6, cr4, cr9, cr4, {2}
 6dc:	73694c6b 	cmnvc	r9, #27392	; 0x6b00
 6e0:	72505f74 	subsvc	r5, r0, #464	; 0x1d0
 6e4:	656e0065 	strbvs	r0, [lr, #-101]!
 6e8:	54007478 	strpl	r7, [r0], #-1144
 6ec:	4c504d45 	mrrcmi	13, 4, r4, r0, cr5
 6f0:	38455441 	stmdacc	r5, {r0, r6, sl, ip, lr}^
 6f4:	00363158 	eorseq	r3, r6, r8, asr r1
 6f8:	6c6c6966 	stclvs	9, cr6, [ip], #-408
 6fc:	6d65745f 	cfstrdvs	mvd7, [r5, #-380]!
 700:	74616c70 	strbtvc	r6, [r1], #-3184
 704:	6f635f65 	svcvs	0x00635f65
 708:	00726f6c 	rsbseq	r6, r2, ip, ror #30
 70c:	69637361 	stmdbvs	r3!, {r0, r5, r6, r8, r9, ip, sp, lr}^
 710:	68635f69 	stmdavs	r3!, {r0, r3, r5, r6, r8, r9, sl, fp, ip, lr}^
 714:	67007261 	strvs	r7, [r0, -r1, ror #4]
 718:	745f7465 	ldrbvc	r7, [pc], #1125	; 720 <_start-0x3004f8e0>
 71c:	6c706d65 	ldclvs	13, cr6, [r0], #-404
 720:	00657461 	rsbeq	r7, r5, r1, ror #8
 724:	706d6554 	rsbvc	r6, sp, r4, asr r5
 728:	6574616c 	ldrbvs	r6, [r4, #-364]!
 72c:	5f00632e 	svcpl	0x0000632e
 730:	706d6554 	rsbvc	r6, sp, r4, asr r5
 734:	6574616c 	ldrbvs	r6, [r4, #-364]!
 738:	6f6c6700 	svcvs	0x006c6700
 73c:	5f6c6162 	svcpl	0x006c6162
 740:	69637361 	stmdbvs	r3!, {r0, r5, r6, r8, r9, ip, sp, lr}^
 744:	65745f69 	ldrbvs	r5, [r4, #-3945]!
 748:	616c706d 	cmnvs	ip, sp, rrx
 74c:	47006574 	smlsdxmi	r0, r4, r5, r6
 750:	706f7465 	rsbvc	r7, pc, r5, ror #8
 754:	00632e74 	rsbeq	r2, r3, r4, ror lr
 758:	4c716573 	cfldr64mi	mvdx6, [r1], #-460
 75c:	00747369 	rsbseq	r7, r4, r9, ror #6
 760:	4c716553 	cfldr64mi	mvdx6, [r1], #-332
 764:	5f747369 	svcpl	0x00747369
 768:	61656c43 	cmnvs	r5, r3, asr #24
 76c:	65530072 	ldrbvs	r0, [r3, #-114]
 770:	73694c71 	cmnvc	r9, #28928	; 0x7100
 774:	646f4e74 	strbtvs	r4, [pc], #3700	; 77c <_start-0x3004f884>
 778:	65530065 	ldrbvs	r0, [r3, #-101]
 77c:	73694c71 	cmnvc	r9, #28928	; 0x7100
 780:	65445f74 	strbvs	r5, [r4, #-3956]
 784:	6574656c 	ldrbvs	r6, [r4, #-1388]!
 788:	61745f00 	cmnvs	r4, r0, lsl #30
 78c:	53545f67 	cmppl	r4, #412	; 0x19c
 790:	694c7165 	stmdbvs	ip, {r0, r2, r5, r6, r8, ip, sp, lr}^
 794:	53007473 	movwpl	r7, #1139	; 0x473
 798:	694c7165 	stmdbvs	ip, {r0, r2, r5, r6, r8, ip, sp, lr}^
 79c:	435f7473 	cmpmi	pc, #1929379840	; 0x73000000
 7a0:	63617061 	cmnvs	r1, #97	; 0x61
 7a4:	00797469 	rsbseq	r7, r9, r9, ror #8
 7a8:	4c716553 	cfldr64mi	mvdx6, [r1], #-332
 7ac:	5f747369 	svcpl	0x00747369
 7b0:	61657243 	cmnvs	r5, r3, asr #4
 7b4:	63006574 	movwvs	r6, #1396	; 0x574
 7b8:	63617061 	cmnvs	r1, #97	; 0x61
 7bc:	00797469 	rsbseq	r7, r9, r9, ror #8
 7c0:	4c716553 	cfldr64mi	mvdx6, [r1], #-332
 7c4:	5f747369 	svcpl	0x00747369
 7c8:	676e654c 	strbvs	r6, [lr, -ip, asr #10]!
 7cc:	53006874 	movwpl	r6, #2164	; 0x874
 7d0:	694c7165 	stmdbvs	ip, {r0, r2, r5, r6, r8, ip, sp, lr}^
 7d4:	475f7473 	undefined
 7d8:	74007465 	strvc	r7, [r0], #-1125
 7dc:	4c716553 	cfldr64mi	mvdx6, [r1], #-332
 7e0:	00747369 	rsbseq	r7, r4, r9, ror #6
 7e4:	6d6f682f 	stclvs	8, cr6, [pc, #-188]!
 7e8:	694c2f65 	stmdbvs	ip, {r0, r2, r5, r6, r8, r9, sl, fp, sp}^
 7ec:	2f78756e 	svccs	0x0078756e
 7f0:	74736554 	ldrbtvc	r6, [r3], #-1364
 7f4:	6e694d2f 	cdpvs	13, 6, cr4, cr9, cr15, {1}
 7f8:	34343269 	ldrtcc	r3, [r4], #-617
 7fc:	6f432f30 	svcvs	0x00432f30
 800:	6e6f6d6d 	cdpvs	13, 6, cr6, cr15, cr13, {3}
 804:	2f62694c 	svccs	0x0062694c
 808:	75716553 	ldrbvc	r6, [r1, #-1363]!
 80c:	65636e65 	strbvs	r6, [r3, #-3685]!
 810:	71655300 	cmnvc	r5, r0, lsl #6
 814:	7473694c 	ldrbtvc	r6, [r3], #-2380
 818:	736e495f 	cmnvc	lr, #1556480	; 0x17c000
 81c:	00747265 	rsbseq	r7, r4, r5, ror #4
 820:	4c716553 	cfldr64mi	mvdx6, [r1], #-332
 824:	5f747369 	svcpl	0x00747369
 828:	74736544 	ldrbtvc	r6, [r3], #-1348
 82c:	00796f72 	rsbseq	r6, r9, r2, ror pc
 830:	4c716553 	cfldr64mi	mvdx6, [r1], #-332
 834:	2e747369 	cdpcs	3, 7, cr7, cr4, cr9, {3}
 838:	65530063 	ldrbvs	r0, [r3, #-99]
 83c:	61745371 	cmnvs	r4, r1, ror r3
 840:	69006b63 	stmdbvs	r0, {r0, r1, r5, r6, r8, r9, fp, sp, lr}
 844:	006d6574 	rsbeq	r6, sp, r4, ror r5
 848:	53716553 	cmnpl	r1, #348127232	; 0x14c00000
 84c:	6b636174 	blvs	18d8e24 <_start-0x2e7771dc>
 850:	7061435f 	rsbvc	r4, r1, pc, asr r3
 854:	74696361 	strbtvc	r6, [r9], #-865
 858:	65530079 	ldrbvs	r0, [r3, #-121]
 85c:	61745371 	cmnvs	r4, r1, ror r3
 860:	445f6b63 	ldrbmi	r6, [pc], #2915	; 868 <_start-0x3004f798>
 864:	72747365 	rsbsvc	r7, r4, #-1811939327	; 0x94000001
 868:	5300796f 	movwpl	r7, #2415	; 0x96f
 86c:	74537165 	ldrbvc	r7, [r3], #-357
 870:	5f6b6361 	svcpl	0x006b6361
 874:	00706f54 	rsbseq	r6, r0, r4, asr pc
 878:	53716553 	cmnpl	r1, #348127232	; 0x14c00000
 87c:	6b636174 	blvs	18d8e54 <_start-0x2e7771ac>
 880:	6572435f 	ldrbvs	r4, [r2, #-863]!
 884:	00657461 	rsbeq	r7, r5, r1, ror #8
 888:	53716553 	cmnpl	r1, #348127232	; 0x14c00000
 88c:	6b636174 	blvs	18d8e64 <_start-0x2e77719c>
 890:	7375505f 	cmnvc	r5, #95	; 0x5f
 894:	65530068 	ldrbvs	r0, [r3, #-104]
 898:	61745371 	cmnvs	r4, r1, ror r3
 89c:	505f6b63 	subspl	r6, pc, r3, ror #22
 8a0:	5300706f 	movwpl	r7, #111	; 0x6f
 8a4:	74537165 	ldrbvc	r7, [r3], #-357
 8a8:	2e6b6361 	cdpcs	3, 6, cr6, cr11, cr1, {3}
 8ac:	65530063 	ldrbvs	r0, [r3, #-99]
 8b0:	61745371 	cmnvs	r4, r1, ror r3
 8b4:	535f6b63 	cmppl	pc, #101376	; 0x18c00
 8b8:	00657a69 	rsbeq	r7, r5, r9, ror #20
 8bc:	53716573 	cmnpl	r1, #482344960	; 0x1cc00000
 8c0:	6b636174 	blvs	18d8e98 <_start-0x2e777168>
 8c4:	71655300 	cmnvc	r5, r0, lsl #6
 8c8:	63617453 	cmnvs	r1, #1392508928	; 0x53000000
 8cc:	6c435f6b 	mcrrvs	15, 6, r5, r3, cr11
 8d0:	00726165 	rsbseq	r6, r2, r5, ror #2
 8d4:	51716553 	cmnpl	r1, r3, asr r5
 8d8:	65756575 	ldrbvs	r6, [r5, #-1397]!
 8dc:	7465525f 	strbtvc	r5, [r5], #-607
 8e0:	76656972 	undefined
 8e4:	65530065 	ldrbvs	r0, [r3, #-101]
 8e8:	65755171 	ldrbvs	r5, [r5, #-369]!
 8ec:	485f6575 	ldmdami	pc, {r0, r2, r4, r5, r6, r8, sl, sp, lr}^
 8f0:	65646165 	strbvs	r6, [r4, #-357]!
 8f4:	65530072 	ldrbvs	r0, [r3, #-114]
 8f8:	65755171 	ldrbvs	r5, [r5, #-369]!
 8fc:	73006575 	movwvc	r6, #1397	; 0x575
 900:	75517165 	ldrbvc	r7, [r1, #-357]
 904:	00657565 	rsbeq	r7, r5, r5, ror #10
 908:	51716553 	cmnpl	r1, r3, asr r5
 90c:	65756575 	ldrbvs	r6, [r5, #-1397]!
 910:	7365445f 	cmnvc	r5, #1593835520	; 0x5f000000
 914:	796f7274 	stmdbvc	pc!, {r2, r4, r5, r6, r9, ip, sp, lr}^
 918:	71655300 	cmnvc	r5, r0, lsl #6
 91c:	75657551 	strbvc	r7, [r5, #-1361]!
 920:	70415f65 	subvc	r5, r1, r5, ror #30
 924:	646e6570 	strbtvs	r6, [lr], #-1392
 928:	71655300 	cmnvc	r5, r0, lsl #6
 92c:	75657551 	strbvc	r7, [r5, #-1361]!
 930:	61435f65 	cmpvs	r3, r5, ror #30
 934:	69636170 	stmdbvs	r3!, {r4, r5, r6, r8, sp, lr}^
 938:	53007974 	movwpl	r7, #2420	; 0x974
 93c:	75517165 	ldrbvc	r7, [r1, #-357]
 940:	5f657565 	svcpl	0x00657565
 944:	61656c43 	cmnvs	r5, r3, asr #24
 948:	65530072 	ldrbvs	r0, [r3, #-114]
 94c:	65755171 	ldrbvs	r5, [r5, #-369]!
 950:	4c5f6575 	cfldr64mi	mvdx6, [pc], {117}
 954:	74676e65 	strbtvc	r6, [r7], #-3685
 958:	65530068 	ldrbvs	r0, [r3, #-104]
 95c:	65755171 	ldrbvs	r5, [r5, #-369]!
 960:	632e6575 	teqvs	lr, #490733568	; 0x1d400000
 964:	71655300 	cmnvc	r5, r0, lsl #6
 968:	75657551 	strbvc	r7, [r5, #-1361]!
 96c:	72435f65 	subvc	r5, r3, #404	; 0x194
 970:	65746165 	ldrbvs	r6, [r4, #-357]!
 974:	694c5400 	stmdbvs	ip, {sl, ip, lr}^
 978:	694c6b6e 	stmdbvs	ip, {r1, r2, r3, r5, r6, r8, r9, fp, sp, lr}^
 97c:	5f007473 	svcpl	0x00007473
 980:	5f676174 	svcpl	0x00676174
 984:	6b6e694c 	blvs	1b9aebc <_start-0x2e4b5144>
 988:	7473694c 	ldrbtvc	r6, [r3], #-2380
 98c:	65646f4e 	strbvs	r6, [r4, #-3918]!
 990:	6f682f00 	svcvs	0x00682f00
 994:	4c2f656d 	cfstr32mi	mvfx6, [pc], #-436
 998:	78756e69 	ldmdavc	r5!, {r0, r3, r5, r6, r9, sl, fp, sp, lr}^
 99c:	7365542f 	cmnvc	r5, #788529152	; 0x2f000000
 9a0:	694d2f74 	stmdbvs	sp, {r2, r4, r5, r6, r8, r9, sl, fp, sp}^
 9a4:	3432696e 	ldrtcc	r6, [r2], #-2414
 9a8:	432f3034 	teqmi	pc, #52	; 0x34
 9ac:	6f6d6d6f 	svcvs	0x006d6d6f
 9b0:	62694c6e 	rsbvs	r4, r9, #28160	; 0x6e00
 9b4:	6e694c2f 	cdpvs	12, 6, cr4, cr9, cr15, {1}
 9b8:	745f006b 	ldrbvc	r0, [pc], #107	; 9c0 <_start-0x3004f640>
 9bc:	4c5f6761 	mrrcmi	7, 6, r6, pc, cr1
 9c0:	4c6b6e69 	stclmi	14, cr6, [fp], #-420
 9c4:	00747369 	rsbseq	r7, r4, r9, ror #6
 9c8:	6b6e694c 	blvs	1b9af00 <_start-0x2e4b5100>
 9cc:	63617453 	cmnvs	r1, #1392508928	; 0x53000000
 9d0:	72435f6b 	subvc	r5, r3, #428	; 0x1ac
 9d4:	65746165 	ldrbvs	r6, [r4, #-357]!
 9d8:	6e694c00 	cdpvs	12, 6, cr4, cr9, cr0, {0}
 9dc:	6174536b 	cmnvs	r4, fp, ror #6
 9e0:	505f6b63 	subspl	r6, pc, r3, ror #22
 9e4:	5f00706f 	svcpl	0x0000706f
 9e8:	5f676174 	svcpl	0x00676174
 9ec:	6b6e694c 	blvs	1b9af24 <_start-0x2e4b50dc>
 9f0:	63617453 	cmnvs	r1, #1392508928	; 0x53000000
 9f4:	646f4e6b 	strbtvs	r4, [pc], #3691	; 9fc <_start-0x3004f604>
 9f8:	694c0065 	stmdbvs	ip, {r0, r2, r5, r6}^
 9fc:	74536b6e 	ldrbvc	r6, [r3], #-2926
 a00:	2e6b6361 	cdpcs	3, 6, cr6, cr11, cr1, {3}
 a04:	694c0063 	stmdbvs	ip, {r0, r1, r5, r6}^
 a08:	74536b6e 	ldrbvc	r6, [r3], #-2926
 a0c:	5f6b6361 	svcpl	0x006b6361
 a10:	68737550 	ldmdavs	r3!, {r4, r6, r8, sl, ip, sp, lr}^
 a14:	6e694c00 	cdpvs	12, 6, cr4, cr9, cr0, {0}
 a18:	6174536b 	cmnvs	r4, fp, ror #6
 a1c:	535f6b63 	cmppl	pc, #101376	; 0x18c00
 a20:	00657a69 	rsbeq	r7, r5, r9, ror #20
 a24:	6b6e694c 	blvs	1b9af5c <_start-0x2e4b50a4>
 a28:	63617453 	cmnvs	r1, #1392508928	; 0x53000000
 a2c:	6c435f6b 	mcrrvs	15, 6, r5, r3, cr11
 a30:	00726165 	rsbseq	r6, r2, r5, ror #2
 a34:	6b6e694c 	blvs	1b9af6c <_start-0x2e4b5094>
 a38:	63617453 	cmnvs	r1, #1392508928	; 0x53000000
 a3c:	6f545f6b 	svcvs	0x00545f6b
 a40:	694c0070 	stmdbvs	ip, {r4, r5, r6}^
 a44:	74536b6e 	ldrbvc	r6, [r3], #-2926
 a48:	006b6361 	rsbeq	r6, fp, r1, ror #6
 a4c:	6b6e696c 	blvs	1b9b004 <_start-0x2e4b4ffc>
 a50:	63617453 	cmnvs	r1, #1392508928	; 0x53000000
 a54:	4c54006b 	mrrcmi	0, 6, r0, r4, cr11
 a58:	536b6e69 	cmnpl	fp, #1680	; 0x690
 a5c:	6b636174 	blvs	18d9034 <_start-0x2e776fcc>
 a60:	65646f4e 	strbvs	r6, [r4, #-3918]!
 a64:	6e694c00 	cdpvs	12, 6, cr4, cr9, cr0, {0}
 a68:	6174536b 	cmnvs	r4, fp, ror #6
 a6c:	445f6b63 	ldrbmi	r6, [pc], #2915	; a74 <_start-0x3004f58c>
 a70:	72747365 	rsbsvc	r7, r4, #-1811939327	; 0x94000001
 a74:	4c00796f 	stcmi	9, cr7, [r0], {111}
 a78:	516b6e69 	cmnpl	fp, r9, ror #28
 a7c:	65756575 	ldrbvs	r6, [r5, #-1397]!
 a80:	7465525f 	strbtvc	r5, [r5], #-607
 a84:	76656972 	undefined
 a88:	694c0065 	stmdbvs	ip, {r0, r2, r5, r6}^
 a8c:	75516b6e 	ldrbvc	r6, [r1, #-2926]
 a90:	5f657565 	svcpl	0x00657565
 a94:	676e654c 	strbvs	r6, [lr, -ip, asr #10]!
 a98:	4c006874 	stcmi	8, cr6, [r0], {116}
 a9c:	516b6e69 	cmnpl	fp, r9, ror #28
 aa0:	65756575 	ldrbvs	r6, [r5, #-1397]!
 aa4:	6e694c00 	cdpvs	12, 6, cr4, cr9, cr0, {0}
 aa8:	6575516b 	ldrbvs	r5, [r5, #-363]!
 aac:	485f6575 	ldmdami	pc, {r0, r2, r4, r5, r6, r8, sl, sp, lr}^
 ab0:	65646165 	strbvs	r6, [r4, #-357]!
 ab4:	694c0072 	stmdbvs	ip, {r1, r4, r5, r6}^
 ab8:	75516b6e 	ldrbvc	r6, [r1, #-2926]
 abc:	5f657565 	svcpl	0x00657565
 ac0:	74736544 	ldrbtvc	r6, [r3], #-1348
 ac4:	00796f72 	rsbseq	r6, r9, r2, ror pc
 ac8:	6b6e694c 	blvs	1b9b000 <_start-0x2e4b5000>
 acc:	75657551 	strbvc	r7, [r5, #-1361]!
 ad0:	6c435f65 	mcrrvs	15, 6, r5, r3, cr5
 ad4:	00726165 	rsbseq	r6, r2, r5, ror #2
 ad8:	6b6e694c 	blvs	1b9b010 <_start-0x2e4b4ff0>
 adc:	75657551 	strbvc	r7, [r5, #-1361]!
 ae0:	72435f65 	subvc	r5, r3, #404	; 0x194
 ae4:	65746165 	ldrbvs	r6, [r4, #-357]!
 ae8:	6e694c00 	cdpvs	12, 6, cr4, cr9, cr0, {0}
 aec:	6575516b 	ldrbvs	r5, [r5, #-363]!
 af0:	632e6575 	teqvs	lr, #490733568	; 0x1d400000
 af4:	61745f00 	cmnvs	r4, r0, lsl #30
 af8:	694c5f67 	stmdbvs	ip, {r0, r1, r2, r5, r6, r8, r9, sl, fp, ip, lr}^
 afc:	75516b6e 	ldrbvc	r6, [r1, #-2926]
 b00:	4e657565 	cdpmi	5, 6, cr7, cr5, cr5, {3}
 b04:	0065646f 	rsbeq	r6, r5, pc, ror #8
 b08:	6b6e696c 	blvs	1b9b0c0 <_start-0x2e4b4f40>
 b0c:	75657551 	strbvc	r7, [r5, #-1361]!
 b10:	694c0065 	stmdbvs	ip, {r0, r2, r5, r6}^
 b14:	75516b6e 	ldrbvc	r6, [r1, #-2926]
 b18:	5f657565 	svcpl	0x00657565
 b1c:	65707041 	ldrbvs	r7, [r0, #-65]!
 b20:	2f00646e 	svccs	0x0000646e
 b24:	656d6f68 	strbvs	r6, [sp, #-3944]!
 b28:	6e694c2f 	cdpvs	12, 6, cr4, cr9, cr15, {1}
 b2c:	542f7875 	strtpl	r7, [pc], #2165	; b34 <_start-0x3004f4cc>
 b30:	2f747365 	svccs	0x00747365
 b34:	696e694d 	stmdbvs	lr!, {r0, r2, r3, r6, r8, fp, sp, lr}^
 b38:	30343432 	eorscc	r3, r4, r2, lsr r4
 b3c:	7365542f 	cmnvc	r5, #788529152	; 0x2f000000
 b40:	435f0074 	cmpmi	pc, #116	; 0x74
 b44:	414d4d4f 	cmpmi	sp, pc, asr #26
 b48:	4c5f444e 	cfldrdmi	mvd4, [pc], {78}
 b4c:	5f545349 	svcpl	0x00545349
 b50:	45444f4e 	strbmi	r4, [r4, #-3918]
 b54:	6d6f6300 	stclvs	3, cr6, [pc]
 b58:	646e616d 	strbtvs	r6, [lr], #-365
 b5c:	6b6e694c 	blvs	1b9b094 <_start-0x2e4b4f6c>
 b60:	746f6e00 	strbtvc	r6, [pc], #3584	; b68 <_start-0x3004f498>
 b64:	74654765 	strbtvc	r4, [r5], #-1893
 b68:	65540031 	ldrbvs	r0, [r4, #-49]
 b6c:	694c7473 	stmdbvs	ip, {r0, r1, r4, r5, r6, sl, ip, sp, lr}^
 b70:	694c6b6e 	stmdbvs	ip, {r1, r2, r3, r5, r6, r8, r9, fp, sp, lr}^
 b74:	63007473 	movwvs	r7, #1139	; 0x473
 b78:	616d6d6f 	cmnvs	sp, pc, ror #26
 b7c:	6e00646e 	cdpvs	4, 0, cr6, cr0, cr14, {3}
 b80:	3165746f 	cmncc	r5, pc, ror #8
 b84:	73655400 	cmnvc	r5, #0	; 0x0
 b88:	6e694c74 	mcrvs	12, 3, r4, cr9, cr4, {3}
 b8c:	73694c6b 	cmnvc	r9, #27392	; 0x6b00
 b90:	00632e74 	rsbeq	r2, r3, r4, ror lr
Disassembly of section .comment:

00000000 <.comment>:
   0:	43434700 	movtmi	r4, #14080	; 0x3700
   4:	5328203a 	teqpl	r8, #58	; 0x3a
   8:	6372756f 	cmnvs	r2, #465567744	; 0x1bc00000
   c:	20797265 	rsbscs	r7, r9, r5, ror #4
  10:	202b2b47 	eorcs	r2, fp, r7, asr #22
  14:	6574694c 	ldrbvs	r6, [r4, #-2380]!
  18:	30303220 	eorscc	r3, r0, r0, lsr #4
  1c:	2d337138 	ldfcss	f7, [r3, #-224]!
  20:	20293237 	eorcs	r3, r9, r7, lsr r2
  24:	2e332e34 	mrccs	14, 1, r2, cr3, cr4, {1}
  28:	47000032 	smladxmi	r0, r2, r0, r0
  2c:	203a4343 	eorscs	r4, sl, r3, asr #6
  30:	756f5328 	strbvc	r5, [pc, #-808]!	; fffffd10 <bss_end+0xcff75aa0>
  34:	72656372 	rsbvc	r6, r5, #-939524095	; 0xc8000001
  38:	2b472079 	blcs	11c8224 <_start-0x2ee87ddc>
  3c:	694c202b 	stmdbvs	ip, {r0, r1, r3, r5, sp}^
  40:	32206574 	eorcc	r6, r0, #486539264	; 0x1d000000
  44:	71383030 	teqvc	r8, r0, lsr r0
  48:	32372d33 	eorscc	r2, r7, #3264	; 0xcc0
  4c:	2e342029 	cdpcs	0, 3, cr2, cr4, cr9, {1}
  50:	00322e33 	eorseq	r2, r2, r3, lsr lr
  54:	43434700 	movtmi	r4, #14080	; 0x3700
  58:	5328203a 	teqpl	r8, #58	; 0x3a
  5c:	6372756f 	cmnvs	r2, #465567744	; 0x1bc00000
  60:	20797265 	rsbscs	r7, r9, r5, ror #4
  64:	202b2b47 	eorcs	r2, fp, r7, asr #22
  68:	6574694c 	ldrbvs	r6, [r4, #-2380]!
  6c:	30303220 	eorscc	r3, r0, r0, lsr #4
  70:	2d337138 	ldfcss	f7, [r3, #-224]!
  74:	20293237 	eorcs	r3, r9, r7, lsr r2
  78:	2e332e34 	mrccs	14, 1, r2, cr3, cr4, {1}
  7c:	47000032 	smladxmi	r0, r2, r0, r0
  80:	203a4343 	eorscs	r4, sl, r3, asr #6
  84:	756f5328 	strbvc	r5, [pc, #-808]!	; fffffd64 <bss_end+0xcff75af4>
  88:	72656372 	rsbvc	r6, r5, #-939524095	; 0xc8000001
  8c:	2b472079 	blcs	11c8278 <_start-0x2ee87d88>
  90:	694c202b 	stmdbvs	ip, {r0, r1, r3, r5, sp}^
  94:	32206574 	eorcc	r6, r0, #486539264	; 0x1d000000
  98:	71383030 	teqvc	r8, r0, lsr r0
  9c:	32372d33 	eorscc	r2, r7, #3264	; 0xcc0
  a0:	2e342029 	cdpcs	0, 3, cr2, cr4, cr9, {1}
  a4:	00322e33 	eorseq	r2, r2, r3, lsr lr
  a8:	43434700 	movtmi	r4, #14080	; 0x3700
  ac:	5328203a 	teqpl	r8, #58	; 0x3a
  b0:	6372756f 	cmnvs	r2, #465567744	; 0x1bc00000
  b4:	20797265 	rsbscs	r7, r9, r5, ror #4
  b8:	202b2b47 	eorcs	r2, fp, r7, asr #22
  bc:	6574694c 	ldrbvs	r6, [r4, #-2380]!
  c0:	30303220 	eorscc	r3, r0, r0, lsr #4
  c4:	2d337138 	ldfcss	f7, [r3, #-224]!
  c8:	20293237 	eorcs	r3, r9, r7, lsr r2
  cc:	2e332e34 	mrccs	14, 1, r2, cr3, cr4, {1}
  d0:	47000032 	smladxmi	r0, r2, r0, r0
  d4:	203a4343 	eorscs	r4, sl, r3, asr #6
  d8:	756f5328 	strbvc	r5, [pc, #-808]!	; fffffdb8 <bss_end+0xcff75b48>
  dc:	72656372 	rsbvc	r6, r5, #-939524095	; 0xc8000001
  e0:	2b472079 	blcs	11c82cc <_start-0x2ee87d34>
  e4:	694c202b 	stmdbvs	ip, {r0, r1, r3, r5, sp}^
  e8:	32206574 	eorcc	r6, r0, #486539264	; 0x1d000000
  ec:	71383030 	teqvc	r8, r0, lsr r0
  f0:	32372d33 	eorscc	r2, r7, #3264	; 0xcc0
  f4:	2e342029 	cdpcs	0, 3, cr2, cr4, cr9, {1}
  f8:	00322e33 	eorseq	r2, r2, r3, lsr lr
  fc:	43434700 	movtmi	r4, #14080	; 0x3700
 100:	5328203a 	teqpl	r8, #58	; 0x3a
 104:	6372756f 	cmnvs	r2, #465567744	; 0x1bc00000
 108:	20797265 	rsbscs	r7, r9, r5, ror #4
 10c:	202b2b47 	eorcs	r2, fp, r7, asr #22
 110:	6574694c 	ldrbvs	r6, [r4, #-2380]!
 114:	30303220 	eorscc	r3, r0, r0, lsr #4
 118:	2d337138 	ldfcss	f7, [r3, #-224]!
 11c:	20293237 	eorcs	r3, r9, r7, lsr r2
 120:	2e332e34 	mrccs	14, 1, r2, cr3, cr4, {1}
 124:	47000032 	smladxmi	r0, r2, r0, r0
 128:	203a4343 	eorscs	r4, sl, r3, asr #6
 12c:	756f5328 	strbvc	r5, [pc, #-808]!	; fffffe0c <bss_end+0xcff75b9c>
 130:	72656372 	rsbvc	r6, r5, #-939524095	; 0xc8000001
 134:	2b472079 	blcs	11c8320 <_start-0x2ee87ce0>
 138:	694c202b 	stmdbvs	ip, {r0, r1, r3, r5, sp}^
 13c:	32206574 	eorcc	r6, r0, #486539264	; 0x1d000000
 140:	71383030 	teqvc	r8, r0, lsr r0
 144:	32372d33 	eorscc	r2, r7, #3264	; 0xcc0
 148:	2e342029 	cdpcs	0, 3, cr2, cr4, cr9, {1}
 14c:	00322e33 	eorseq	r2, r2, r3, lsr lr
 150:	43434700 	movtmi	r4, #14080	; 0x3700
 154:	5328203a 	teqpl	r8, #58	; 0x3a
 158:	6372756f 	cmnvs	r2, #465567744	; 0x1bc00000
 15c:	20797265 	rsbscs	r7, r9, r5, ror #4
 160:	202b2b47 	eorcs	r2, fp, r7, asr #22
 164:	6574694c 	ldrbvs	r6, [r4, #-2380]!
 168:	30303220 	eorscc	r3, r0, r0, lsr #4
 16c:	2d337138 	ldfcss	f7, [r3, #-224]!
 170:	20293237 	eorcs	r3, r9, r7, lsr r2
 174:	2e332e34 	mrccs	14, 1, r2, cr3, cr4, {1}
 178:	47000032 	smladxmi	r0, r2, r0, r0
 17c:	203a4343 	eorscs	r4, sl, r3, asr #6
 180:	756f5328 	strbvc	r5, [pc, #-808]!	; fffffe60 <bss_end+0xcff75bf0>
 184:	72656372 	rsbvc	r6, r5, #-939524095	; 0xc8000001
 188:	2b472079 	blcs	11c8374 <_start-0x2ee87c8c>
 18c:	694c202b 	stmdbvs	ip, {r0, r1, r3, r5, sp}^
 190:	32206574 	eorcc	r6, r0, #486539264	; 0x1d000000
 194:	71383030 	teqvc	r8, r0, lsr r0
 198:	32372d33 	eorscc	r2, r7, #3264	; 0xcc0
 19c:	2e342029 	cdpcs	0, 3, cr2, cr4, cr9, {1}
 1a0:	00322e33 	eorseq	r2, r2, r3, lsr lr
 1a4:	43434700 	movtmi	r4, #14080	; 0x3700
 1a8:	5328203a 	teqpl	r8, #58	; 0x3a
 1ac:	6372756f 	cmnvs	r2, #465567744	; 0x1bc00000
 1b0:	20797265 	rsbscs	r7, r9, r5, ror #4
 1b4:	202b2b47 	eorcs	r2, fp, r7, asr #22
 1b8:	6574694c 	ldrbvs	r6, [r4, #-2380]!
 1bc:	30303220 	eorscc	r3, r0, r0, lsr #4
 1c0:	2d337138 	ldfcss	f7, [r3, #-224]!
 1c4:	20293237 	eorcs	r3, r9, r7, lsr r2
 1c8:	2e332e34 	mrccs	14, 1, r2, cr3, cr4, {1}
 1cc:	47000032 	smladxmi	r0, r2, r0, r0
 1d0:	203a4343 	eorscs	r4, sl, r3, asr #6
 1d4:	756f5328 	strbvc	r5, [pc, #-808]!	; fffffeb4 <bss_end+0xcff75c44>
 1d8:	72656372 	rsbvc	r6, r5, #-939524095	; 0xc8000001
 1dc:	2b472079 	blcs	11c83c8 <_start-0x2ee87c38>
 1e0:	694c202b 	stmdbvs	ip, {r0, r1, r3, r5, sp}^
 1e4:	32206574 	eorcc	r6, r0, #486539264	; 0x1d000000
 1e8:	71383030 	teqvc	r8, r0, lsr r0
 1ec:	32372d33 	eorscc	r2, r7, #3264	; 0xcc0
 1f0:	2e342029 	cdpcs	0, 3, cr2, cr4, cr9, {1}
 1f4:	00322e33 	eorseq	r2, r2, r3, lsr lr
 1f8:	43434700 	movtmi	r4, #14080	; 0x3700
 1fc:	5328203a 	teqpl	r8, #58	; 0x3a
 200:	6372756f 	cmnvs	r2, #465567744	; 0x1bc00000
 204:	20797265 	rsbscs	r7, r9, r5, ror #4
 208:	202b2b47 	eorcs	r2, fp, r7, asr #22
 20c:	6574694c 	ldrbvs	r6, [r4, #-2380]!
 210:	30303220 	eorscc	r3, r0, r0, lsr #4
 214:	2d337138 	ldfcss	f7, [r3, #-224]!
 218:	20293237 	eorcs	r3, r9, r7, lsr r2
 21c:	2e332e34 	mrccs	14, 1, r2, cr3, cr4, {1}
 220:	47000032 	smladxmi	r0, r2, r0, r0
 224:	203a4343 	eorscs	r4, sl, r3, asr #6
 228:	756f5328 	strbvc	r5, [pc, #-808]!	; ffffff08 <bss_end+0xcff75c98>
 22c:	72656372 	rsbvc	r6, r5, #-939524095	; 0xc8000001
 230:	2b472079 	blcs	11c841c <_start-0x2ee87be4>
 234:	694c202b 	stmdbvs	ip, {r0, r1, r3, r5, sp}^
 238:	32206574 	eorcc	r6, r0, #486539264	; 0x1d000000
 23c:	71383030 	teqvc	r8, r0, lsr r0
 240:	32372d33 	eorscc	r2, r7, #3264	; 0xcc0
 244:	2e342029 	cdpcs	0, 3, cr2, cr4, cr9, {1}
 248:	00322e33 	eorseq	r2, r2, r3, lsr lr
 24c:	43434700 	movtmi	r4, #14080	; 0x3700
 250:	5328203a 	teqpl	r8, #58	; 0x3a
 254:	6372756f 	cmnvs	r2, #465567744	; 0x1bc00000
 258:	20797265 	rsbscs	r7, r9, r5, ror #4
 25c:	202b2b47 	eorcs	r2, fp, r7, asr #22
 260:	6574694c 	ldrbvs	r6, [r4, #-2380]!
 264:	30303220 	eorscc	r3, r0, r0, lsr #4
 268:	2d337138 	ldfcss	f7, [r3, #-224]!
 26c:	20293237 	eorcs	r3, r9, r7, lsr r2
 270:	2e332e34 	mrccs	14, 1, r2, cr3, cr4, {1}
 274:	47000032 	smladxmi	r0, r2, r0, r0
 278:	203a4343 	eorscs	r4, sl, r3, asr #6
 27c:	756f5328 	strbvc	r5, [pc, #-808]!	; ffffff5c <bss_end+0xcff75cec>
 280:	72656372 	rsbvc	r6, r5, #-939524095	; 0xc8000001
 284:	2b472079 	blcs	11c8470 <_start-0x2ee87b90>
 288:	694c202b 	stmdbvs	ip, {r0, r1, r3, r5, sp}^
 28c:	32206574 	eorcc	r6, r0, #486539264	; 0x1d000000
 290:	71383030 	teqvc	r8, r0, lsr r0
 294:	32372d33 	eorscc	r2, r7, #3264	; 0xcc0
 298:	2e342029 	cdpcs	0, 3, cr2, cr4, cr9, {1}
 29c:	00322e33 	eorseq	r2, r2, r3, lsr lr
 2a0:	43434700 	movtmi	r4, #14080	; 0x3700
 2a4:	5328203a 	teqpl	r8, #58	; 0x3a
 2a8:	6372756f 	cmnvs	r2, #465567744	; 0x1bc00000
 2ac:	20797265 	rsbscs	r7, r9, r5, ror #4
 2b0:	202b2b47 	eorcs	r2, fp, r7, asr #22
 2b4:	6574694c 	ldrbvs	r6, [r4, #-2380]!
 2b8:	30303220 	eorscc	r3, r0, r0, lsr #4
 2bc:	2d337138 	ldfcss	f7, [r3, #-224]!
 2c0:	20293237 	eorcs	r3, r9, r7, lsr r2
 2c4:	2e332e34 	mrccs	14, 1, r2, cr3, cr4, {1}
 2c8:	47000032 	smladxmi	r0, r2, r0, r0
 2cc:	203a4343 	eorscs	r4, sl, r3, asr #6
 2d0:	756f5328 	strbvc	r5, [pc, #-808]!	; ffffffb0 <bss_end+0xcff75d40>
 2d4:	72656372 	rsbvc	r6, r5, #-939524095	; 0xc8000001
 2d8:	2b472079 	blcs	11c84c4 <_start-0x2ee87b3c>
 2dc:	694c202b 	stmdbvs	ip, {r0, r1, r3, r5, sp}^
 2e0:	32206574 	eorcc	r6, r0, #486539264	; 0x1d000000
 2e4:	71383030 	teqvc	r8, r0, lsr r0
 2e8:	32372d33 	eorscc	r2, r7, #3264	; 0xcc0
 2ec:	2e342029 	cdpcs	0, 3, cr2, cr4, cr9, {1}
 2f0:	00322e33 	eorseq	r2, r2, r3, lsr lr
 2f4:	43434700 	movtmi	r4, #14080	; 0x3700
 2f8:	5328203a 	teqpl	r8, #58	; 0x3a
 2fc:	6372756f 	cmnvs	r2, #465567744	; 0x1bc00000
 300:	20797265 	rsbscs	r7, r9, r5, ror #4
 304:	202b2b47 	eorcs	r2, fp, r7, asr #22
 308:	6574694c 	ldrbvs	r6, [r4, #-2380]!
 30c:	30303220 	eorscc	r3, r0, r0, lsr #4
 310:	2d337138 	ldfcss	f7, [r3, #-224]!
 314:	20293237 	eorcs	r3, r9, r7, lsr r2
 318:	2e332e34 	mrccs	14, 1, r2, cr3, cr4, {1}
 31c:	47000032 	smladxmi	r0, r2, r0, r0
 320:	203a4343 	eorscs	r4, sl, r3, asr #6
 324:	756f5328 	strbvc	r5, [pc, #-808]!	; 4 <_start-0x3004fffc>
 328:	72656372 	rsbvc	r6, r5, #-939524095	; 0xc8000001
 32c:	2b472079 	blcs	11c8518 <_start-0x2ee87ae8>
 330:	694c202b 	stmdbvs	ip, {r0, r1, r3, r5, sp}^
 334:	32206574 	eorcc	r6, r0, #486539264	; 0x1d000000
 338:	71383030 	teqvc	r8, r0, lsr r0
 33c:	32372d33 	eorscc	r2, r7, #3264	; 0xcc0
 340:	2e342029 	cdpcs	0, 3, cr2, cr4, cr9, {1}
 344:	00322e33 	eorseq	r2, r2, r3, lsr lr
 348:	43434700 	movtmi	r4, #14080	; 0x3700
 34c:	5328203a 	teqpl	r8, #58	; 0x3a
 350:	6372756f 	cmnvs	r2, #465567744	; 0x1bc00000
 354:	20797265 	rsbscs	r7, r9, r5, ror #4
 358:	202b2b47 	eorcs	r2, fp, r7, asr #22
 35c:	6574694c 	ldrbvs	r6, [r4, #-2380]!
 360:	30303220 	eorscc	r3, r0, r0, lsr #4
 364:	2d337138 	ldfcss	f7, [r3, #-224]!
 368:	20293237 	eorcs	r3, r9, r7, lsr r2
 36c:	2e332e34 	mrccs	14, 1, r2, cr3, cr4, {1}
 370:	47000032 	smladxmi	r0, r2, r0, r0
 374:	203a4343 	eorscs	r4, sl, r3, asr #6
 378:	756f5328 	strbvc	r5, [pc, #-808]!	; 58 <_start-0x3004ffa8>
 37c:	72656372 	rsbvc	r6, r5, #-939524095	; 0xc8000001
 380:	2b472079 	blcs	11c856c <_start-0x2ee87a94>
 384:	694c202b 	stmdbvs	ip, {r0, r1, r3, r5, sp}^
 388:	32206574 	eorcc	r6, r0, #486539264	; 0x1d000000
 38c:	71383030 	teqvc	r8, r0, lsr r0
 390:	32372d33 	eorscc	r2, r7, #3264	; 0xcc0
 394:	2e342029 	cdpcs	0, 3, cr2, cr4, cr9, {1}
 398:	00322e33 	eorseq	r2, r2, r3, lsr lr
 39c:	43434700 	movtmi	r4, #14080	; 0x3700
 3a0:	5328203a 	teqpl	r8, #58	; 0x3a
 3a4:	6372756f 	cmnvs	r2, #465567744	; 0x1bc00000
 3a8:	20797265 	rsbscs	r7, r9, r5, ror #4
 3ac:	202b2b47 	eorcs	r2, fp, r7, asr #22
 3b0:	6574694c 	ldrbvs	r6, [r4, #-2380]!
 3b4:	30303220 	eorscc	r3, r0, r0, lsr #4
 3b8:	2d337138 	ldfcss	f7, [r3, #-224]!
 3bc:	20293237 	eorcs	r3, r9, r7, lsr r2
 3c0:	2e332e34 	mrccs	14, 1, r2, cr3, cr4, {1}
 3c4:	47000032 	smladxmi	r0, r2, r0, r0
 3c8:	203a4343 	eorscs	r4, sl, r3, asr #6
 3cc:	756f5328 	strbvc	r5, [pc, #-808]!	; ac <_start-0x3004ff54>
 3d0:	72656372 	rsbvc	r6, r5, #-939524095	; 0xc8000001
 3d4:	2b472079 	blcs	11c85c0 <_start-0x2ee87a40>
 3d8:	694c202b 	stmdbvs	ip, {r0, r1, r3, r5, sp}^
 3dc:	32206574 	eorcc	r6, r0, #486539264	; 0x1d000000
 3e0:	71383030 	teqvc	r8, r0, lsr r0
 3e4:	32372d33 	eorscc	r2, r7, #3264	; 0xcc0
 3e8:	2e342029 	cdpcs	0, 3, cr2, cr4, cr9, {1}
 3ec:	00322e33 	eorseq	r2, r2, r3, lsr lr
 3f0:	43434700 	movtmi	r4, #14080	; 0x3700
 3f4:	5328203a 	teqpl	r8, #58	; 0x3a
 3f8:	6372756f 	cmnvs	r2, #465567744	; 0x1bc00000
 3fc:	20797265 	rsbscs	r7, r9, r5, ror #4
 400:	202b2b47 	eorcs	r2, fp, r7, asr #22
 404:	6574694c 	ldrbvs	r6, [r4, #-2380]!
 408:	30303220 	eorscc	r3, r0, r0, lsr #4
 40c:	2d337138 	ldfcss	f7, [r3, #-224]!
 410:	20293237 	eorcs	r3, r9, r7, lsr r2
 414:	2e332e34 	mrccs	14, 1, r2, cr3, cr4, {1}
 418:	47000032 	smladxmi	r0, r2, r0, r0
 41c:	203a4343 	eorscs	r4, sl, r3, asr #6
 420:	756f5328 	strbvc	r5, [pc, #-808]!	; 100 <_start-0x3004ff00>
 424:	72656372 	rsbvc	r6, r5, #-939524095	; 0xc8000001
 428:	2b472079 	blcs	11c8614 <_start-0x2ee879ec>
 42c:	694c202b 	stmdbvs	ip, {r0, r1, r3, r5, sp}^
 430:	32206574 	eorcc	r6, r0, #486539264	; 0x1d000000
 434:	71383030 	teqvc	r8, r0, lsr r0
 438:	32372d33 	eorscc	r2, r7, #3264	; 0xcc0
 43c:	2e342029 	cdpcs	0, 3, cr2, cr4, cr9, {1}
 440:	00322e33 	eorseq	r2, r2, r3, lsr lr
 444:	43434700 	movtmi	r4, #14080	; 0x3700
 448:	5328203a 	teqpl	r8, #58	; 0x3a
 44c:	6372756f 	cmnvs	r2, #465567744	; 0x1bc00000
 450:	20797265 	rsbscs	r7, r9, r5, ror #4
 454:	202b2b47 	eorcs	r2, fp, r7, asr #22
 458:	6574694c 	ldrbvs	r6, [r4, #-2380]!
 45c:	30303220 	eorscc	r3, r0, r0, lsr #4
 460:	2d337138 	ldfcss	f7, [r3, #-224]!
 464:	20293237 	eorcs	r3, r9, r7, lsr r2
 468:	2e332e34 	mrccs	14, 1, r2, cr3, cr4, {1}
 46c:	47000032 	smladxmi	r0, r2, r0, r0
 470:	203a4343 	eorscs	r4, sl, r3, asr #6
 474:	756f5328 	strbvc	r5, [pc, #-808]!	; 154 <_start-0x3004feac>
 478:	72656372 	rsbvc	r6, r5, #-939524095	; 0xc8000001
 47c:	2b472079 	blcs	11c8668 <_start-0x2ee87998>
 480:	694c202b 	stmdbvs	ip, {r0, r1, r3, r5, sp}^
 484:	32206574 	eorcc	r6, r0, #486539264	; 0x1d000000
 488:	71383030 	teqvc	r8, r0, lsr r0
 48c:	32372d33 	eorscc	r2, r7, #3264	; 0xcc0
 490:	2e342029 	cdpcs	0, 3, cr2, cr4, cr9, {1}
 494:	00322e33 	eorseq	r2, r2, r3, lsr lr
 498:	43434700 	movtmi	r4, #14080	; 0x3700
 49c:	5328203a 	teqpl	r8, #58	; 0x3a
 4a0:	6372756f 	cmnvs	r2, #465567744	; 0x1bc00000
 4a4:	20797265 	rsbscs	r7, r9, r5, ror #4
 4a8:	202b2b47 	eorcs	r2, fp, r7, asr #22
 4ac:	6574694c 	ldrbvs	r6, [r4, #-2380]!
 4b0:	30303220 	eorscc	r3, r0, r0, lsr #4
 4b4:	2d337138 	ldfcss	f7, [r3, #-224]!
 4b8:	20293237 	eorcs	r3, r9, r7, lsr r2
 4bc:	2e332e34 	mrccs	14, 1, r2, cr3, cr4, {1}
 4c0:	47000032 	smladxmi	r0, r2, r0, r0
 4c4:	203a4343 	eorscs	r4, sl, r3, asr #6
 4c8:	756f5328 	strbvc	r5, [pc, #-808]!	; 1a8 <_start-0x3004fe58>
 4cc:	72656372 	rsbvc	r6, r5, #-939524095	; 0xc8000001
 4d0:	2b472079 	blcs	11c86bc <_start-0x2ee87944>
 4d4:	694c202b 	stmdbvs	ip, {r0, r1, r3, r5, sp}^
 4d8:	32206574 	eorcc	r6, r0, #486539264	; 0x1d000000
 4dc:	71383030 	teqvc	r8, r0, lsr r0
 4e0:	32372d33 	eorscc	r2, r7, #3264	; 0xcc0
 4e4:	2e342029 	cdpcs	0, 3, cr2, cr4, cr9, {1}
 4e8:	00322e33 	eorseq	r2, r2, r3, lsr lr
 4ec:	43434700 	movtmi	r4, #14080	; 0x3700
 4f0:	5328203a 	teqpl	r8, #58	; 0x3a
 4f4:	6372756f 	cmnvs	r2, #465567744	; 0x1bc00000
 4f8:	20797265 	rsbscs	r7, r9, r5, ror #4
 4fc:	202b2b47 	eorcs	r2, fp, r7, asr #22
 500:	6574694c 	ldrbvs	r6, [r4, #-2380]!
 504:	30303220 	eorscc	r3, r0, r0, lsr #4
 508:	2d337138 	ldfcss	f7, [r3, #-224]!
 50c:	20293237 	eorcs	r3, r9, r7, lsr r2
 510:	2e332e34 	mrccs	14, 1, r2, cr3, cr4, {1}
 514:	47000032 	smladxmi	r0, r2, r0, r0
 518:	203a4343 	eorscs	r4, sl, r3, asr #6
 51c:	756f5328 	strbvc	r5, [pc, #-808]!	; 1fc <_start-0x3004fe04>
 520:	72656372 	rsbvc	r6, r5, #-939524095	; 0xc8000001
 524:	2b472079 	blcs	11c8710 <_start-0x2ee878f0>
 528:	694c202b 	stmdbvs	ip, {r0, r1, r3, r5, sp}^
 52c:	32206574 	eorcc	r6, r0, #486539264	; 0x1d000000
 530:	71383030 	teqvc	r8, r0, lsr r0
 534:	32372d33 	eorscc	r2, r7, #3264	; 0xcc0
 538:	2e342029 	cdpcs	0, 3, cr2, cr4, cr9, {1}
 53c:	00322e33 	eorseq	r2, r2, r3, lsr lr
 540:	43434700 	movtmi	r4, #14080	; 0x3700
 544:	5328203a 	teqpl	r8, #58	; 0x3a
 548:	6372756f 	cmnvs	r2, #465567744	; 0x1bc00000
 54c:	20797265 	rsbscs	r7, r9, r5, ror #4
 550:	202b2b47 	eorcs	r2, fp, r7, asr #22
 554:	6574694c 	ldrbvs	r6, [r4, #-2380]!
 558:	30303220 	eorscc	r3, r0, r0, lsr #4
 55c:	2d337138 	ldfcss	f7, [r3, #-224]!
 560:	20293237 	eorcs	r3, r9, r7, lsr r2
 564:	2e332e34 	mrccs	14, 1, r2, cr3, cr4, {1}
 568:	Address 0x00000568 is out of bounds.

